
kernel.elf:     file format elf32-tradlittlemips


Disassembly of section .text:

80000000 <_ftext>:
80000000:	401a2000 	mfc0	k0,c0_context
80000004:	8f5b0000 	lw	k1,0(k0)
80000008:	409b1000 	mtc0	k1,c0_entrylo0
8000000c:	8f5b0004 	lw	k1,4(k0)
80000010:	409b1800 	mtc0	k1,c0_entrylo1
80000014:	8f5b0008 	lw	k1,8(k0)
80000018:	409b5000 	mtc0	k1,c0_entryhi
8000001c:	8f5b000c 	lw	k1,12(k0)
80000020:	409b2800 	mtc0	k1,c0_pagemask
	...
8000002c:	42000006 	tlbwr
80000030:	42000018 	eret
	...
80000180:	3c1a8000 	lui	k0,0x8000
80000184:	235a0001 	addi	k0,k0,1
80000188:	03bad02b 	sltu	k0,sp,k0
8000018c:	13400074 	beqz	k0,80000360 <exception_save_context>
80000190:	03a0d825 	move	k1,sp
80000194:	3c1a8002 	lui	k0,0x8002
80000198:	275aa934 	addiu	k0,k0,-22220
8000019c:	080000d8 	j	80000360 <exception_save_context>
800001a0:	8f5d0000 	lw	sp,0(k0)
	...
80000200:	3c1a8000 	lui	k0,0x8000
80000204:	235a0001 	addi	k0,k0,1
80000208:	03bad02b 	sltu	k0,sp,k0
8000020c:	13400004 	beqz	k0,80000220 <interrupt_save_context>
80000210:	03a0d825 	move	k1,sp
80000214:	3c1a8002 	lui	k0,0x8002
80000218:	275aa934 	addiu	k0,k0,-22220
8000021c:	8f5d0000 	lw	sp,0(k0)

80000220 <interrupt_save_context>:
80000220:	27bdff80 	addiu	sp,sp,-128
80000224:	afa10004 	sw	at,4(sp)
80000228:	afa20008 	sw	v0,8(sp)
8000022c:	afa3000c 	sw	v1,12(sp)
80000230:	afa40010 	sw	a0,16(sp)
80000234:	afa50014 	sw	a1,20(sp)
80000238:	afa60018 	sw	a2,24(sp)
8000023c:	afa7001c 	sw	a3,28(sp)
80000240:	afa80020 	sw	t0,32(sp)
80000244:	afa90024 	sw	t1,36(sp)
80000248:	afaa0028 	sw	t2,40(sp)
8000024c:	afab002c 	sw	t3,44(sp)
80000250:	afac0030 	sw	t4,48(sp)
80000254:	afad0034 	sw	t5,52(sp)
80000258:	afae0038 	sw	t6,56(sp)
8000025c:	afaf003c 	sw	t7,60(sp)
80000260:	afb00040 	sw	s0,64(sp)
80000264:	afb10044 	sw	s1,68(sp)
80000268:	afb20048 	sw	s2,72(sp)
8000026c:	afb3004c 	sw	s3,76(sp)
80000270:	afb40050 	sw	s4,80(sp)
80000274:	afb50054 	sw	s5,84(sp)
80000278:	afb60058 	sw	s6,88(sp)
8000027c:	afb7005c 	sw	s7,92(sp)
80000280:	afb80060 	sw	t8,96(sp)
80000284:	afb90064 	sw	t9,100(sp)
80000288:	afbc0070 	sw	gp,112(sp)
8000028c:	afbb0074 	sw	k1,116(sp)
80000290:	afbe0078 	sw	s8,120(sp)
80000294:	afbf007c 	sw	ra,124(sp)
80000298:	40046000 	mfc0	a0,c0_status
8000029c:	40056800 	mfc0	a1,c0_cause
800002a0:	40067000 	mfc0	a2,c0_epc
800002a4:	00005810 	mfhi	t3
800002a8:	00006012 	mflo	t4
800002ac:	afa60000 	sw	a2,0(sp)
800002b0:	afab0068 	sw	t3,104(sp)
800002b4:	afac006c 	sw	t4,108(sp)
800002b8:	03a03025 	move	a2,sp
800002bc:	23bdffe0 	addi	sp,sp,-32
800002c0:	0c000483 	jal	8000120c <do_interrupts>
800002c4:	00000000 	nop
800002c8:	23bd0020 	addi	sp,sp,32

800002cc <restore_context>:
800002cc:	8fa60000 	lw	a2,0(sp)
800002d0:	8fab0068 	lw	t3,104(sp)
800002d4:	8fac006c 	lw	t4,108(sp)
800002d8:	40867000 	mtc0	a2,c0_epc
800002dc:	01600011 	mthi	t3
800002e0:	01800013 	mtlo	t4
800002e4:	8fa10004 	lw	at,4(sp)
800002e8:	8fa20008 	lw	v0,8(sp)
800002ec:	8fa3000c 	lw	v1,12(sp)
800002f0:	8fa40010 	lw	a0,16(sp)
800002f4:	8fa50014 	lw	a1,20(sp)
800002f8:	8fa60018 	lw	a2,24(sp)
800002fc:	8fa7001c 	lw	a3,28(sp)
80000300:	8fa80020 	lw	t0,32(sp)
80000304:	8fa90024 	lw	t1,36(sp)
80000308:	8faa0028 	lw	t2,40(sp)
8000030c:	8fab002c 	lw	t3,44(sp)
80000310:	8fac0030 	lw	t4,48(sp)
80000314:	8fad0034 	lw	t5,52(sp)
80000318:	8fae0038 	lw	t6,56(sp)
8000031c:	8faf003c 	lw	t7,60(sp)
80000320:	8fb00040 	lw	s0,64(sp)
80000324:	8fb10044 	lw	s1,68(sp)
80000328:	8fb20048 	lw	s2,72(sp)
8000032c:	8fb3004c 	lw	s3,76(sp)
80000330:	8fb40050 	lw	s4,80(sp)
80000334:	8fb50054 	lw	s5,84(sp)
80000338:	8fb60058 	lw	s6,88(sp)
8000033c:	8fb7005c 	lw	s7,92(sp)
80000340:	8fb80060 	lw	t8,96(sp)
80000344:	8fb90064 	lw	t9,100(sp)
80000348:	8fbc0070 	lw	gp,112(sp)
8000034c:	8fbb0074 	lw	k1,116(sp)
80000350:	8fbe0078 	lw	s8,120(sp)
80000354:	8fbf007c 	lw	ra,124(sp)
80000358:	0360e825 	move	sp,k1
8000035c:	42000018 	eret

80000360 <exception_save_context>:
80000360:	27bdff80 	addiu	sp,sp,-128
80000364:	afa10004 	sw	at,4(sp)
80000368:	afa20008 	sw	v0,8(sp)
8000036c:	afa3000c 	sw	v1,12(sp)
80000370:	afa40010 	sw	a0,16(sp)
80000374:	afa50014 	sw	a1,20(sp)
80000378:	afa60018 	sw	a2,24(sp)
8000037c:	afa7001c 	sw	a3,28(sp)
80000380:	afa80020 	sw	t0,32(sp)
80000384:	afa90024 	sw	t1,36(sp)
80000388:	afaa0028 	sw	t2,40(sp)
8000038c:	afab002c 	sw	t3,44(sp)
80000390:	afac0030 	sw	t4,48(sp)
80000394:	afad0034 	sw	t5,52(sp)
80000398:	afae0038 	sw	t6,56(sp)
8000039c:	afaf003c 	sw	t7,60(sp)
800003a0:	afb00040 	sw	s0,64(sp)
800003a4:	afb10044 	sw	s1,68(sp)
800003a8:	afb20048 	sw	s2,72(sp)
800003ac:	afb3004c 	sw	s3,76(sp)
800003b0:	afb40050 	sw	s4,80(sp)
800003b4:	afb50054 	sw	s5,84(sp)
800003b8:	afb60058 	sw	s6,88(sp)
800003bc:	afb7005c 	sw	s7,92(sp)
800003c0:	afb80060 	sw	t8,96(sp)
800003c4:	afb90064 	sw	t9,100(sp)
800003c8:	afbc0070 	sw	gp,112(sp)
800003cc:	afbb0074 	sw	k1,116(sp)
800003d0:	afbe0078 	sw	s8,120(sp)
800003d4:	afbf007c 	sw	ra,124(sp)
800003d8:	40046000 	mfc0	a0,c0_status
800003dc:	40056800 	mfc0	a1,c0_cause
800003e0:	40067000 	mfc0	a2,c0_epc
800003e4:	00005810 	mfhi	t3
800003e8:	00006012 	mflo	t4
800003ec:	afa60000 	sw	a2,0(sp)
800003f0:	afab0068 	sw	t3,104(sp)
800003f4:	afac006c 	sw	t4,108(sp)
800003f8:	03a03025 	move	a2,sp
800003fc:	23bdffe0 	addi	sp,sp,-32
80000400:	0c00040e 	jal	80001038 <do_exceptions>
80000404:	00000000 	nop
80000408:	23bd0020 	addi	sp,sp,32
8000040c:	080000b3 	j	800002cc <restore_context>
80000410:	00000000 	nop
	...

80001000 <start>:
80001000:	3c1d8100 3c1c8002 279c2900 08002e87     ...<...<.).'....
80001010:	00000000                                ....

80001014 <get_phymm_size>:
80001014:	27bdfff8 	addiu	sp,sp,-8
80001018:	afbe0004 	sw	s8,4(sp)
8000101c:	03a0f025 	move	s8,sp
80001020:	3c020800 	lui	v0,0x800
80001024:	03c0e825 	move	sp,s8
80001028:	8fbe0004 	lw	s8,4(sp)
8000102c:	27bd0008 	addiu	sp,sp,8
80001030:	03e00008 	jr	ra
80001034:	00000000 	nop

80001038 <do_exceptions>:
80001038:	27bdffe0 	addiu	sp,sp,-32
8000103c:	afbf001c 	sw	ra,28(sp)
80001040:	afbe0018 	sw	s8,24(sp)
80001044:	03a0f025 	move	s8,sp
80001048:	afc40020 	sw	a0,32(s8)
8000104c:	afc50024 	sw	a1,36(s8)
80001050:	afc60028 	sw	a2,40(s8)
80001054:	8fc20024 	lw	v0,36(s8)
80001058:	00021082 	srl	v0,v0,0x2
8000105c:	afc20010 	sw	v0,16(s8)
80001060:	8fc20010 	lw	v0,16(s8)
80001064:	3042001f 	andi	v0,v0,0x1f
80001068:	afc20010 	sw	v0,16(s8)
8000106c:	3c028002 	lui	v0,0x8002
80001070:	8fc30010 	lw	v1,16(s8)
80001074:	00031880 	sll	v1,v1,0x2
80001078:	2442ab0c 	addiu	v0,v0,-21748
8000107c:	00621021 	addu	v0,v1,v0
80001080:	8c420000 	lw	v0,0(v0)
80001084:	1040000e 	beqz	v0,800010c0 <do_exceptions+0x88>
80001088:	00000000 	nop
8000108c:	3c028002 	lui	v0,0x8002
80001090:	8fc30010 	lw	v1,16(s8)
80001094:	00031880 	sll	v1,v1,0x2
80001098:	2442ab0c 	addiu	v0,v0,-21748
8000109c:	00621021 	addu	v0,v1,v0
800010a0:	8c420000 	lw	v0,0(v0)
800010a4:	8fc40020 	lw	a0,32(s8)
800010a8:	8fc50024 	lw	a1,36(s8)
800010ac:	8fc60028 	lw	a2,40(s8)
800010b0:	0040f809 	jalr	v0
800010b4:	00000000 	nop
800010b8:	10000003 	b	800010c8 <do_exceptions+0x90>
800010bc:	00000000 	nop
800010c0:	1000ffff 	b	800010c0 <do_exceptions+0x88>
800010c4:	00000000 	nop
800010c8:	03c0e825 	move	sp,s8
800010cc:	8fbf001c 	lw	ra,28(sp)
800010d0:	8fbe0018 	lw	s8,24(sp)
800010d4:	27bd0020 	addiu	sp,sp,32
800010d8:	03e00008 	jr	ra
800010dc:	00000000 	nop

800010e0 <register_exception_handler>:
800010e0:	27bdfff8 	addiu	sp,sp,-8
800010e4:	afbe0004 	sw	s8,4(sp)
800010e8:	03a0f025 	move	s8,sp
800010ec:	afc40008 	sw	a0,8(s8)
800010f0:	afc5000c 	sw	a1,12(s8)
800010f4:	8fc20008 	lw	v0,8(s8)
800010f8:	3042001f 	andi	v0,v0,0x1f
800010fc:	afc20008 	sw	v0,8(s8)
80001100:	3c028002 	lui	v0,0x8002
80001104:	8fc30008 	lw	v1,8(s8)
80001108:	00031880 	sll	v1,v1,0x2
8000110c:	2442ab0c 	addiu	v0,v0,-21748
80001110:	00621021 	addu	v0,v1,v0
80001114:	8fc3000c 	lw	v1,12(s8)
80001118:	ac430000 	sw	v1,0(v0)
8000111c:	03c0e825 	move	sp,s8
80001120:	8fbe0004 	lw	s8,4(sp)
80001124:	27bd0008 	addiu	sp,sp,8
80001128:	03e00008 	jr	ra
8000112c:	00000000 	nop

80001130 <init_exception>:
80001130:	27bdfff8 	addiu	sp,sp,-8
80001134:	afbe0004 	sw	s8,4(sp)
80001138:	03a0f025 	move	s8,sp
8000113c:	40806000 	mtc0	zero,c0_status
80001140:	3c080080 	lui	t0,0x80
80001144:	40886800 	mtc0	t0,c0_cause
80001148:	03c0e825 	move	sp,s8
8000114c:	8fbe0004 	lw	s8,4(sp)
80001150:	27bd0008 	addiu	sp,sp,8
80001154:	03e00008 	jr	ra
80001158:	00000000 	nop

8000115c <init_interrupts>:
8000115c:	27bdfff0 	addiu	sp,sp,-16
80001160:	afbe000c 	sw	s8,12(sp)
80001164:	03a0f025 	move	s8,sp
80001168:	40086000 	mfc0	t0,c0_status
8000116c:	35080001 	ori	t0,t0,0x1
80001170:	01001025 	move	v0,t0
80001174:	40886000 	mtc0	t0,c0_status
80001178:	afc20000 	sw	v0,0(s8)
8000117c:	03c0e825 	move	sp,s8
80001180:	8fbe000c 	lw	s8,12(sp)
80001184:	27bd0010 	addiu	sp,sp,16
80001188:	03e00008 	jr	ra
8000118c:	00000000 	nop

80001190 <enable_interrupts>:
80001190:	27bdfff0 	addiu	sp,sp,-16
80001194:	afbe000c 	sw	s8,12(sp)
80001198:	03a0f025 	move	s8,sp
8000119c:	afc00000 	sw	zero,0(s8)
800011a0:	40086000 	mfc0	t0,c0_status
800011a4:	31020001 	andi	v0,t0,0x1
800011a8:	35080001 	ori	t0,t0,0x1
800011ac:	40886000 	mtc0	t0,c0_status
800011b0:	afc20000 	sw	v0,0(s8)
800011b4:	8fc20000 	lw	v0,0(s8)
800011b8:	03c0e825 	move	sp,s8
800011bc:	8fbe000c 	lw	s8,12(sp)
800011c0:	27bd0010 	addiu	sp,sp,16
800011c4:	03e00008 	jr	ra
800011c8:	00000000 	nop

800011cc <disable_interrupts>:
800011cc:	27bdfff0 	addiu	sp,sp,-16
800011d0:	afbe000c 	sw	s8,12(sp)
800011d4:	03a0f025 	move	s8,sp
800011d8:	afc00000 	sw	zero,0(s8)
800011dc:	40086000 	mfc0	t0,c0_status
800011e0:	31020001 	andi	v0,t0,0x1
800011e4:	2409fffe 	li	t1,-2
800011e8:	01094024 	and	t0,t0,t1
800011ec:	40886000 	mtc0	t0,c0_status
800011f0:	afc20000 	sw	v0,0(s8)
800011f4:	8fc20000 	lw	v0,0(s8)
800011f8:	03c0e825 	move	sp,s8
800011fc:	8fbe000c 	lw	s8,12(sp)
80001200:	27bd0010 	addiu	sp,sp,16
80001204:	03e00008 	jr	ra
80001208:	00000000 	nop

8000120c <do_interrupts>:
8000120c:	27bdffe0 	addiu	sp,sp,-32
80001210:	afbf001c 	sw	ra,28(sp)
80001214:	afbe0018 	sw	s8,24(sp)
80001218:	03a0f025 	move	s8,sp
8000121c:	afc40020 	sw	a0,32(s8)
80001220:	afc50024 	sw	a1,36(s8)
80001224:	afc60028 	sw	a2,40(s8)
80001228:	8fc20024 	lw	v0,36(s8)
8000122c:	00021202 	srl	v0,v0,0x8
80001230:	afc20014 	sw	v0,20(s8)
80001234:	afc00010 	sw	zero,16(s8)
80001238:	1000001e 	b	800012b4 <do_interrupts+0xa8>
8000123c:	00000000 	nop
80001240:	8fc20014 	lw	v0,20(s8)
80001244:	30420001 	andi	v0,v0,0x1
80001248:	10400014 	beqz	v0,8000129c <do_interrupts+0x90>
8000124c:	00000000 	nop
80001250:	3c028002 	lui	v0,0x8002
80001254:	8fc30010 	lw	v1,16(s8)
80001258:	00031880 	sll	v1,v1,0x2
8000125c:	2442ab8c 	addiu	v0,v0,-21620
80001260:	00621021 	addu	v0,v1,v0
80001264:	8c420000 	lw	v0,0(v0)
80001268:	1040000c 	beqz	v0,8000129c <do_interrupts+0x90>
8000126c:	00000000 	nop
80001270:	3c028002 	lui	v0,0x8002
80001274:	8fc30010 	lw	v1,16(s8)
80001278:	00031880 	sll	v1,v1,0x2
8000127c:	2442ab8c 	addiu	v0,v0,-21620
80001280:	00621021 	addu	v0,v1,v0
80001284:	8c420000 	lw	v0,0(v0)
80001288:	8fc40020 	lw	a0,32(s8)
8000128c:	8fc50024 	lw	a1,36(s8)
80001290:	8fc60028 	lw	a2,40(s8)
80001294:	0040f809 	jalr	v0
80001298:	00000000 	nop
8000129c:	8fc20014 	lw	v0,20(s8)
800012a0:	00021043 	sra	v0,v0,0x1
800012a4:	afc20014 	sw	v0,20(s8)
800012a8:	8fc20010 	lw	v0,16(s8)
800012ac:	24420001 	addiu	v0,v0,1
800012b0:	afc20010 	sw	v0,16(s8)
800012b4:	8fc20010 	lw	v0,16(s8)
800012b8:	28420008 	slti	v0,v0,8
800012bc:	1440ffe0 	bnez	v0,80001240 <do_interrupts+0x34>
800012c0:	00000000 	nop
800012c4:	03c0e825 	move	sp,s8
800012c8:	8fbf001c 	lw	ra,28(sp)
800012cc:	8fbe0018 	lw	s8,24(sp)
800012d0:	27bd0020 	addiu	sp,sp,32
800012d4:	03e00008 	jr	ra
800012d8:	00000000 	nop

800012dc <register_interrupt_handler>:
800012dc:	27bdfff8 	addiu	sp,sp,-8
800012e0:	afbe0004 	sw	s8,4(sp)
800012e4:	03a0f025 	move	s8,sp
800012e8:	afc40008 	sw	a0,8(s8)
800012ec:	afc5000c 	sw	a1,12(s8)
800012f0:	8fc20008 	lw	v0,8(s8)
800012f4:	30420007 	andi	v0,v0,0x7
800012f8:	afc20008 	sw	v0,8(s8)
800012fc:	3c028002 	lui	v0,0x8002
80001300:	8fc30008 	lw	v1,8(s8)
80001304:	00031880 	sll	v1,v1,0x2
80001308:	2442ab8c 	addiu	v0,v0,-21620
8000130c:	00621021 	addu	v0,v1,v0
80001310:	8fc3000c 	lw	v1,12(s8)
80001314:	ac430000 	sw	v1,0(v0)
80001318:	8fc20008 	lw	v0,8(s8)
8000131c:	24420008 	addiu	v0,v0,8
80001320:	24030001 	li	v1,1
80001324:	00431004 	sllv	v0,v1,v0
80001328:	afc20008 	sw	v0,8(s8)
8000132c:	40086000 	mfc0	t0,c0_status
80001330:	01024025 	or	t0,t0,v0
80001334:	40886000 	mtc0	t0,c0_status
80001338:	afc20008 	sw	v0,8(s8)
8000133c:	03c0e825 	move	sp,s8
80001340:	8fbe0004 	lw	s8,4(sp)
80001344:	27bd0008 	addiu	sp,sp,8
80001348:	03e00008 	jr	ra
8000134c:	00000000 	nop

80001350 <init_pgtable>:
80001350:	27bdfff8 	addiu	sp,sp,-8
80001354:	afbe0004 	sw	s8,4(sp)
80001358:	03a0f025 	move	s8,sp
8000135c:	40801000 	mtc0	zero,c0_entrylo0
80001360:	40801800 	mtc0	zero,c0_entrylo1
80001364:	40802800 	mtc0	zero,c0_pagemask
80001368:	40805000 	mtc0	zero,c0_entryhi
8000136c:	00001025 	move	v0,zero
80001370:	24030020 	li	v1,32

80001374 <init_pgtable_L1>:
80001374:	40820000 	mtc0	v0,c0_index
80001378:	20420001 	addi	v0,v0,1
8000137c:	1443fffd 	bne	v0,v1,80001374 <init_pgtable_L1>
80001380:	00000000 	nop
80001384:	42000002 	tlbwi
80001388:	00000000 	nop
8000138c:	03c0e825 	move	sp,s8
80001390:	8fbe0004 	lw	s8,4(sp)
80001394:	27bd0008 	addiu	sp,sp,8
80001398:	03e00008 	jr	ra
8000139c:	00000000 	nop

800013a0 <init_buffer>:
800013a0:	27bdfff0 	addiu	sp,sp,-16
800013a4:	afbe000c 	sw	s8,12(sp)
800013a8:	03a0f025 	move	s8,sp
800013ac:	afc00000 	sw	zero,0(s8)
800013b0:	afc00000 	sw	zero,0(s8)
800013b4:	10000010 	b	800013f8 <init_buffer+0x58>
800013b8:	00000000 	nop
800013bc:	3c028002 	lui	v0,0x8002
800013c0:	8fc30000 	lw	v1,0(s8)
800013c4:	00031880 	sll	v1,v1,0x2
800013c8:	2442a9ec 	addiu	v0,v0,-22036
800013cc:	00621021 	addu	v0,v1,v0
800013d0:	ac400000 	sw	zero,0(v0)
800013d4:	3c028002 	lui	v0,0x8002
800013d8:	8fc30000 	lw	v1,0(s8)
800013dc:	00031880 	sll	v1,v1,0x2
800013e0:	2442aa6c 	addiu	v0,v0,-21908
800013e4:	00621021 	addu	v0,v1,v0
800013e8:	ac400000 	sw	zero,0(v0)
800013ec:	8fc20000 	lw	v0,0(s8)
800013f0:	24420001 	addiu	v0,v0,1
800013f4:	afc20000 	sw	v0,0(s8)
800013f8:	8fc20000 	lw	v0,0(s8)
800013fc:	28420020 	slti	v0,v0,32
80001400:	1440ffee 	bnez	v0,800013bc <init_buffer+0x1c>
80001404:	00000000 	nop
80001408:	af808084 	sw	zero,-32636(gp)
8000140c:	af808088 	sw	zero,-32632(gp)
80001410:	03c0e825 	move	sp,s8
80001414:	8fbe000c 	lw	s8,12(sp)
80001418:	27bd0010 	addiu	sp,sp,16
8000141c:	03e00008 	jr	ra
80001420:	00000000 	nop

80001424 <init_ps2>:
80001424:	27bdffe8 	addiu	sp,sp,-24
80001428:	afbf0014 	sw	ra,20(sp)
8000142c:	afbe0010 	sw	s8,16(sp)
80001430:	03a0f025 	move	s8,sp
80001434:	0c0004e8 	jal	800013a0 <init_buffer>
80001438:	00000000 	nop
8000143c:	24040002 	li	a0,2
80001440:	3c028000 	lui	v0,0x8000
80001444:	2445147c 	addiu	a1,v0,5244
80001448:	0c0004b7 	jal	800012dc <register_interrupt_handler>
8000144c:	00000000 	nop
80001450:	3c02bfc0 	lui	v0,0xbfc0
80001454:	34429010 	ori	v0,v0,0x9010
80001458:	24420004 	addiu	v0,v0,4
8000145c:	2403ffff 	li	v1,-1
80001460:	ac430000 	sw	v1,0(v0)
80001464:	03c0e825 	move	sp,s8
80001468:	8fbf0014 	lw	ra,20(sp)
8000146c:	8fbe0010 	lw	s8,16(sp)
80001470:	27bd0018 	addiu	sp,sp,24
80001474:	03e00008 	jr	ra
80001478:	00000000 	nop

8000147c <ps2_handler>:
8000147c:	27bdfff0 	addiu	sp,sp,-16
80001480:	afbe000c 	sw	s8,12(sp)
80001484:	03a0f025 	move	s8,sp
80001488:	afc40010 	sw	a0,16(s8)
8000148c:	afc50014 	sw	a1,20(s8)
80001490:	afc60018 	sw	a2,24(s8)
80001494:	3c02bfc0 	lui	v0,0xbfc0
80001498:	34429010 	ori	v0,v0,0x9010
8000149c:	8c420004 	lw	v0,4(v0)
800014a0:	afc20000 	sw	v0,0(s8)
800014a4:	8fc20000 	lw	v0,0(s8)
800014a8:	00021402 	srl	v0,v0,0x10
800014ac:	30420007 	andi	v0,v0,0x7
800014b0:	10400003 	beqz	v0,800014c0 <ps2_handler+0x44>
800014b4:	00000000 	nop
800014b8:	100000a9 	b	80001760 <ps2_handler+0x2e4>
800014bc:	00000000 	nop
800014c0:	100000a3 	b	80001750 <ps2_handler+0x2d4>
800014c4:	00000000 	nop
800014c8:	3c02bfc0 	lui	v0,0xbfc0
800014cc:	34429010 	ori	v0,v0,0x9010
800014d0:	8c420000 	lw	v0,0(v0)
800014d4:	afc20004 	sw	v0,4(s8)
800014d8:	8fc30004 	lw	v1,4(s8)
800014dc:	240200fa 	li	v0,250
800014e0:	1462000e 	bne	v1,v0,8000151c <ps2_handler+0xa0>
800014e4:	00000000 	nop
800014e8:	8f838090 	lw	v1,-32624(gp)
800014ec:	24020001 	li	v0,1
800014f0:	14620007 	bne	v1,v0,80001510 <ps2_handler+0x94>
800014f4:	00000000 	nop
800014f8:	3c02bfc0 	lui	v0,0xbfc0
800014fc:	34429010 	ori	v0,v0,0x9010
80001500:	8f838080 	lw	v1,-32640(gp)
80001504:	30630007 	andi	v1,v1,0x7
80001508:	ac430000 	sw	v1,0(v0)
8000150c:	00000000 	nop
80001510:	af808090 	sw	zero,-32624(gp)
80001514:	1000008e 	b	80001750 <ps2_handler+0x2d4>
80001518:	00000000 	nop
8000151c:	8f82808c 	lw	v0,-32628(gp)
80001520:	00021a00 	sll	v1,v0,0x8
80001524:	8fc20004 	lw	v0,4(s8)
80001528:	00621025 	or	v0,v1,v0
8000152c:	af82808c 	sw	v0,-32628(gp)
80001530:	8fc20004 	lw	v0,4(s8)
80001534:	2c420080 	sltiu	v0,v0,128
80001538:	10400081 	beqz	v0,80001740 <ps2_handler+0x2c4>
8000153c:	00000000 	nop
80001540:	8f82808c 	lw	v0,-32628(gp)
80001544:	3043007f 	andi	v1,v0,0x7f
80001548:	8f82808c 	lw	v0,-32628(gp)
8000154c:	14620013 	bne	v1,v0,8000159c <ps2_handler+0x120>
80001550:	00000000 	nop
80001554:	8f848084 	lw	a0,-32636(gp)
80001558:	8f83808c 	lw	v1,-32628(gp)
8000155c:	3c028002 	lui	v0,0x8002
80001560:	00042080 	sll	a0,a0,0x2
80001564:	2442a9ec 	addiu	v0,v0,-22036
80001568:	00821021 	addu	v0,a0,v0
8000156c:	ac430000 	sw	v1,0(v0)
80001570:	8f838084 	lw	v1,-32636(gp)
80001574:	3c028002 	lui	v0,0x8002
80001578:	00031880 	sll	v1,v1,0x2
8000157c:	2442aa6c 	addiu	v0,v0,-21908
80001580:	00621021 	addu	v0,v1,v0
80001584:	24030001 	li	v1,1
80001588:	ac430000 	sw	v1,0(v0)
8000158c:	8f828084 	lw	v0,-32636(gp)
80001590:	24420001 	addiu	v0,v0,1
80001594:	3042001f 	andi	v0,v0,0x1f
80001598:	af828084 	sw	v0,-32636(gp)
8000159c:	8f82808c 	lw	v0,-32628(gp)
800015a0:	3403e014 	li	v1,0xe014
800015a4:	10430050 	beq	v0,v1,800016e8 <ps2_handler+0x26c>
800015a8:	00000000 	nop
800015ac:	3403e015 	li	v1,0xe015
800015b0:	0043182b 	sltu	v1,v0,v1
800015b4:	1060001a 	beqz	v1,80001620 <ps2_handler+0x1a4>
800015b8:	00000000 	nop
800015bc:	24030014 	li	v1,20
800015c0:	10430049 	beq	v0,v1,800016e8 <ps2_handler+0x26c>
800015c4:	00000000 	nop
800015c8:	2c430015 	sltiu	v1,v0,21
800015cc:	10600009 	beqz	v1,800015f4 <ps2_handler+0x178>
800015d0:	00000000 	nop
800015d4:	24030011 	li	v1,17
800015d8:	1043004e 	beq	v0,v1,80001714 <ps2_handler+0x298>
800015dc:	00000000 	nop
800015e0:	24030012 	li	v1,18
800015e4:	10430035 	beq	v0,v1,800016bc <ps2_handler+0x240>
800015e8:	00000000 	nop
800015ec:	10000053 	b	8000173c <ps2_handler+0x2c0>
800015f0:	00000000 	nop
800015f4:	24030059 	li	v1,89
800015f8:	10430030 	beq	v0,v1,800016bc <ps2_handler+0x240>
800015fc:	00000000 	nop
80001600:	3403e011 	li	v1,0xe011
80001604:	10430043 	beq	v0,v1,80001714 <ps2_handler+0x298>
80001608:	00000000 	nop
8000160c:	24030058 	li	v1,88
80001610:	1043001f 	beq	v0,v1,80001690 <ps2_handler+0x214>
80001614:	00000000 	nop
80001618:	10000048 	b	8000173c <ps2_handler+0x2c0>
8000161c:	00000000 	nop
80001620:	3403f014 	li	v1,0xf014
80001624:	10430035 	beq	v0,v1,800016fc <ps2_handler+0x280>
80001628:	00000000 	nop
8000162c:	3403f015 	li	v1,0xf015
80001630:	0043182b 	sltu	v1,v0,v1
80001634:	10600009 	beqz	v1,8000165c <ps2_handler+0x1e0>
80001638:	00000000 	nop
8000163c:	3403f011 	li	v1,0xf011
80001640:	10430039 	beq	v0,v1,80001728 <ps2_handler+0x2ac>
80001644:	00000000 	nop
80001648:	3403f012 	li	v1,0xf012
8000164c:	10430020 	beq	v0,v1,800016d0 <ps2_handler+0x254>
80001650:	00000000 	nop
80001654:	10000039 	b	8000173c <ps2_handler+0x2c0>
80001658:	00000000 	nop
8000165c:	3c0300e0 	lui	v1,0xe0
80001660:	3463f011 	ori	v1,v1,0xf011
80001664:	10430030 	beq	v0,v1,80001728 <ps2_handler+0x2ac>
80001668:	00000000 	nop
8000166c:	3c0300e0 	lui	v1,0xe0
80001670:	3463f014 	ori	v1,v1,0xf014
80001674:	10430021 	beq	v0,v1,800016fc <ps2_handler+0x280>
80001678:	00000000 	nop
8000167c:	3403f059 	li	v1,0xf059
80001680:	10430013 	beq	v0,v1,800016d0 <ps2_handler+0x254>
80001684:	00000000 	nop
80001688:	1000002c 	b	8000173c <ps2_handler+0x2c0>
8000168c:	00000000 	nop
80001690:	8f828080 	lw	v0,-32640(gp)
80001694:	38420004 	xori	v0,v0,0x4
80001698:	af828080 	sw	v0,-32640(gp)
8000169c:	24020001 	li	v0,1
800016a0:	af828090 	sw	v0,-32624(gp)
800016a4:	3c02bfc0 	lui	v0,0xbfc0
800016a8:	34429010 	ori	v0,v0,0x9010
800016ac:	240300ed 	li	v1,237
800016b0:	ac430000 	sw	v1,0(v0)
800016b4:	10000021 	b	8000173c <ps2_handler+0x2c0>
800016b8:	00000000 	nop
800016bc:	8f828080 	lw	v0,-32640(gp)
800016c0:	34420008 	ori	v0,v0,0x8
800016c4:	af828080 	sw	v0,-32640(gp)
800016c8:	1000001c 	b	8000173c <ps2_handler+0x2c0>
800016cc:	00000000 	nop
800016d0:	8f838080 	lw	v1,-32640(gp)
800016d4:	2402fff7 	li	v0,-9
800016d8:	00621024 	and	v0,v1,v0
800016dc:	af828080 	sw	v0,-32640(gp)
800016e0:	10000016 	b	8000173c <ps2_handler+0x2c0>
800016e4:	00000000 	nop
800016e8:	8f828080 	lw	v0,-32640(gp)
800016ec:	34420010 	ori	v0,v0,0x10
800016f0:	af828080 	sw	v0,-32640(gp)
800016f4:	10000011 	b	8000173c <ps2_handler+0x2c0>
800016f8:	00000000 	nop
800016fc:	8f838080 	lw	v1,-32640(gp)
80001700:	2402ffef 	li	v0,-17
80001704:	00621024 	and	v0,v1,v0
80001708:	af828080 	sw	v0,-32640(gp)
8000170c:	1000000b 	b	8000173c <ps2_handler+0x2c0>
80001710:	00000000 	nop
80001714:	8f828080 	lw	v0,-32640(gp)
80001718:	34420020 	ori	v0,v0,0x20
8000171c:	af828080 	sw	v0,-32640(gp)
80001720:	10000006 	b	8000173c <ps2_handler+0x2c0>
80001724:	00000000 	nop
80001728:	8f838080 	lw	v1,-32640(gp)
8000172c:	2402ffdf 	li	v0,-33
80001730:	00621024 	and	v0,v1,v0
80001734:	af828080 	sw	v0,-32640(gp)
80001738:	00000000 	nop
8000173c:	af80808c 	sw	zero,-32628(gp)
80001740:	3c02bfc0 	lui	v0,0xbfc0
80001744:	34429010 	ori	v0,v0,0x9010
80001748:	8c420004 	lw	v0,4(v0)
8000174c:	afc20000 	sw	v0,0(s8)
80001750:	8fc20000 	lw	v0,0(s8)
80001754:	3042003f 	andi	v0,v0,0x3f
80001758:	1440ff5b 	bnez	v0,800014c8 <ps2_handler+0x4c>
8000175c:	00000000 	nop
80001760:	03c0e825 	move	sp,s8
80001764:	8fbe000c 	lw	s8,12(sp)
80001768:	27bd0010 	addiu	sp,sp,16
8000176c:	03e00008 	jr	ra
80001770:	00000000 	nop

80001774 <kernel_getkey>:
80001774:	27bdffe0 	addiu	sp,sp,-32
80001778:	afbf001c 	sw	ra,28(sp)
8000177c:	afbe0018 	sw	s8,24(sp)
80001780:	03a0f025 	move	s8,sp
80001784:	8f838088 	lw	v1,-32632(gp)
80001788:	3c028002 	lui	v0,0x8002
8000178c:	00031880 	sll	v1,v1,0x2
80001790:	2442aa6c 	addiu	v0,v0,-21908
80001794:	00621021 	addu	v0,v1,v0
80001798:	8c420000 	lw	v0,0(v0)
8000179c:	14400004 	bnez	v0,800017b0 <kernel_getkey+0x3c>
800017a0:	00000000 	nop
800017a4:	24020fff 	li	v0,4095
800017a8:	10000018 	b	8000180c <kernel_getkey+0x98>
800017ac:	00000000 	nop
800017b0:	8f838088 	lw	v1,-32632(gp)
800017b4:	3c028002 	lui	v0,0x8002
800017b8:	00031880 	sll	v1,v1,0x2
800017bc:	2442a9ec 	addiu	v0,v0,-22036
800017c0:	00621021 	addu	v0,v1,v0
800017c4:	8c420000 	lw	v0,0(v0)
800017c8:	afc20010 	sw	v0,16(s8)
800017cc:	8f838088 	lw	v1,-32632(gp)
800017d0:	3c028002 	lui	v0,0x8002
800017d4:	00031880 	sll	v1,v1,0x2
800017d8:	2442aa6c 	addiu	v0,v0,-21908
800017dc:	00621021 	addu	v0,v1,v0
800017e0:	ac400000 	sw	zero,0(v0)
800017e4:	8f828088 	lw	v0,-32632(gp)
800017e8:	24420001 	addiu	v0,v0,1
800017ec:	af828088 	sw	v0,-32632(gp)
800017f0:	8f838088 	lw	v1,-32632(gp)
800017f4:	24020020 	li	v0,32
800017f8:	14620003 	bne	v1,v0,80001808 <kernel_getkey+0x94>
800017fc:	00000000 	nop
80001800:	0c0004e8 	jal	800013a0 <init_buffer>
80001804:	00000000 	nop
80001808:	8fc20010 	lw	v0,16(s8)
8000180c:	03c0e825 	move	sp,s8
80001810:	8fbf001c 	lw	ra,28(sp)
80001814:	8fbe0018 	lw	s8,24(sp)
80001818:	27bd0020 	addiu	sp,sp,32
8000181c:	03e00008 	jr	ra
80001820:	00000000 	nop

80001824 <kernel_scantoascii>:
80001824:	27bdfff8 	addiu	sp,sp,-8
80001828:	afbe0004 	sw	s8,4(sp)
8000182c:	03a0f025 	move	s8,sp
80001830:	afc40008 	sw	a0,8(s8)
80001834:	8fc20008 	lw	v0,8(s8)
80001838:	3043007f 	andi	v1,v0,0x7f
8000183c:	8fc20008 	lw	v0,8(s8)
80001840:	10620004 	beq	v1,v0,80001854 <kernel_scantoascii+0x30>
80001844:	00000000 	nop
80001848:	2402ffff 	li	v0,-1
8000184c:	10000019 	b	800018b4 <kernel_scantoascii+0x90>
80001850:	00000000 	nop
80001854:	8f828080 	lw	v0,-32640(gp)
80001858:	30420004 	andi	v0,v0,0x4
8000185c:	2c420001 	sltiu	v0,v0,1
80001860:	304300ff 	andi	v1,v0,0xff
80001864:	8f828080 	lw	v0,-32640(gp)
80001868:	30420008 	andi	v0,v0,0x8
8000186c:	2c420001 	sltiu	v0,v0,1
80001870:	304200ff 	andi	v0,v0,0xff
80001874:	00621026 	xor	v0,v1,v0
80001878:	304200ff 	andi	v0,v0,0xff
8000187c:	10400008 	beqz	v0,800018a0 <kernel_scantoascii+0x7c>
80001880:	00000000 	nop
80001884:	3c028002 	lui	v0,0x8002
80001888:	2443a638 	addiu	v1,v0,-22984
8000188c:	8fc20008 	lw	v0,8(s8)
80001890:	00621021 	addu	v0,v1,v0
80001894:	80420000 	lb	v0,0(v0)
80001898:	10000006 	b	800018b4 <kernel_scantoascii+0x90>
8000189c:	00000000 	nop
800018a0:	3c028002 	lui	v0,0x8002
800018a4:	2443a6b8 	addiu	v1,v0,-22856
800018a8:	8fc20008 	lw	v0,8(s8)
800018ac:	00621021 	addu	v0,v1,v0
800018b0:	80420000 	lb	v0,0(v0)
800018b4:	03c0e825 	move	sp,s8
800018b8:	8fbe0004 	lw	s8,4(sp)
800018bc:	27bd0008 	addiu	sp,sp,8
800018c0:	03e00008 	jr	ra
800018c4:	00000000 	nop

800018c8 <sleep>:
800018c8:	27bdfff8 	addiu	sp,sp,-8
800018cc:	afbe0004 	sw	s8,4(sp)
800018d0:	03a0f025 	move	s8,sp
800018d4:	afc40008 	sw	a0,8(s8)
800018d8:	00000000 	nop
800018dc:	8fc20008 	lw	v0,8(s8)
800018e0:	2443ffff 	addiu	v1,v0,-1
800018e4:	afc30008 	sw	v1,8(s8)
800018e8:	1440fffc 	bnez	v0,800018dc <sleep+0x14>
800018ec:	00000000 	nop
800018f0:	03c0e825 	move	sp,s8
800018f4:	8fbe0004 	lw	s8,4(sp)
800018f8:	27bd0008 	addiu	sp,sp,8
800018fc:	03e00008 	jr	ra
80001900:	00000000 	nop

80001904 <kernel_getchar>:
80001904:	27bdffe0 	addiu	sp,sp,-32
80001908:	afbf001c 	sw	ra,28(sp)
8000190c:	afbe0018 	sw	s8,24(sp)
80001910:	03a0f025 	move	s8,sp
80001914:	0c0005dd 	jal	80001774 <kernel_getkey>
80001918:	00000000 	nop
8000191c:	00402025 	move	a0,v0
80001920:	0c000609 	jal	80001824 <kernel_scantoascii>
80001924:	00000000 	nop
80001928:	afc20010 	sw	v0,16(s8)
8000192c:	240403e8 	li	a0,1000
80001930:	0c000632 	jal	800018c8 <sleep>
80001934:	00000000 	nop
80001938:	8fc30010 	lw	v1,16(s8)
8000193c:	2402ffff 	li	v0,-1
80001940:	1062fff4 	beq	v1,v0,80001914 <kernel_getchar+0x10>
80001944:	00000000 	nop
80001948:	8fc20010 	lw	v0,16(s8)
8000194c:	03c0e825 	move	sp,s8
80001950:	8fbf001c 	lw	ra,28(sp)
80001954:	8fbe0018 	lw	s8,24(sp)
80001958:	27bd0020 	addiu	sp,sp,32
8000195c:	03e00008 	jr	ra
80001960:	00000000 	nop

80001964 <sd_send_cmd_blocking>:
80001964:	27bdfff0 	addiu	sp,sp,-16
80001968:	afbe000c 	sw	s8,12(sp)
8000196c:	03a0f025 	move	s8,sp
80001970:	afc40010 	sw	a0,16(s8)
80001974:	afc50014 	sw	a1,20(s8)
80001978:	3c02bfc0 	lui	v0,0xbfc0
8000197c:	34429100 	ori	v0,v0,0x9100
80001980:	24420004 	addiu	v0,v0,4
80001984:	8fc30010 	lw	v1,16(s8)
80001988:	ac430000 	sw	v1,0(v0)
8000198c:	3c02bfc0 	lui	v0,0xbfc0
80001990:	34429100 	ori	v0,v0,0x9100
80001994:	8fc30014 	lw	v1,20(s8)
80001998:	ac430000 	sw	v1,0(v0)
8000199c:	24021000 	li	v0,4096
800019a0:	afc20000 	sw	v0,0(s8)
800019a4:	00000000 	nop
800019a8:	8fc20000 	lw	v0,0(s8)
800019ac:	2443ffff 	addiu	v1,v0,-1
800019b0:	afc30000 	sw	v1,0(s8)
800019b4:	1440fffc 	bnez	v0,800019a8 <sd_send_cmd_blocking+0x44>
800019b8:	00000000 	nop
800019bc:	afc00004 	sw	zero,4(s8)
800019c0:	3c02bfc0 	lui	v0,0xbfc0
800019c4:	34429100 	ori	v0,v0,0x9100
800019c8:	24420034 	addiu	v0,v0,52
800019cc:	8c420000 	lw	v0,0(v0)
800019d0:	afc20004 	sw	v0,4(s8)
800019d4:	8fc20004 	lw	v0,4(s8)
800019d8:	1040fff9 	beqz	v0,800019c0 <sd_send_cmd_blocking+0x5c>
800019dc:	00000000 	nop
800019e0:	8fc20004 	lw	v0,4(s8)
800019e4:	30420001 	andi	v0,v0,0x1
800019e8:	10400004 	beqz	v0,800019fc <sd_send_cmd_blocking+0x98>
800019ec:	00000000 	nop
800019f0:	00001025 	move	v0,zero
800019f4:	10000002 	b	80001a00 <sd_send_cmd_blocking+0x9c>
800019f8:	00000000 	nop
800019fc:	8fc20004 	lw	v0,4(s8)
80001a00:	03c0e825 	move	sp,s8
80001a04:	8fbe000c 	lw	s8,12(sp)
80001a08:	27bd0010 	addiu	sp,sp,16
80001a0c:	03e00008 	jr	ra
80001a10:	00000000 	nop

80001a14 <sd_read_sector_blocking>:
80001a14:	27bdffd8 	addiu	sp,sp,-40
80001a18:	afbf0024 	sw	ra,36(sp)
80001a1c:	afbe0020 	sw	s8,32(sp)
80001a20:	03a0f025 	move	s8,sp
80001a24:	afc40028 	sw	a0,40(s8)
80001a28:	afc5002c 	sw	a1,44(s8)
80001a2c:	0c000473 	jal	800011cc <disable_interrupts>
80001a30:	00000000 	nop
80001a34:	afc00010 	sw	zero,16(s8)
80001a38:	3c02bfc0 	lui	v0,0xbfc0
80001a3c:	34429100 	ori	v0,v0,0x9100
80001a40:	24420060 	addiu	v0,v0,96
80001a44:	ac400000 	sw	zero,0(v0)
80001a48:	3c02bfc0 	lui	v0,0xbfc0
80001a4c:	34429100 	ori	v0,v0,0x9100
80001a50:	2442003c 	addiu	v0,v0,60
80001a54:	ac400000 	sw	zero,0(v0)
80001a58:	24041139 	li	a0,4409
80001a5c:	8fc50028 	lw	a1,40(s8)
80001a60:	0c000659 	jal	80001964 <sd_send_cmd_blocking>
80001a64:	00000000 	nop
80001a68:	afc20010 	sw	v0,16(s8)
80001a6c:	8fc20010 	lw	v0,16(s8)
80001a70:	10400003 	beqz	v0,80001a80 <sd_read_sector_blocking+0x6c>
80001a74:	00000000 	nop
80001a78:	1000002a 	b	80001b24 <sd_read_sector_blocking+0x110>
80001a7c:	00000000 	nop
80001a80:	afc00018 	sw	zero,24(s8)
80001a84:	3c02bfc0 	lui	v0,0xbfc0
80001a88:	34429100 	ori	v0,v0,0x9100
80001a8c:	2442003c 	addiu	v0,v0,60
80001a90:	8c420000 	lw	v0,0(v0)
80001a94:	afc20018 	sw	v0,24(s8)
80001a98:	8fc20018 	lw	v0,24(s8)
80001a9c:	1040fff9 	beqz	v0,80001a84 <sd_read_sector_blocking+0x70>
80001aa0:	00000000 	nop
80001aa4:	8fc20018 	lw	v0,24(s8)
80001aa8:	30420001 	andi	v0,v0,0x1
80001aac:	1040001b 	beqz	v0,80001b1c <sd_read_sector_blocking+0x108>
80001ab0:	00000000 	nop
80001ab4:	8fc2002c 	lw	v0,44(s8)
80001ab8:	afc2001c 	sw	v0,28(s8)
80001abc:	afc00014 	sw	zero,20(s8)
80001ac0:	1000000f 	b	80001b00 <sd_read_sector_blocking+0xec>
80001ac4:	00000000 	nop
80001ac8:	8fc20014 	lw	v0,20(s8)
80001acc:	00021080 	sll	v0,v0,0x2
80001ad0:	8fc3001c 	lw	v1,28(s8)
80001ad4:	00621021 	addu	v0,v1,v0
80001ad8:	3c03bfc0 	lui	v1,0xbfc0
80001adc:	34648000 	ori	a0,v1,0x8000
80001ae0:	8fc30014 	lw	v1,20(s8)
80001ae4:	00031880 	sll	v1,v1,0x2
80001ae8:	00831821 	addu	v1,a0,v1
80001aec:	8c630000 	lw	v1,0(v1)
80001af0:	ac430000 	sw	v1,0(v0)
80001af4:	8fc20014 	lw	v0,20(s8)
80001af8:	24420001 	addiu	v0,v0,1
80001afc:	afc20014 	sw	v0,20(s8)
80001b00:	8fc20014 	lw	v0,20(s8)
80001b04:	28420080 	slti	v0,v0,128
80001b08:	1440ffef 	bnez	v0,80001ac8 <sd_read_sector_blocking+0xb4>
80001b0c:	00000000 	nop
80001b10:	afc00010 	sw	zero,16(s8)
80001b14:	10000003 	b	80001b24 <sd_read_sector_blocking+0x110>
80001b18:	00000000 	nop
80001b1c:	8fc20018 	lw	v0,24(s8)
80001b20:	afc20010 	sw	v0,16(s8)
80001b24:	0c000464 	jal	80001190 <enable_interrupts>
80001b28:	00000000 	nop
80001b2c:	8fc20010 	lw	v0,16(s8)
80001b30:	03c0e825 	move	sp,s8
80001b34:	8fbf0024 	lw	ra,36(sp)
80001b38:	8fbe0020 	lw	s8,32(sp)
80001b3c:	27bd0028 	addiu	sp,sp,40
80001b40:	03e00008 	jr	ra
80001b44:	00000000 	nop

80001b48 <sd_write_sector_blocking>:
80001b48:	27bdffd8 	addiu	sp,sp,-40
80001b4c:	afbf0024 	sw	ra,36(sp)
80001b50:	afbe0020 	sw	s8,32(sp)
80001b54:	03a0f025 	move	s8,sp
80001b58:	afc40028 	sw	a0,40(s8)
80001b5c:	afc5002c 	sw	a1,44(s8)
80001b60:	0c000473 	jal	800011cc <disable_interrupts>
80001b64:	00000000 	nop
80001b68:	afc00010 	sw	zero,16(s8)
80001b6c:	3c02bfc0 	lui	v0,0xbfc0
80001b70:	34429100 	ori	v0,v0,0x9100
80001b74:	24420060 	addiu	v0,v0,96
80001b78:	ac400000 	sw	zero,0(v0)
80001b7c:	3c02bfc0 	lui	v0,0xbfc0
80001b80:	34429100 	ori	v0,v0,0x9100
80001b84:	2442003c 	addiu	v0,v0,60
80001b88:	ac400000 	sw	zero,0(v0)
	...
80001b94:	8fc2002c 	lw	v0,44(s8)
80001b98:	afc20018 	sw	v0,24(s8)
80001b9c:	afc00014 	sw	zero,20(s8)
80001ba0:	1000000f 	b	80001be0 <sd_write_sector_blocking+0x98>
80001ba4:	00000000 	nop
80001ba8:	3c02bfc0 	lui	v0,0xbfc0
80001bac:	34438000 	ori	v1,v0,0x8000
80001bb0:	8fc20014 	lw	v0,20(s8)
80001bb4:	00021080 	sll	v0,v0,0x2
80001bb8:	00621021 	addu	v0,v1,v0
80001bbc:	8fc30014 	lw	v1,20(s8)
80001bc0:	00031880 	sll	v1,v1,0x2
80001bc4:	8fc40018 	lw	a0,24(s8)
80001bc8:	00831821 	addu	v1,a0,v1
80001bcc:	8c630000 	lw	v1,0(v1)
80001bd0:	ac430000 	sw	v1,0(v0)
80001bd4:	8fc20014 	lw	v0,20(s8)
80001bd8:	24420001 	addiu	v0,v0,1
80001bdc:	afc20014 	sw	v0,20(s8)
80001be0:	8fc20014 	lw	v0,20(s8)
80001be4:	28420080 	slti	v0,v0,128
80001be8:	1440ffef 	bnez	v0,80001ba8 <sd_write_sector_blocking+0x60>
80001bec:	00000000 	nop
80001bf0:	24041859 	li	a0,6233
80001bf4:	8fc50028 	lw	a1,40(s8)
80001bf8:	0c000659 	jal	80001964 <sd_send_cmd_blocking>
80001bfc:	00000000 	nop
80001c00:	afc20010 	sw	v0,16(s8)
80001c04:	8fc20010 	lw	v0,16(s8)
80001c08:	10400003 	beqz	v0,80001c18 <sd_write_sector_blocking+0xd0>
80001c0c:	00000000 	nop
80001c10:	10000013 	b	80001c60 <sd_write_sector_blocking+0x118>
80001c14:	00000000 	nop
80001c18:	afc0001c 	sw	zero,28(s8)
80001c1c:	3c02bfc0 	lui	v0,0xbfc0
80001c20:	34429100 	ori	v0,v0,0x9100
80001c24:	2442003c 	addiu	v0,v0,60
80001c28:	8c420000 	lw	v0,0(v0)
80001c2c:	afc2001c 	sw	v0,28(s8)
80001c30:	8fc2001c 	lw	v0,28(s8)
80001c34:	1040fff9 	beqz	v0,80001c1c <sd_write_sector_blocking+0xd4>
80001c38:	00000000 	nop
80001c3c:	8fc2001c 	lw	v0,28(s8)
80001c40:	30420001 	andi	v0,v0,0x1
80001c44:	10400004 	beqz	v0,80001c58 <sd_write_sector_blocking+0x110>
80001c48:	00000000 	nop
80001c4c:	afc00010 	sw	zero,16(s8)
80001c50:	10000003 	b	80001c60 <sd_write_sector_blocking+0x118>
80001c54:	00000000 	nop
80001c58:	8fc2001c 	lw	v0,28(s8)
80001c5c:	afc20010 	sw	v0,16(s8)
80001c60:	0c000464 	jal	80001190 <enable_interrupts>
80001c64:	00000000 	nop
80001c68:	8fc20010 	lw	v0,16(s8)
80001c6c:	03c0e825 	move	sp,s8
80001c70:	8fbf0024 	lw	ra,36(sp)
80001c74:	8fbe0020 	lw	s8,32(sp)
80001c78:	27bd0028 	addiu	sp,sp,40
80001c7c:	03e00008 	jr	ra
80001c80:	00000000 	nop

80001c84 <sd_read_block>:
80001c84:	27bdffe0 	addiu	sp,sp,-32
80001c88:	afbf001c 	sw	ra,28(sp)
80001c8c:	afbe0018 	sw	s8,24(sp)
80001c90:	03a0f025 	move	s8,sp
80001c94:	afc40020 	sw	a0,32(s8)
80001c98:	afc50024 	sw	a1,36(s8)
80001c9c:	afc60028 	sw	a2,40(s8)
80001ca0:	afc00010 	sw	zero,16(s8)
80001ca4:	10000018 	b	80001d08 <sd_read_block+0x84>
80001ca8:	00000000 	nop
80001cac:	8fc30010 	lw	v1,16(s8)
80001cb0:	8fc20024 	lw	v0,36(s8)
80001cb4:	00621021 	addu	v0,v1,v0
80001cb8:	00402025 	move	a0,v0
80001cbc:	8fc20010 	lw	v0,16(s8)
80001cc0:	00021240 	sll	v0,v0,0x9
80001cc4:	00401825 	move	v1,v0
80001cc8:	8fc20020 	lw	v0,32(s8)
80001ccc:	00431021 	addu	v0,v0,v1
80001cd0:	00402825 	move	a1,v0
80001cd4:	0c000685 	jal	80001a14 <sd_read_sector_blocking>
80001cd8:	00000000 	nop
80001cdc:	afc20014 	sw	v0,20(s8)
80001ce0:	8fc20014 	lw	v0,20(s8)
80001ce4:	10400005 	beqz	v0,80001cfc <sd_read_block+0x78>
80001ce8:	00000000 	nop
80001cec:	00000000 	nop
80001cf0:	24020001 	li	v0,1
80001cf4:	1000000a 	b	80001d20 <sd_read_block+0x9c>
80001cf8:	00000000 	nop
80001cfc:	8fc20010 	lw	v0,16(s8)
80001d00:	24420001 	addiu	v0,v0,1
80001d04:	afc20010 	sw	v0,16(s8)
80001d08:	8fc30010 	lw	v1,16(s8)
80001d0c:	8fc20028 	lw	v0,40(s8)
80001d10:	0062102b 	sltu	v0,v1,v0
80001d14:	1440ffe5 	bnez	v0,80001cac <sd_read_block+0x28>
80001d18:	00000000 	nop
80001d1c:	00001025 	move	v0,zero
80001d20:	03c0e825 	move	sp,s8
80001d24:	8fbf001c 	lw	ra,28(sp)
80001d28:	8fbe0018 	lw	s8,24(sp)
80001d2c:	27bd0020 	addiu	sp,sp,32
80001d30:	03e00008 	jr	ra
80001d34:	00000000 	nop

80001d38 <sd_write_block>:
80001d38:	27bdffe0 	addiu	sp,sp,-32
80001d3c:	afbf001c 	sw	ra,28(sp)
80001d40:	afbe0018 	sw	s8,24(sp)
80001d44:	03a0f025 	move	s8,sp
80001d48:	afc40020 	sw	a0,32(s8)
80001d4c:	afc50024 	sw	a1,36(s8)
80001d50:	afc60028 	sw	a2,40(s8)
80001d54:	afc00010 	sw	zero,16(s8)
80001d58:	10000018 	b	80001dbc <sd_write_block+0x84>
80001d5c:	00000000 	nop
80001d60:	8fc30010 	lw	v1,16(s8)
80001d64:	8fc20024 	lw	v0,36(s8)
80001d68:	00621021 	addu	v0,v1,v0
80001d6c:	00402025 	move	a0,v0
80001d70:	8fc20010 	lw	v0,16(s8)
80001d74:	00021240 	sll	v0,v0,0x9
80001d78:	00401825 	move	v1,v0
80001d7c:	8fc20020 	lw	v0,32(s8)
80001d80:	00431021 	addu	v0,v0,v1
80001d84:	00402825 	move	a1,v0
80001d88:	0c0006d2 	jal	80001b48 <sd_write_sector_blocking>
80001d8c:	00000000 	nop
80001d90:	afc20014 	sw	v0,20(s8)
80001d94:	8fc20014 	lw	v0,20(s8)
80001d98:	10400005 	beqz	v0,80001db0 <sd_write_block+0x78>
80001d9c:	00000000 	nop
80001da0:	00000000 	nop
80001da4:	24020001 	li	v0,1
80001da8:	1000000a 	b	80001dd4 <sd_write_block+0x9c>
80001dac:	00000000 	nop
80001db0:	8fc20010 	lw	v0,16(s8)
80001db4:	24420001 	addiu	v0,v0,1
80001db8:	afc20010 	sw	v0,16(s8)
80001dbc:	8fc30010 	lw	v1,16(s8)
80001dc0:	8fc20028 	lw	v0,40(s8)
80001dc4:	0062102b 	sltu	v0,v1,v0
80001dc8:	1440ffe5 	bnez	v0,80001d60 <sd_write_block+0x28>
80001dcc:	00000000 	nop
80001dd0:	00001025 	move	v0,zero
80001dd4:	03c0e825 	move	sp,s8
80001dd8:	8fbf001c 	lw	ra,28(sp)
80001ddc:	8fbe0018 	lw	s8,24(sp)
80001de0:	27bd0020 	addiu	sp,sp,32
80001de4:	03e00008 	jr	ra
80001de8:	00000000 	nop

80001dec <kernel_set_cursor>:
80001dec:	27bdfff8 	addiu	sp,sp,-8
80001df0:	afbe0004 	sw	s8,4(sp)
80001df4:	03a0f025 	move	s8,sp
80001df8:	8f82802c 	lw	v0,-32724(gp)
80001dfc:	8f838054 	lw	v1,-32684(gp)
80001e00:	306300ff 	andi	v1,v1,0xff
80001e04:	00032400 	sll	a0,v1,0x10
80001e08:	8f8380b0 	lw	v1,-32592(gp)
80001e0c:	00031a00 	sll	v1,v1,0x8
80001e10:	3063ffff 	andi	v1,v1,0xffff
80001e14:	00832021 	addu	a0,a0,v1
80001e18:	8f8380ac 	lw	v1,-32596(gp)
80001e1c:	306300ff 	andi	v1,v1,0xff
80001e20:	00831821 	addu	v1,a0,v1
80001e24:	ac430000 	sw	v1,0(v0)
80001e28:	03c0e825 	move	sp,s8
80001e2c:	8fbe0004 	lw	s8,4(sp)
80001e30:	27bd0008 	addiu	sp,sp,8
80001e34:	03e00008 	jr	ra
80001e38:	00000000 	nop

80001e3c <init_vga>:
80001e3c:	27bdffe0 	addiu	sp,sp,-32
80001e40:	afbf001c 	sw	ra,28(sp)
80001e44:	afbe0018 	sw	s8,24(sp)
80001e48:	03a0f025 	move	s8,sp
80001e4c:	3c02000f 	lui	v0,0xf
80001e50:	3442ff00 	ori	v0,v0,0xff00
80001e54:	afc20010 	sw	v0,16(s8)
80001e58:	af8080ac 	sw	zero,-32596(gp)
80001e5c:	8f8280ac 	lw	v0,-32596(gp)
80001e60:	af8280b0 	sw	v0,-32592(gp)
80001e64:	2402001f 	li	v0,31
80001e68:	af828054 	sw	v0,-32684(gp)
80001e6c:	0c00077b 	jal	80001dec <kernel_set_cursor>
80001e70:	00000000 	nop
80001e74:	03c0e825 	move	sp,s8
80001e78:	8fbf001c 	lw	ra,28(sp)
80001e7c:	8fbe0018 	lw	s8,24(sp)
80001e80:	27bd0020 	addiu	sp,sp,32
80001e84:	03e00008 	jr	ra
80001e88:	00000000 	nop

80001e8c <kernel_clear_screen>:
80001e8c:	27bdffe0 	addiu	sp,sp,-32
80001e90:	afbf001c 	sw	ra,28(sp)
80001e94:	afbe0018 	sw	s8,24(sp)
80001e98:	03a0f025 	move	s8,sp
80001e9c:	afc40020 	sw	a0,32(s8)
80001ea0:	3c02000f 	lui	v0,0xf
80001ea4:	3442ff00 	ori	v0,v0,0xff00
80001ea8:	afc20010 	sw	v0,16(s8)
80001eac:	8fc20020 	lw	v0,32(s8)
80001eb0:	3042001f 	andi	v0,v0,0x1f
80001eb4:	afc20020 	sw	v0,32(s8)
80001eb8:	af8080ac 	sw	zero,-32596(gp)
80001ebc:	af8080b0 	sw	zero,-32592(gp)
80001ec0:	0c00077b 	jal	80001dec <kernel_set_cursor>
80001ec4:	00000000 	nop
80001ec8:	8f848004 	lw	a0,-32764(gp)
80001ecc:	24030080 	li	v1,128
80001ed0:	8fc20020 	lw	v0,32(s8)
80001ed4:	70621002 	mul	v0,v1,v0
80001ed8:	8fc50010 	lw	a1,16(s8)
80001edc:	00403025 	move	a2,v0
80001ee0:	0c005d9f 	jal	8001767c <kernel_memset_word>
80001ee4:	00000000 	nop
80001ee8:	03c0e825 	move	sp,s8
80001eec:	8fbf001c 	lw	ra,28(sp)
80001ef0:	8fbe0018 	lw	s8,24(sp)
80001ef4:	27bd0020 	addiu	sp,sp,32
80001ef8:	03e00008 	jr	ra
80001efc:	00000000 	nop

80001f00 <kernel_scroll_screen>:
80001f00:	27bdffe0 	addiu	sp,sp,-32
80001f04:	afbf001c 	sw	ra,28(sp)
80001f08:	afbe0018 	sw	s8,24(sp)
80001f0c:	03a0f025 	move	s8,sp
80001f10:	3c02000f 	lui	v0,0xf
80001f14:	3442ff00 	ori	v0,v0,0xff00
80001f18:	afc20010 	sw	v0,16(s8)
80001f1c:	8f848004 	lw	a0,-32764(gp)
80001f20:	8f838004 	lw	v1,-32764(gp)
80001f24:	24020080 	li	v0,128
80001f28:	00021080 	sll	v0,v0,0x2
80001f2c:	00622821 	addu	a1,v1,v0
80001f30:	2402001e 	li	v0,30
80001f34:	2443fffe 	addiu	v1,v0,-2
80001f38:	24020080 	li	v0,128
80001f3c:	00620018 	mult	v1,v0
80001f40:	00001012 	mflo	v0
80001f44:	00021080 	sll	v0,v0,0x2
80001f48:	00403025 	move	a2,v0
80001f4c:	0c005d71 	jal	800175c4 <kernel_memcpy>
80001f50:	00000000 	nop
80001f54:	8f838004 	lw	v1,-32764(gp)
80001f58:	2402001e 	li	v0,30
80001f5c:	2444fffe 	addiu	a0,v0,-2
80001f60:	24020080 	li	v0,128
80001f64:	70821002 	mul	v0,a0,v0
80001f68:	00021080 	sll	v0,v0,0x2
80001f6c:	00621821 	addu	v1,v1,v0
80001f70:	24020080 	li	v0,128
80001f74:	00602025 	move	a0,v1
80001f78:	8fc50010 	lw	a1,16(s8)
80001f7c:	00403025 	move	a2,v0
80001f80:	0c005d9f 	jal	8001767c <kernel_memset_word>
80001f84:	00000000 	nop
80001f88:	03c0e825 	move	sp,s8
80001f8c:	8fbf001c 	lw	ra,28(sp)
80001f90:	8fbe0018 	lw	s8,24(sp)
80001f94:	27bd0020 	addiu	sp,sp,32
80001f98:	03e00008 	jr	ra
80001f9c:	00000000 	nop

80001fa0 <kernel_putchar_at>:
80001fa0:	27bdfff0 	addiu	sp,sp,-16
80001fa4:	afbe000c 	sw	s8,12(sp)
80001fa8:	03a0f025 	move	s8,sp
80001fac:	afc40010 	sw	a0,16(s8)
80001fb0:	afc50014 	sw	a1,20(s8)
80001fb4:	afc60018 	sw	a2,24(s8)
80001fb8:	afc7001c 	sw	a3,28(s8)
80001fbc:	8fc2001c 	lw	v0,28(s8)
80001fc0:	3042001f 	andi	v0,v0,0x1f
80001fc4:	afc2001c 	sw	v0,28(s8)
80001fc8:	8fc20020 	lw	v0,32(s8)
80001fcc:	3042007f 	andi	v0,v0,0x7f
80001fd0:	afc20020 	sw	v0,32(s8)
80001fd4:	8f838004 	lw	v1,-32764(gp)
80001fd8:	24040080 	li	a0,128
80001fdc:	8fc2001c 	lw	v0,28(s8)
80001fe0:	70821002 	mul	v0,a0,v0
80001fe4:	00402025 	move	a0,v0
80001fe8:	8fc20020 	lw	v0,32(s8)
80001fec:	00821021 	addu	v0,a0,v0
80001ff0:	00021080 	sll	v0,v0,0x2
80001ff4:	00621021 	addu	v0,v1,v0
80001ff8:	afc20000 	sw	v0,0(s8)
80001ffc:	8fc20018 	lw	v0,24(s8)
80002000:	00021d00 	sll	v1,v0,0x14
80002004:	8fc20014 	lw	v0,20(s8)
80002008:	30420fff 	andi	v0,v0,0xfff
8000200c:	00021200 	sll	v0,v0,0x8
80002010:	00621821 	addu	v1,v1,v0
80002014:	8fc20010 	lw	v0,16(s8)
80002018:	304200ff 	andi	v0,v0,0xff
8000201c:	00621021 	addu	v0,v1,v0
80002020:	00401825 	move	v1,v0
80002024:	8fc20000 	lw	v0,0(s8)
80002028:	ac430000 	sw	v1,0(v0)
8000202c:	03c0e825 	move	sp,s8
80002030:	8fbe000c 	lw	s8,12(sp)
80002034:	27bd0010 	addiu	sp,sp,16
80002038:	03e00008 	jr	ra
8000203c:	00000000 	nop

80002040 <kernel_putchar>:
80002040:	27bdffd8 	addiu	sp,sp,-40
80002044:	afbf0024 	sw	ra,36(sp)
80002048:	afbe0020 	sw	s8,32(sp)
8000204c:	03a0f025 	move	s8,sp
80002050:	afc40028 	sw	a0,40(s8)
80002054:	afc5002c 	sw	a1,44(s8)
80002058:	afc60030 	sw	a2,48(s8)
8000205c:	3c02000f 	lui	v0,0xf
80002060:	3442ff00 	ori	v0,v0,0xff00
80002064:	afc20018 	sw	v0,24(s8)
80002068:	8fc30028 	lw	v1,40(s8)
8000206c:	2402000d 	li	v0,13
80002070:	14620004 	bne	v1,v0,80002084 <kernel_putchar+0x44>
80002074:	00000000 	nop
80002078:	8fc20028 	lw	v0,40(s8)
8000207c:	10000065 	b	80002214 <kernel_putchar+0x1d4>
80002080:	00000000 	nop
80002084:	8fc30028 	lw	v1,40(s8)
80002088:	2402000a 	li	v0,10
8000208c:	14620020 	bne	v1,v0,80002110 <kernel_putchar+0xd0>
80002090:	00000000 	nop
80002094:	8f838004 	lw	v1,-32764(gp)
80002098:	8f8480b0 	lw	a0,-32592(gp)
8000209c:	24020080 	li	v0,128
800020a0:	70821002 	mul	v0,a0,v0
800020a4:	00402025 	move	a0,v0
800020a8:	8f8280ac 	lw	v0,-32596(gp)
800020ac:	00821021 	addu	v0,a0,v0
800020b0:	00021080 	sll	v0,v0,0x2
800020b4:	00622021 	addu	a0,v1,v0
800020b8:	24030050 	li	v1,80
800020bc:	8f8280ac 	lw	v0,-32596(gp)
800020c0:	00621023 	subu	v0,v1,v0
800020c4:	8fc50018 	lw	a1,24(s8)
800020c8:	00403025 	move	a2,v0
800020cc:	0c005d9f 	jal	8001767c <kernel_memset_word>
800020d0:	00000000 	nop
800020d4:	af8080ac 	sw	zero,-32596(gp)
800020d8:	2402001e 	li	v0,30
800020dc:	2443fffe 	addiu	v1,v0,-2
800020e0:	8f8280b0 	lw	v0,-32592(gp)
800020e4:	14620005 	bne	v1,v0,800020fc <kernel_putchar+0xbc>
800020e8:	00000000 	nop
800020ec:	0c0007c0 	jal	80001f00 <kernel_scroll_screen>
800020f0:	00000000 	nop
800020f4:	10000044 	b	80002208 <kernel_putchar+0x1c8>
800020f8:	00000000 	nop
800020fc:	8f8280b0 	lw	v0,-32592(gp)
80002100:	24420001 	addiu	v0,v0,1
80002104:	af8280b0 	sw	v0,-32592(gp)
80002108:	1000003f 	b	80002208 <kernel_putchar+0x1c8>
8000210c:	00000000 	nop
80002110:	8fc30028 	lw	v1,40(s8)
80002114:	24020009 	li	v0,9
80002118:	14620026 	bne	v1,v0,800021b4 <kernel_putchar+0x174>
8000211c:	00000000 	nop
80002120:	2402001e 	li	v0,30
80002124:	2443fffc 	addiu	v1,v0,-4
80002128:	8f8280ac 	lw	v0,-32596(gp)
8000212c:	0043102a 	slt	v0,v0,v1
80002130:	14400008 	bnez	v0,80002154 <kernel_putchar+0x114>
80002134:	00000000 	nop
80002138:	2404000a 	li	a0,10
8000213c:	00002825 	move	a1,zero
80002140:	00003025 	move	a2,zero
80002144:	0c000810 	jal	80002040 <kernel_putchar>
80002148:	00000000 	nop
8000214c:	1000002e 	b	80002208 <kernel_putchar+0x1c8>
80002150:	00000000 	nop
80002154:	8f838004 	lw	v1,-32764(gp)
80002158:	8f8480b0 	lw	a0,-32592(gp)
8000215c:	24020080 	li	v0,128
80002160:	70821002 	mul	v0,a0,v0
80002164:	00402025 	move	a0,v0
80002168:	8f8280ac 	lw	v0,-32596(gp)
8000216c:	00821021 	addu	v0,a0,v0
80002170:	00021080 	sll	v0,v0,0x2
80002174:	00622021 	addu	a0,v1,v0
80002178:	8f8280ac 	lw	v0,-32596(gp)
8000217c:	30420003 	andi	v0,v0,0x3
80002180:	24030004 	li	v1,4
80002184:	00621023 	subu	v0,v1,v0
80002188:	8fc50018 	lw	a1,24(s8)
8000218c:	00403025 	move	a2,v0
80002190:	0c005d9f 	jal	8001767c <kernel_memset_word>
80002194:	00000000 	nop
80002198:	8f8280ac 	lw	v0,-32596(gp)
8000219c:	24430004 	addiu	v1,v0,4
800021a0:	2402fffc 	li	v0,-4
800021a4:	00621024 	and	v0,v1,v0
800021a8:	af8280ac 	sw	v0,-32596(gp)
800021ac:	10000016 	b	80002208 <kernel_putchar+0x1c8>
800021b0:	00000000 	nop
800021b4:	8f8380ac 	lw	v1,-32596(gp)
800021b8:	24020050 	li	v0,80
800021bc:	14620006 	bne	v1,v0,800021d8 <kernel_putchar+0x198>
800021c0:	00000000 	nop
800021c4:	2404000a 	li	a0,10
800021c8:	00002825 	move	a1,zero
800021cc:	00003025 	move	a2,zero
800021d0:	0c000810 	jal	80002040 <kernel_putchar>
800021d4:	00000000 	nop
800021d8:	8f8380b0 	lw	v1,-32592(gp)
800021dc:	8f8280ac 	lw	v0,-32596(gp)
800021e0:	afa20010 	sw	v0,16(sp)
800021e4:	8fc40028 	lw	a0,40(s8)
800021e8:	8fc5002c 	lw	a1,44(s8)
800021ec:	8fc60030 	lw	a2,48(s8)
800021f0:	00603825 	move	a3,v1
800021f4:	0c0007e8 	jal	80001fa0 <kernel_putchar_at>
800021f8:	00000000 	nop
800021fc:	8f8280ac 	lw	v0,-32596(gp)
80002200:	24420001 	addiu	v0,v0,1
80002204:	af8280ac 	sw	v0,-32596(gp)
80002208:	0c00077b 	jal	80001dec <kernel_set_cursor>
8000220c:	00000000 	nop
80002210:	8fc20028 	lw	v0,40(s8)
80002214:	03c0e825 	move	sp,s8
80002218:	8fbf0024 	lw	ra,36(sp)
8000221c:	8fbe0020 	lw	s8,32(sp)
80002220:	27bd0028 	addiu	sp,sp,40
80002224:	03e00008 	jr	ra
80002228:	00000000 	nop

8000222c <kernel_puts>:
8000222c:	27bdffe0 	addiu	sp,sp,-32
80002230:	afbf001c 	sw	ra,28(sp)
80002234:	afbe0018 	sw	s8,24(sp)
80002238:	03a0f025 	move	s8,sp
8000223c:	afc40020 	sw	a0,32(s8)
80002240:	afc50024 	sw	a1,36(s8)
80002244:	afc60028 	sw	a2,40(s8)
80002248:	afc00010 	sw	zero,16(s8)
8000224c:	1000000d 	b	80002284 <kernel_puts+0x58>
80002250:	00000000 	nop
80002254:	8fc20010 	lw	v0,16(s8)
80002258:	24420001 	addiu	v0,v0,1
8000225c:	afc20010 	sw	v0,16(s8)
80002260:	8fc20020 	lw	v0,32(s8)
80002264:	24430001 	addiu	v1,v0,1
80002268:	afc30020 	sw	v1,32(s8)
8000226c:	90420000 	lbu	v0,0(v0)
80002270:	00402025 	move	a0,v0
80002274:	8fc50024 	lw	a1,36(s8)
80002278:	8fc60028 	lw	a2,40(s8)
8000227c:	0c000810 	jal	80002040 <kernel_putchar>
80002280:	00000000 	nop
80002284:	8fc20020 	lw	v0,32(s8)
80002288:	90420000 	lbu	v0,0(v0)
8000228c:	1440fff1 	bnez	v0,80002254 <kernel_puts+0x28>
80002290:	00000000 	nop
80002294:	8fc20010 	lw	v0,16(s8)
80002298:	03c0e825 	move	sp,s8
8000229c:	8fbf001c 	lw	ra,28(sp)
800022a0:	8fbe0018 	lw	s8,24(sp)
800022a4:	27bd0020 	addiu	sp,sp,32
800022a8:	03e00008 	jr	ra
800022ac:	00000000 	nop

800022b0 <kernel_putint>:
800022b0:	27bdffd0 	addiu	sp,sp,-48
800022b4:	afbf002c 	sw	ra,44(sp)
800022b8:	afbe0028 	sw	s8,40(sp)
800022bc:	03a0f025 	move	s8,sp
800022c0:	afc40030 	sw	a0,48(s8)
800022c4:	afc50034 	sw	a1,52(s8)
800022c8:	afc60038 	sw	a2,56(s8)
800022cc:	27c20018 	addiu	v0,s8,24
800022d0:	2442000b 	addiu	v0,v0,11
800022d4:	afc20010 	sw	v0,16(s8)
800022d8:	afc00014 	sw	zero,20(s8)
800022dc:	a3c00023 	sb	zero,35(s8)
800022e0:	8fc20030 	lw	v0,48(s8)
800022e4:	14400009 	bnez	v0,8000230c <kernel_putint+0x5c>
800022e8:	00000000 	nop
800022ec:	24040030 	li	a0,48
800022f0:	8fc50034 	lw	a1,52(s8)
800022f4:	8fc60038 	lw	a2,56(s8)
800022f8:	0c000810 	jal	80002040 <kernel_putchar>
800022fc:	00000000 	nop
80002300:	8fc20030 	lw	v0,48(s8)
80002304:	1000003b 	b	800023f4 <kernel_putint+0x144>
80002308:	00000000 	nop
8000230c:	8fc20030 	lw	v0,48(s8)
80002310:	04410006 	bgez	v0,8000232c <kernel_putint+0x7c>
80002314:	00000000 	nop
80002318:	24020001 	li	v0,1
8000231c:	afc20014 	sw	v0,20(s8)
80002320:	8fc20030 	lw	v0,48(s8)
80002324:	00021023 	negu	v0,v0
80002328:	afc20030 	sw	v0,48(s8)
8000232c:	1000001f 	b	800023ac <kernel_putint+0xfc>
80002330:	00000000 	nop
80002334:	8fc20010 	lw	v0,16(s8)
80002338:	2442ffff 	addiu	v0,v0,-1
8000233c:	afc20010 	sw	v0,16(s8)
80002340:	8fc30030 	lw	v1,48(s8)
80002344:	3c026666 	lui	v0,0x6666
80002348:	34426667 	ori	v0,v0,0x6667
8000234c:	00620018 	mult	v1,v0
80002350:	00002012 	mflo	a0
80002354:	00002810 	mfhi	a1
80002358:	00052083 	sra	a0,a1,0x2
8000235c:	000317c3 	sra	v0,v1,0x1f
80002360:	00821023 	subu	v0,a0,v0
80002364:	00021040 	sll	v0,v0,0x1
80002368:	00022080 	sll	a0,v0,0x2
8000236c:	00441021 	addu	v0,v0,a0
80002370:	00621023 	subu	v0,v1,v0
80002374:	304200ff 	andi	v0,v0,0xff
80002378:	24420030 	addiu	v0,v0,48
8000237c:	304300ff 	andi	v1,v0,0xff
80002380:	8fc20010 	lw	v0,16(s8)
80002384:	a0430000 	sb	v1,0(v0)
80002388:	8fc20030 	lw	v0,48(s8)
8000238c:	3c036666 	lui	v1,0x6666
80002390:	34636667 	ori	v1,v1,0x6667
80002394:	00430018 	mult	v0,v1
80002398:	00001810 	mfhi	v1
8000239c:	00031883 	sra	v1,v1,0x2
800023a0:	000217c3 	sra	v0,v0,0x1f
800023a4:	00621023 	subu	v0,v1,v0
800023a8:	afc20030 	sw	v0,48(s8)
800023ac:	8fc20030 	lw	v0,48(s8)
800023b0:	1440ffe0 	bnez	v0,80002334 <kernel_putint+0x84>
800023b4:	00000000 	nop
800023b8:	8fc20014 	lw	v0,20(s8)
800023bc:	10400007 	beqz	v0,800023dc <kernel_putint+0x12c>
800023c0:	00000000 	nop
800023c4:	8fc20010 	lw	v0,16(s8)
800023c8:	2442ffff 	addiu	v0,v0,-1
800023cc:	afc20010 	sw	v0,16(s8)
800023d0:	8fc20010 	lw	v0,16(s8)
800023d4:	2403002d 	li	v1,45
800023d8:	a0430000 	sb	v1,0(v0)
800023dc:	8fc40010 	lw	a0,16(s8)
800023e0:	8fc50034 	lw	a1,52(s8)
800023e4:	8fc60038 	lw	a2,56(s8)
800023e8:	0c00088b 	jal	8000222c <kernel_puts>
800023ec:	00000000 	nop
800023f0:	8fc20030 	lw	v0,48(s8)
800023f4:	03c0e825 	move	sp,s8
800023f8:	8fbf002c 	lw	ra,44(sp)
800023fc:	8fbe0028 	lw	s8,40(sp)
80002400:	27bd0030 	addiu	sp,sp,48
80002404:	03e00008 	jr	ra
80002408:	00000000 	nop

8000240c <kernel_putuint>:
8000240c:	27bdffd0 	addiu	sp,sp,-48
80002410:	afbf002c 	sw	ra,44(sp)
80002414:	afbe0028 	sw	s8,40(sp)
80002418:	03a0f025 	move	s8,sp
8000241c:	afc40030 	sw	a0,48(s8)
80002420:	afc50034 	sw	a1,52(s8)
80002424:	afc60038 	sw	a2,56(s8)
80002428:	27c20018 	addiu	v0,s8,24
8000242c:	2442000b 	addiu	v0,v0,11
80002430:	afc20010 	sw	v0,16(s8)
80002434:	afc00014 	sw	zero,20(s8)
80002438:	a3c00023 	sb	zero,35(s8)
8000243c:	8fc20030 	lw	v0,48(s8)
80002440:	14400009 	bnez	v0,80002468 <kernel_putuint+0x5c>
80002444:	00000000 	nop
80002448:	24040030 	li	a0,48
8000244c:	8fc50034 	lw	a1,52(s8)
80002450:	8fc60038 	lw	a2,56(s8)
80002454:	0c000810 	jal	80002040 <kernel_putchar>
80002458:	00000000 	nop
8000245c:	8fc20030 	lw	v0,48(s8)
80002460:	10000025 	b	800024f8 <kernel_putuint+0xec>
80002464:	00000000 	nop
80002468:	1000001a 	b	800024d4 <kernel_putuint+0xc8>
8000246c:	00000000 	nop
80002470:	8fc20010 	lw	v0,16(s8)
80002474:	2442ffff 	addiu	v0,v0,-1
80002478:	afc20010 	sw	v0,16(s8)
8000247c:	8fc30030 	lw	v1,48(s8)
80002480:	3c02cccc 	lui	v0,0xcccc
80002484:	3442cccd 	ori	v0,v0,0xcccd
80002488:	00620019 	multu	v1,v0
8000248c:	00001010 	mfhi	v0
80002490:	000210c2 	srl	v0,v0,0x3
80002494:	00021040 	sll	v0,v0,0x1
80002498:	00022080 	sll	a0,v0,0x2
8000249c:	00441021 	addu	v0,v0,a0
800024a0:	00621023 	subu	v0,v1,v0
800024a4:	304200ff 	andi	v0,v0,0xff
800024a8:	24420030 	addiu	v0,v0,48
800024ac:	304300ff 	andi	v1,v0,0xff
800024b0:	8fc20010 	lw	v0,16(s8)
800024b4:	a0430000 	sb	v1,0(v0)
800024b8:	8fc30030 	lw	v1,48(s8)
800024bc:	3c02cccc 	lui	v0,0xcccc
800024c0:	3442cccd 	ori	v0,v0,0xcccd
800024c4:	00620019 	multu	v1,v0
800024c8:	00001010 	mfhi	v0
800024cc:	000210c2 	srl	v0,v0,0x3
800024d0:	afc20030 	sw	v0,48(s8)
800024d4:	8fc20030 	lw	v0,48(s8)
800024d8:	1440ffe5 	bnez	v0,80002470 <kernel_putuint+0x64>
800024dc:	00000000 	nop
800024e0:	8fc40010 	lw	a0,16(s8)
800024e4:	8fc50034 	lw	a1,52(s8)
800024e8:	8fc60038 	lw	a2,56(s8)
800024ec:	0c00088b 	jal	8000222c <kernel_puts>
800024f0:	00000000 	nop
800024f4:	8fc20030 	lw	v0,48(s8)
800024f8:	03c0e825 	move	sp,s8
800024fc:	8fbf002c 	lw	ra,44(sp)
80002500:	8fbe0028 	lw	s8,40(sp)
80002504:	27bd0030 	addiu	sp,sp,48
80002508:	03e00008 	jr	ra
8000250c:	00000000 	nop

80002510 <kernel_putint_octal>:
80002510:	27bdffd0 	addiu	sp,sp,-48
80002514:	afbf002c 	sw	ra,44(sp)
80002518:	afbe0028 	sw	s8,40(sp)
8000251c:	03a0f025 	move	s8,sp
80002520:	afc40030 	sw	a0,48(s8)
80002524:	afc50034 	sw	a1,52(s8)
80002528:	afc60038 	sw	a2,56(s8)
8000252c:	27c20018 	addiu	v0,s8,24
80002530:	2442000b 	addiu	v0,v0,11
80002534:	afc20010 	sw	v0,16(s8)
80002538:	afc00014 	sw	zero,20(s8)
8000253c:	a3c00023 	sb	zero,35(s8)
80002540:	8fc20030 	lw	v0,48(s8)
80002544:	14400009 	bnez	v0,8000256c <kernel_putint_octal+0x5c>
80002548:	00000000 	nop
8000254c:	24040030 	li	a0,48
80002550:	8fc50034 	lw	a1,52(s8)
80002554:	8fc60038 	lw	a2,56(s8)
80002558:	0c000810 	jal	80002040 <kernel_putchar>
8000255c:	00000000 	nop
80002560:	8fc20030 	lw	v0,48(s8)
80002564:	1000001a 	b	800025d0 <kernel_putint_octal+0xc0>
80002568:	00000000 	nop
8000256c:	1000000f 	b	800025ac <kernel_putint_octal+0x9c>
80002570:	00000000 	nop
80002574:	8fc20010 	lw	v0,16(s8)
80002578:	2442ffff 	addiu	v0,v0,-1
8000257c:	afc20010 	sw	v0,16(s8)
80002580:	8fc20030 	lw	v0,48(s8)
80002584:	304200ff 	andi	v0,v0,0xff
80002588:	30420007 	andi	v0,v0,0x7
8000258c:	304200ff 	andi	v0,v0,0xff
80002590:	24420030 	addiu	v0,v0,48
80002594:	304300ff 	andi	v1,v0,0xff
80002598:	8fc20010 	lw	v0,16(s8)
8000259c:	a0430000 	sb	v1,0(v0)
800025a0:	8fc20030 	lw	v0,48(s8)
800025a4:	000210c2 	srl	v0,v0,0x3
800025a8:	afc20030 	sw	v0,48(s8)
800025ac:	8fc20030 	lw	v0,48(s8)
800025b0:	1440fff0 	bnez	v0,80002574 <kernel_putint_octal+0x64>
800025b4:	00000000 	nop
800025b8:	8fc40010 	lw	a0,16(s8)
800025bc:	8fc50034 	lw	a1,52(s8)
800025c0:	8fc60038 	lw	a2,56(s8)
800025c4:	0c00088b 	jal	8000222c <kernel_puts>
800025c8:	00000000 	nop
800025cc:	8fc20030 	lw	v0,48(s8)
800025d0:	03c0e825 	move	sp,s8
800025d4:	8fbf002c 	lw	ra,44(sp)
800025d8:	8fbe0028 	lw	s8,40(sp)
800025dc:	27bd0030 	addiu	sp,sp,48
800025e0:	03e00008 	jr	ra
800025e4:	00000000 	nop

800025e8 <kernel_putint_hex>:
800025e8:	27bdffd8 	addiu	sp,sp,-40
800025ec:	afbf0024 	sw	ra,36(sp)
800025f0:	afbe0020 	sw	s8,32(sp)
800025f4:	03a0f025 	move	s8,sp
800025f8:	afc40028 	sw	a0,40(s8)
800025fc:	afc5002c 	sw	a1,44(s8)
80002600:	afc60030 	sw	a2,48(s8)
80002604:	00e01025 	move	v0,a3
80002608:	a3c20034 	sb	v0,52(s8)
8000260c:	27c20014 	addiu	v0,s8,20
80002610:	2442000b 	addiu	v0,v0,11
80002614:	afc20010 	sw	v0,16(s8)
80002618:	a3c0001f 	sb	zero,31(s8)
8000261c:	8fc20028 	lw	v0,40(s8)
80002620:	14400009 	bnez	v0,80002648 <kernel_putint_hex+0x60>
80002624:	00000000 	nop
80002628:	24040030 	li	a0,48
8000262c:	8fc5002c 	lw	a1,44(s8)
80002630:	8fc60030 	lw	a2,48(s8)
80002634:	0c000810 	jal	80002040 <kernel_putchar>
80002638:	00000000 	nop
8000263c:	8fc20028 	lw	v0,40(s8)
80002640:	10000023 	b	800026d0 <kernel_putint_hex+0xe8>
80002644:	00000000 	nop
80002648:	10000018 	b	800026ac <kernel_putint_hex+0xc4>
8000264c:	00000000 	nop
80002650:	8fc20010 	lw	v0,16(s8)
80002654:	2442ffff 	addiu	v0,v0,-1
80002658:	afc20010 	sw	v0,16(s8)
8000265c:	93c20034 	lbu	v0,52(s8)
80002660:	10400008 	beqz	v0,80002684 <kernel_putint_hex+0x9c>
80002664:	00000000 	nop
80002668:	8f83805c 	lw	v1,-32676(gp)
8000266c:	8fc20028 	lw	v0,40(s8)
80002670:	3042000f 	andi	v0,v0,0xf
80002674:	00621021 	addu	v0,v1,v0
80002678:	90420000 	lbu	v0,0(v0)
8000267c:	10000006 	b	80002698 <kernel_putint_hex+0xb0>
80002680:	00000000 	nop
80002684:	8f838058 	lw	v1,-32680(gp)
80002688:	8fc20028 	lw	v0,40(s8)
8000268c:	3042000f 	andi	v0,v0,0xf
80002690:	00621021 	addu	v0,v1,v0
80002694:	90420000 	lbu	v0,0(v0)
80002698:	8fc30010 	lw	v1,16(s8)
8000269c:	a0620000 	sb	v0,0(v1)
800026a0:	8fc20028 	lw	v0,40(s8)
800026a4:	00021102 	srl	v0,v0,0x4
800026a8:	afc20028 	sw	v0,40(s8)
800026ac:	8fc20028 	lw	v0,40(s8)
800026b0:	1440ffe7 	bnez	v0,80002650 <kernel_putint_hex+0x68>
800026b4:	00000000 	nop
800026b8:	8fc40010 	lw	a0,16(s8)
800026bc:	8fc5002c 	lw	a1,44(s8)
800026c0:	8fc60030 	lw	a2,48(s8)
800026c4:	0c00088b 	jal	8000222c <kernel_puts>
800026c8:	00000000 	nop
800026cc:	8fc20028 	lw	v0,40(s8)
800026d0:	03c0e825 	move	sp,s8
800026d4:	8fbf0024 	lw	ra,36(sp)
800026d8:	8fbe0020 	lw	s8,32(sp)
800026dc:	27bd0028 	addiu	sp,sp,40
800026e0:	03e00008 	jr	ra
800026e4:	00000000 	nop

800026e8 <kernel_vprintf>:
800026e8:	27bdffc8 	addiu	sp,sp,-56
800026ec:	afbf0034 	sw	ra,52(sp)
800026f0:	afbe0030 	sw	s8,48(sp)
800026f4:	03a0f025 	move	s8,sp
800026f8:	afc40038 	sw	a0,56(s8)
800026fc:	afc5003c 	sw	a1,60(s8)
80002700:	afc00010 	sw	zero,16(s8)
80002704:	100000dd 	b	80002a7c <kernel_vprintf+0x394>
80002708:	00000000 	nop
8000270c:	8fc20038 	lw	v0,56(s8)
80002710:	90430000 	lbu	v1,0(v0)
80002714:	24020025 	li	v0,37
80002718:	1062000c 	beq	v1,v0,8000274c <kernel_vprintf+0x64>
8000271c:	00000000 	nop
80002720:	8fc20038 	lw	v0,56(s8)
80002724:	24430001 	addiu	v1,v0,1
80002728:	afc30038 	sw	v1,56(s8)
8000272c:	90420000 	lbu	v0,0(v0)
80002730:	00402025 	move	a0,v0
80002734:	24050fff 	li	a1,4095
80002738:	00003025 	move	a2,zero
8000273c:	0c000810 	jal	80002040 <kernel_putchar>
80002740:	00000000 	nop
80002744:	100000cd 	b	80002a7c <kernel_vprintf+0x394>
80002748:	00000000 	nop
8000274c:	8fc20038 	lw	v0,56(s8)
80002750:	24420001 	addiu	v0,v0,1
80002754:	afc20038 	sw	v0,56(s8)
80002758:	8fc20038 	lw	v0,56(s8)
8000275c:	90420000 	lbu	v0,0(v0)
80002760:	24030064 	li	v1,100
80002764:	10430036 	beq	v0,v1,80002840 <kernel_vprintf+0x158>
80002768:	00000000 	nop
8000276c:	28430065 	slti	v1,v0,101
80002770:	1060000c 	beqz	v1,800027a4 <kernel_vprintf+0xbc>
80002774:	00000000 	nop
80002778:	24030058 	li	v1,88
8000277c:	10430099 	beq	v0,v1,800029e4 <kernel_vprintf+0x2fc>
80002780:	00000000 	nop
80002784:	24030063 	li	v1,99
80002788:	10430019 	beq	v0,v1,800027f0 <kernel_vprintf+0x108>
8000278c:	00000000 	nop
80002790:	24030025 	li	v1,37
80002794:	104300a7 	beq	v0,v1,80002a34 <kernel_vprintf+0x34c>
80002798:	00000000 	nop
8000279c:	100000b3 	b	80002a6c <kernel_vprintf+0x384>
800027a0:	00000000 	nop
800027a4:	24030073 	li	v1,115
800027a8:	1043004b 	beq	v0,v1,800028d8 <kernel_vprintf+0x1f0>
800027ac:	00000000 	nop
800027b0:	28430074 	slti	v1,v0,116
800027b4:	10600006 	beqz	v1,800027d0 <kernel_vprintf+0xe8>
800027b8:	00000000 	nop
800027bc:	2403006f 	li	v1,111
800027c0:	10430032 	beq	v0,v1,8000288c <kernel_vprintf+0x1a4>
800027c4:	00000000 	nop
800027c8:	100000a8 	b	80002a6c <kernel_vprintf+0x384>
800027cc:	00000000 	nop
800027d0:	24030075 	li	v1,117
800027d4:	1043005c 	beq	v0,v1,80002948 <kernel_vprintf+0x260>
800027d8:	00000000 	nop
800027dc:	24030078 	li	v1,120
800027e0:	1043006c 	beq	v0,v1,80002994 <kernel_vprintf+0x2ac>
800027e4:	00000000 	nop
800027e8:	100000a0 	b	80002a6c <kernel_vprintf+0x384>
800027ec:	00000000 	nop
800027f0:	8fc2003c 	lw	v0,60(s8)
800027f4:	24420004 	addiu	v0,v0,4
800027f8:	afc2003c 	sw	v0,60(s8)
800027fc:	8fc2003c 	lw	v0,60(s8)
80002800:	9042fffc 	lbu	v0,-4(v0)
80002804:	a3c20014 	sb	v0,20(s8)
80002808:	93c20014 	lbu	v0,20(s8)
8000280c:	00402025 	move	a0,v0
80002810:	24050fff 	li	a1,4095
80002814:	00003025 	move	a2,zero
80002818:	0c000810 	jal	80002040 <kernel_putchar>
8000281c:	00000000 	nop
80002820:	8fc20038 	lw	v0,56(s8)
80002824:	24420001 	addiu	v0,v0,1
80002828:	afc20038 	sw	v0,56(s8)
8000282c:	8fc20010 	lw	v0,16(s8)
80002830:	24420001 	addiu	v0,v0,1
80002834:	afc20010 	sw	v0,16(s8)
80002838:	10000090 	b	80002a7c <kernel_vprintf+0x394>
8000283c:	00000000 	nop
80002840:	8fc2003c 	lw	v0,60(s8)
80002844:	24420004 	addiu	v0,v0,4
80002848:	afc2003c 	sw	v0,60(s8)
8000284c:	8fc2003c 	lw	v0,60(s8)
80002850:	8c42fffc 	lw	v0,-4(v0)
80002854:	afc20018 	sw	v0,24(s8)
80002858:	8fc40018 	lw	a0,24(s8)
8000285c:	24050fff 	li	a1,4095
80002860:	00003025 	move	a2,zero
80002864:	0c0008ac 	jal	800022b0 <kernel_putint>
80002868:	00000000 	nop
8000286c:	8fc20038 	lw	v0,56(s8)
80002870:	24420001 	addiu	v0,v0,1
80002874:	afc20038 	sw	v0,56(s8)
80002878:	8fc20010 	lw	v0,16(s8)
8000287c:	24420001 	addiu	v0,v0,1
80002880:	afc20010 	sw	v0,16(s8)
80002884:	1000007d 	b	80002a7c <kernel_vprintf+0x394>
80002888:	00000000 	nop
8000288c:	8fc2003c 	lw	v0,60(s8)
80002890:	24420004 	addiu	v0,v0,4
80002894:	afc2003c 	sw	v0,60(s8)
80002898:	8fc2003c 	lw	v0,60(s8)
8000289c:	8c42fffc 	lw	v0,-4(v0)
800028a0:	afc2001c 	sw	v0,28(s8)
800028a4:	8fc4001c 	lw	a0,28(s8)
800028a8:	24050fff 	li	a1,4095
800028ac:	00003025 	move	a2,zero
800028b0:	0c000944 	jal	80002510 <kernel_putint_octal>
800028b4:	00000000 	nop
800028b8:	8fc20038 	lw	v0,56(s8)
800028bc:	24420001 	addiu	v0,v0,1
800028c0:	afc20038 	sw	v0,56(s8)
800028c4:	8fc20010 	lw	v0,16(s8)
800028c8:	24420001 	addiu	v0,v0,1
800028cc:	afc20010 	sw	v0,16(s8)
800028d0:	1000006a 	b	80002a7c <kernel_vprintf+0x394>
800028d4:	00000000 	nop
800028d8:	8fc2003c 	lw	v0,60(s8)
800028dc:	24420004 	addiu	v0,v0,4
800028e0:	afc2003c 	sw	v0,60(s8)
800028e4:	8fc2003c 	lw	v0,60(s8)
800028e8:	8c42fffc 	lw	v0,-4(v0)
800028ec:	afc20020 	sw	v0,32(s8)
800028f0:	8fc20020 	lw	v0,32(s8)
800028f4:	14400007 	bnez	v0,80002914 <kernel_vprintf+0x22c>
800028f8:	00000000 	nop
800028fc:	3c028001 	lui	v0,0x8001
80002900:	24447d78 	addiu	a0,v0,32120
80002904:	3c028001 	lui	v0,0x8001
80002908:	24457d88 	addiu	a1,v0,32136
8000290c:	0c005c3f 	jal	800170fc <badassert>
80002910:	00000000 	nop
80002914:	8fc40020 	lw	a0,32(s8)
80002918:	24050fff 	li	a1,4095
8000291c:	00003025 	move	a2,zero
80002920:	0c00088b 	jal	8000222c <kernel_puts>
80002924:	00000000 	nop
80002928:	8fc20038 	lw	v0,56(s8)
8000292c:	24420001 	addiu	v0,v0,1
80002930:	afc20038 	sw	v0,56(s8)
80002934:	8fc20010 	lw	v0,16(s8)
80002938:	24420001 	addiu	v0,v0,1
8000293c:	afc20010 	sw	v0,16(s8)
80002940:	1000004e 	b	80002a7c <kernel_vprintf+0x394>
80002944:	00000000 	nop
80002948:	8fc2003c 	lw	v0,60(s8)
8000294c:	24420004 	addiu	v0,v0,4
80002950:	afc2003c 	sw	v0,60(s8)
80002954:	8fc2003c 	lw	v0,60(s8)
80002958:	8c42fffc 	lw	v0,-4(v0)
8000295c:	afc20024 	sw	v0,36(s8)
80002960:	8fc40024 	lw	a0,36(s8)
80002964:	24050fff 	li	a1,4095
80002968:	00003025 	move	a2,zero
8000296c:	0c000903 	jal	8000240c <kernel_putuint>
80002970:	00000000 	nop
80002974:	8fc20038 	lw	v0,56(s8)
80002978:	24420001 	addiu	v0,v0,1
8000297c:	afc20038 	sw	v0,56(s8)
80002980:	8fc20010 	lw	v0,16(s8)
80002984:	24420001 	addiu	v0,v0,1
80002988:	afc20010 	sw	v0,16(s8)
8000298c:	1000003b 	b	80002a7c <kernel_vprintf+0x394>
80002990:	00000000 	nop
80002994:	8fc2003c 	lw	v0,60(s8)
80002998:	24420004 	addiu	v0,v0,4
8000299c:	afc2003c 	sw	v0,60(s8)
800029a0:	8fc2003c 	lw	v0,60(s8)
800029a4:	8c42fffc 	lw	v0,-4(v0)
800029a8:	afc20028 	sw	v0,40(s8)
800029ac:	8fc40028 	lw	a0,40(s8)
800029b0:	24050fff 	li	a1,4095
800029b4:	00003025 	move	a2,zero
800029b8:	00003825 	move	a3,zero
800029bc:	0c00097a 	jal	800025e8 <kernel_putint_hex>
800029c0:	00000000 	nop
800029c4:	8fc20038 	lw	v0,56(s8)
800029c8:	24420001 	addiu	v0,v0,1
800029cc:	afc20038 	sw	v0,56(s8)
800029d0:	8fc20010 	lw	v0,16(s8)
800029d4:	24420001 	addiu	v0,v0,1
800029d8:	afc20010 	sw	v0,16(s8)
800029dc:	10000027 	b	80002a7c <kernel_vprintf+0x394>
800029e0:	00000000 	nop
800029e4:	8fc2003c 	lw	v0,60(s8)
800029e8:	24420004 	addiu	v0,v0,4
800029ec:	afc2003c 	sw	v0,60(s8)
800029f0:	8fc2003c 	lw	v0,60(s8)
800029f4:	8c42fffc 	lw	v0,-4(v0)
800029f8:	afc2002c 	sw	v0,44(s8)
800029fc:	8fc4002c 	lw	a0,44(s8)
80002a00:	24050fff 	li	a1,4095
80002a04:	00003025 	move	a2,zero
80002a08:	24070001 	li	a3,1
80002a0c:	0c00097a 	jal	800025e8 <kernel_putint_hex>
80002a10:	00000000 	nop
80002a14:	8fc20038 	lw	v0,56(s8)
80002a18:	24420001 	addiu	v0,v0,1
80002a1c:	afc20038 	sw	v0,56(s8)
80002a20:	8fc20010 	lw	v0,16(s8)
80002a24:	24420001 	addiu	v0,v0,1
80002a28:	afc20010 	sw	v0,16(s8)
80002a2c:	10000013 	b	80002a7c <kernel_vprintf+0x394>
80002a30:	00000000 	nop
80002a34:	8fc20038 	lw	v0,56(s8)
80002a38:	24430001 	addiu	v1,v0,1
80002a3c:	afc30038 	sw	v1,56(s8)
80002a40:	90420000 	lbu	v0,0(v0)
80002a44:	00402025 	move	a0,v0
80002a48:	24050fff 	li	a1,4095
80002a4c:	00003025 	move	a2,zero
80002a50:	0c000810 	jal	80002040 <kernel_putchar>
80002a54:	00000000 	nop
80002a58:	8fc20010 	lw	v0,16(s8)
80002a5c:	24420001 	addiu	v0,v0,1
80002a60:	afc20010 	sw	v0,16(s8)
80002a64:	10000005 	b	80002a7c <kernel_vprintf+0x394>
80002a68:	00000000 	nop
80002a6c:	2402ffff 	li	v0,-1
80002a70:	afc20010 	sw	v0,16(s8)
80002a74:	10000005 	b	80002a8c <kernel_vprintf+0x3a4>
80002a78:	00000000 	nop
80002a7c:	8fc20038 	lw	v0,56(s8)
80002a80:	90420000 	lbu	v0,0(v0)
80002a84:	1440ff21 	bnez	v0,8000270c <kernel_vprintf+0x24>
80002a88:	00000000 	nop
80002a8c:	8fc20010 	lw	v0,16(s8)
80002a90:	03c0e825 	move	sp,s8
80002a94:	8fbf0034 	lw	ra,52(sp)
80002a98:	8fbe0030 	lw	s8,48(sp)
80002a9c:	27bd0038 	addiu	sp,sp,56
80002aa0:	03e00008 	jr	ra
80002aa4:	00000000 	nop

80002aa8 <kernel_printf>:
80002aa8:	27bdffe0 	addiu	sp,sp,-32
80002aac:	afbf001c 	sw	ra,28(sp)
80002ab0:	afbe0018 	sw	s8,24(sp)
80002ab4:	03a0f025 	move	s8,sp
80002ab8:	afc50024 	sw	a1,36(s8)
80002abc:	afc60028 	sw	a2,40(s8)
80002ac0:	afc7002c 	sw	a3,44(s8)
80002ac4:	afc40020 	sw	a0,32(s8)
80002ac8:	afc00010 	sw	zero,16(s8)
80002acc:	27c20024 	addiu	v0,s8,36
80002ad0:	afc20014 	sw	v0,20(s8)
80002ad4:	8fc20020 	lw	v0,32(s8)
80002ad8:	00402025 	move	a0,v0
80002adc:	8fc50014 	lw	a1,20(s8)
80002ae0:	0c0009ba 	jal	800026e8 <kernel_vprintf>
80002ae4:	00000000 	nop
80002ae8:	afc20010 	sw	v0,16(s8)
80002aec:	afc00014 	sw	zero,20(s8)
80002af0:	8fc20010 	lw	v0,16(s8)
80002af4:	03c0e825 	move	sp,s8
80002af8:	8fbf001c 	lw	ra,28(sp)
80002afc:	8fbe0018 	lw	s8,24(sp)
80002b00:	27bd0020 	addiu	sp,sp,32
80002b04:	03e00008 	jr	ra
80002b08:	00000000 	nop

80002b0c <fs_open_dir>:
80002b0c:	27bdffe0 	addiu	sp,sp,-32
80002b10:	afbf001c 	sw	ra,28(sp)
80002b14:	afbe0018 	sw	s8,24(sp)
80002b18:	03a0f025 	move	s8,sp
80002b1c:	afc40020 	sw	a0,32(s8)
80002b20:	afc50024 	sw	a1,36(s8)
80002b24:	8fc20024 	lw	v0,36(s8)
80002b28:	90430000 	lbu	v1,0(v0)
80002b2c:	2402002f 	li	v0,47
80002b30:	10620003 	beq	v1,v0,80002b40 <fs_open_dir+0x34>
80002b34:	00000000 	nop
80002b38:	10000080 	b	80002d3c <fs_open_dir+0x230>
80002b3c:	00000000 	nop
80002b40:	24040002 	li	a0,2
80002b44:	0c001e7b 	jal	800079ec <fs_dataclus2sec>
80002b48:	00000000 	nop
80002b4c:	00401825 	move	v1,v0
80002b50:	8fc20020 	lw	v0,32(s8)
80002b54:	ac430000 	sw	v1,0(v0)
80002b58:	8fc20020 	lw	v0,32(s8)
80002b5c:	ac400004 	sw	zero,4(v0)
80002b60:	8fc20020 	lw	v0,32(s8)
80002b64:	24030001 	li	v1,1
80002b68:	ac430008 	sw	v1,8(v0)
80002b6c:	8fc20020 	lw	v0,32(s8)
80002b70:	8c430000 	lw	v1,0(v0)
80002b74:	3c028002 	lui	v0,0x8002
80002b78:	2444ecfc 	addiu	a0,v0,-4868
80002b7c:	00602825 	move	a1,v1
80002b80:	27868098 	addiu	a2,gp,-32616
80002b84:	24070004 	li	a3,4
80002b88:	0c0020e5 	jal	80008394 <fs_read_512>
80002b8c:	00000000 	nop
80002b90:	afc20014 	sw	v0,20(s8)
80002b94:	8fc30014 	lw	v1,20(s8)
80002b98:	2402ffff 	li	v0,-1
80002b9c:	14620003 	bne	v1,v0,80002bac <fs_open_dir+0xa0>
80002ba0:	00000000 	nop
80002ba4:	10000065 	b	80002d3c <fs_open_dir+0x230>
80002ba8:	00000000 	nop
80002bac:	8fc20024 	lw	v0,36(s8)
80002bb0:	24420001 	addiu	v0,v0,1
80002bb4:	90420000 	lbu	v0,0(v0)
80002bb8:	1040005d 	beqz	v0,80002d30 <fs_open_dir+0x224>
80002bbc:	00000000 	nop
80002bc0:	afc00010 	sw	zero,16(s8)
80002bc4:	10000009 	b	80002bec <fs_open_dir+0xe0>
80002bc8:	00000000 	nop
80002bcc:	3c028002 	lui	v0,0x8002
80002bd0:	2443abac 	addiu	v1,v0,-21588
80002bd4:	8fc20010 	lw	v0,16(s8)
80002bd8:	00621021 	addu	v0,v1,v0
80002bdc:	a0400000 	sb	zero,0(v0)
80002be0:	8fc20010 	lw	v0,16(s8)
80002be4:	24420001 	addiu	v0,v0,1
80002be8:	afc20010 	sw	v0,16(s8)
80002bec:	8fc20010 	lw	v0,16(s8)
80002bf0:	2c420100 	sltiu	v0,v0,256
80002bf4:	1440fff5 	bnez	v0,80002bcc <fs_open_dir+0xc0>
80002bf8:	00000000 	nop
80002bfc:	afc00010 	sw	zero,16(s8)
80002c00:	1000000d 	b	80002c38 <fs_open_dir+0x12c>
80002c04:	00000000 	nop
80002c08:	8fc30024 	lw	v1,36(s8)
80002c0c:	8fc20010 	lw	v0,16(s8)
80002c10:	00621021 	addu	v0,v1,v0
80002c14:	90430000 	lbu	v1,0(v0)
80002c18:	3c028002 	lui	v0,0x8002
80002c1c:	2444abac 	addiu	a0,v0,-21588
80002c20:	8fc20010 	lw	v0,16(s8)
80002c24:	00821021 	addu	v0,a0,v0
80002c28:	a0430000 	sb	v1,0(v0)
80002c2c:	8fc20010 	lw	v0,16(s8)
80002c30:	24420001 	addiu	v0,v0,1
80002c34:	afc20010 	sw	v0,16(s8)
80002c38:	8fc20010 	lw	v0,16(s8)
80002c3c:	2c420100 	sltiu	v0,v0,256
80002c40:	10400007 	beqz	v0,80002c60 <fs_open_dir+0x154>
80002c44:	00000000 	nop
80002c48:	8fc30024 	lw	v1,36(s8)
80002c4c:	8fc20010 	lw	v0,16(s8)
80002c50:	00621021 	addu	v0,v1,v0
80002c54:	90420000 	lbu	v0,0(v0)
80002c58:	1440ffeb 	bnez	v0,80002c08 <fs_open_dir+0xfc>
80002c5c:	00000000 	nop
80002c60:	3c028002 	lui	v0,0x8002
80002c64:	2444abac 	addiu	a0,v0,-21588
80002c68:	0c000f1c 	jal	80003c70 <fs_find>
80002c6c:	00000000 	nop
80002c70:	00401825 	move	v1,v0
80002c74:	24020001 	li	v0,1
80002c78:	14620003 	bne	v1,v0,80002c88 <fs_open_dir+0x17c>
80002c7c:	00000000 	nop
80002c80:	1000002e 	b	80002d3c <fs_open_dir+0x230>
80002c84:	00000000 	nop
80002c88:	3c028002 	lui	v0,0x8002
80002c8c:	2442abac 	addiu	v0,v0,-21588
80002c90:	8c430104 	lw	v1,260(v0)
80002c94:	2402ffff 	li	v0,-1
80002c98:	14620003 	bne	v1,v0,80002ca8 <fs_open_dir+0x19c>
80002c9c:	00000000 	nop
80002ca0:	10000026 	b	80002d3c <fs_open_dir+0x230>
80002ca4:	00000000 	nop
80002ca8:	3c028002 	lui	v0,0x8002
80002cac:	2442abac 	addiu	v0,v0,-21588
80002cb0:	90420117 	lbu	v0,279(v0)
80002cb4:	30420010 	andi	v0,v0,0x10
80002cb8:	14400003 	bnez	v0,80002cc8 <fs_open_dir+0x1bc>
80002cbc:	00000000 	nop
80002cc0:	1000001e 	b	80002d3c <fs_open_dir+0x230>
80002cc4:	00000000 	nop
80002cc8:	3c028002 	lui	v0,0x8002
80002ccc:	2444abac 	addiu	a0,v0,-21588
80002cd0:	0c001dcd 	jal	80007734 <get_start_cluster>
80002cd4:	00000000 	nop
80002cd8:	00402025 	move	a0,v0
80002cdc:	0c001e7b 	jal	800079ec <fs_dataclus2sec>
80002ce0:	00000000 	nop
80002ce4:	00401825 	move	v1,v0
80002ce8:	8fc20020 	lw	v0,32(s8)
80002cec:	ac430000 	sw	v1,0(v0)
80002cf0:	8fc20020 	lw	v0,32(s8)
80002cf4:	8c430000 	lw	v1,0(v0)
80002cf8:	3c028002 	lui	v0,0x8002
80002cfc:	2444ecfc 	addiu	a0,v0,-4868
80002d00:	00602825 	move	a1,v1
80002d04:	27868098 	addiu	a2,gp,-32616
80002d08:	24070004 	li	a3,4
80002d0c:	0c0020e5 	jal	80008394 <fs_read_512>
80002d10:	00000000 	nop
80002d14:	afc20014 	sw	v0,20(s8)
80002d18:	8fc30014 	lw	v1,20(s8)
80002d1c:	2402ffff 	li	v0,-1
80002d20:	14620003 	bne	v1,v0,80002d30 <fs_open_dir+0x224>
80002d24:	00000000 	nop
80002d28:	10000004 	b	80002d3c <fs_open_dir+0x230>
80002d2c:	00000000 	nop
80002d30:	00001025 	move	v0,zero
80002d34:	10000002 	b	80002d40 <fs_open_dir+0x234>
80002d38:	00000000 	nop
80002d3c:	24020001 	li	v0,1
80002d40:	03c0e825 	move	sp,s8
80002d44:	8fbf001c 	lw	ra,28(sp)
80002d48:	8fbe0018 	lw	s8,24(sp)
80002d4c:	27bd0020 	addiu	sp,sp,32
80002d50:	03e00008 	jr	ra
80002d54:	00000000 	nop

80002d58 <fs_read_dir>:
80002d58:	27bdffd0 	addiu	sp,sp,-48
80002d5c:	afbf002c 	sw	ra,44(sp)
80002d60:	afbe0028 	sw	s8,40(sp)
80002d64:	03a0f025 	move	s8,sp
80002d68:	afc40030 	sw	a0,48(s8)
80002d6c:	afc50034 	sw	a1,52(s8)
80002d70:	8fc20030 	lw	v0,48(s8)
80002d74:	8c430000 	lw	v1,0(v0)
80002d78:	3c028002 	lui	v0,0x8002
80002d7c:	2444ecfc 	addiu	a0,v0,-4868
80002d80:	00602825 	move	a1,v1
80002d84:	27868098 	addiu	a2,gp,-32616
80002d88:	24070004 	li	a3,4
80002d8c:	0c0020e5 	jal	80008394 <fs_read_512>
80002d90:	00000000 	nop
80002d94:	afc20018 	sw	v0,24(s8)
80002d98:	8fc30018 	lw	v1,24(s8)
80002d9c:	2402ffff 	li	v0,-1
80002da0:	14620003 	bne	v1,v0,80002db0 <fs_read_dir+0x58>
80002da4:	00000000 	nop
80002da8:	100000d5 	b	80003100 <fs_read_dir+0x3a8>
80002dac:	00000000 	nop
80002db0:	8fc20030 	lw	v0,48(s8)
80002db4:	8c420008 	lw	v0,8(v0)
80002db8:	afc20010 	sw	v0,16(s8)
80002dbc:	100000c3 	b	800030cc <fs_read_dir+0x374>
80002dc0:	00000000 	nop
80002dc4:	8fc20030 	lw	v0,48(s8)
80002dc8:	8c420004 	lw	v0,4(v0)
80002dcc:	afc20014 	sw	v0,20(s8)
80002dd0:	1000004f 	b	80002f10 <fs_read_dir+0x1b8>
80002dd4:	00000000 	nop
80002dd8:	8fc20018 	lw	v0,24(s8)
80002ddc:	000210c0 	sll	v0,v0,0x3
80002de0:	00021980 	sll	v1,v0,0x6
80002de4:	00431021 	addu	v0,v0,v1
80002de8:	3c038002 	lui	v1,0x8002
80002dec:	2463ecfc 	addiu	v1,v1,-4868
80002df0:	00431821 	addu	v1,v0,v1
80002df4:	8fc20014 	lw	v0,20(s8)
80002df8:	00621021 	addu	v0,v1,v0
80002dfc:	90420000 	lbu	v0,0(v0)
80002e00:	14400003 	bnez	v0,80002e10 <fs_read_dir+0xb8>
80002e04:	00000000 	nop
80002e08:	100000ba 	b	800030f4 <fs_read_dir+0x39c>
80002e0c:	00000000 	nop
80002e10:	8fc20018 	lw	v0,24(s8)
80002e14:	000210c0 	sll	v0,v0,0x3
80002e18:	00021980 	sll	v1,v0,0x6
80002e1c:	00431021 	addu	v0,v0,v1
80002e20:	3c038002 	lui	v1,0x8002
80002e24:	2463ecfc 	addiu	v1,v1,-4868
80002e28:	00431821 	addu	v1,v0,v1
80002e2c:	8fc20014 	lw	v0,20(s8)
80002e30:	00621021 	addu	v0,v1,v0
80002e34:	90430000 	lbu	v1,0(v0)
80002e38:	240200e5 	li	v0,229
80002e3c:	10620031 	beq	v1,v0,80002f04 <fs_read_dir+0x1ac>
80002e40:	00000000 	nop
80002e44:	8fc20018 	lw	v0,24(s8)
80002e48:	000210c0 	sll	v0,v0,0x3
80002e4c:	00021980 	sll	v1,v0,0x6
80002e50:	00431021 	addu	v0,v0,v1
80002e54:	3c038002 	lui	v1,0x8002
80002e58:	2463ecfc 	addiu	v1,v1,-4868
80002e5c:	00431821 	addu	v1,v0,v1
80002e60:	8fc20014 	lw	v0,20(s8)
80002e64:	2442000b 	addiu	v0,v0,11
80002e68:	00621021 	addu	v0,v1,v0
80002e6c:	90420000 	lbu	v0,0(v0)
80002e70:	30420008 	andi	v0,v0,0x8
80002e74:	14400023 	bnez	v0,80002f04 <fs_read_dir+0x1ac>
80002e78:	00000000 	nop
80002e7c:	8fc20014 	lw	v0,20(s8)
80002e80:	24430020 	addiu	v1,v0,32
80002e84:	8fc20030 	lw	v0,48(s8)
80002e88:	ac430004 	sw	v1,4(v0)
80002e8c:	afc0001c 	sw	zero,28(s8)
80002e90:	10000014 	b	80002ee4 <fs_read_dir+0x18c>
80002e94:	00000000 	nop
80002e98:	8fc30034 	lw	v1,52(s8)
80002e9c:	8fc2001c 	lw	v0,28(s8)
80002ea0:	00621821 	addu	v1,v1,v0
80002ea4:	8fc20018 	lw	v0,24(s8)
80002ea8:	000210c0 	sll	v0,v0,0x3
80002eac:	00022180 	sll	a0,v0,0x6
80002eb0:	00441021 	addu	v0,v0,a0
80002eb4:	3c048002 	lui	a0,0x8002
80002eb8:	2484ecfc 	addiu	a0,a0,-4868
80002ebc:	00442021 	addu	a0,v0,a0
80002ec0:	8fc50014 	lw	a1,20(s8)
80002ec4:	8fc2001c 	lw	v0,28(s8)
80002ec8:	00a21021 	addu	v0,a1,v0
80002ecc:	00821021 	addu	v0,a0,v0
80002ed0:	90420000 	lbu	v0,0(v0)
80002ed4:	a0620000 	sb	v0,0(v1)
80002ed8:	8fc2001c 	lw	v0,28(s8)
80002edc:	24420001 	addiu	v0,v0,1
80002ee0:	afc2001c 	sw	v0,28(s8)
80002ee4:	8fc2001c 	lw	v0,28(s8)
80002ee8:	2c420020 	sltiu	v0,v0,32
80002eec:	1440ffea 	bnez	v0,80002e98 <fs_read_dir+0x140>
80002ef0:	00000000 	nop
80002ef4:	00000000 	nop
80002ef8:	00001025 	move	v0,zero
80002efc:	10000081 	b	80003104 <fs_read_dir+0x3ac>
80002f00:	00000000 	nop
80002f04:	8fc20014 	lw	v0,20(s8)
80002f08:	24420020 	addiu	v0,v0,32
80002f0c:	afc20014 	sw	v0,20(s8)
80002f10:	8fc20014 	lw	v0,20(s8)
80002f14:	2c420200 	sltiu	v0,v0,512
80002f18:	1440ffaf 	bnez	v0,80002dd8 <fs_read_dir+0x80>
80002f1c:	00000000 	nop
80002f20:	3c028002 	lui	v0,0x8002
80002f24:	2442f51c 	addiu	v0,v0,-2788
80002f28:	90420025 	lbu	v0,37(v0)
80002f2c:	00401825 	move	v1,v0
80002f30:	8fc20010 	lw	v0,16(s8)
80002f34:	0043102b 	sltu	v0,v0,v1
80002f38:	10400023 	beqz	v0,80002fc8 <fs_read_dir+0x270>
80002f3c:	00000000 	nop
80002f40:	8fc20010 	lw	v0,16(s8)
80002f44:	24430001 	addiu	v1,v0,1
80002f48:	8fc20030 	lw	v0,48(s8)
80002f4c:	ac430008 	sw	v1,8(v0)
80002f50:	8fc20030 	lw	v0,48(s8)
80002f54:	ac400004 	sw	zero,4(v0)
80002f58:	3c038002 	lui	v1,0x8002
80002f5c:	8fc20018 	lw	v0,24(s8)
80002f60:	000210c0 	sll	v0,v0,0x3
80002f64:	00022180 	sll	a0,v0,0x6
80002f68:	00441021 	addu	v0,v0,a0
80002f6c:	2463ecfc 	addiu	v1,v1,-4868
80002f70:	00431021 	addu	v0,v0,v1
80002f74:	8c430200 	lw	v1,512(v0)
80002f78:	8fc20010 	lw	v0,16(s8)
80002f7c:	00621821 	addu	v1,v1,v0
80002f80:	8fc20030 	lw	v0,48(s8)
80002f84:	ac430000 	sw	v1,0(v0)
80002f88:	8fc20030 	lw	v0,48(s8)
80002f8c:	8c430000 	lw	v1,0(v0)
80002f90:	3c028002 	lui	v0,0x8002
80002f94:	2444ecfc 	addiu	a0,v0,-4868
80002f98:	00602825 	move	a1,v1
80002f9c:	27868098 	addiu	a2,gp,-32616
80002fa0:	24070004 	li	a3,4
80002fa4:	0c0020e5 	jal	80008394 <fs_read_512>
80002fa8:	00000000 	nop
80002fac:	afc20018 	sw	v0,24(s8)
80002fb0:	8fc30018 	lw	v1,24(s8)
80002fb4:	2402ffff 	li	v0,-1
80002fb8:	14620041 	bne	v1,v0,800030c0 <fs_read_dir+0x368>
80002fbc:	00000000 	nop
80002fc0:	1000004f 	b	80003100 <fs_read_dir+0x3a8>
80002fc4:	00000000 	nop
80002fc8:	3c038002 	lui	v1,0x8002
80002fcc:	8fc20018 	lw	v0,24(s8)
80002fd0:	000210c0 	sll	v0,v0,0x3
80002fd4:	00022180 	sll	a0,v0,0x6
80002fd8:	00441021 	addu	v0,v0,a0
80002fdc:	2463ecfc 	addiu	v1,v1,-4868
80002fe0:	00431021 	addu	v0,v0,v1
80002fe4:	8c420200 	lw	v0,512(v0)
80002fe8:	3c038002 	lui	v1,0x8002
80002fec:	2463f51c 	addiu	v1,v1,-2788
80002ff0:	90630025 	lbu	v1,37(v1)
80002ff4:	00431023 	subu	v0,v0,v1
80002ff8:	24430001 	addiu	v1,v0,1
80002ffc:	27c20020 	addiu	v0,s8,32
80003000:	00602025 	move	a0,v1
80003004:	00402825 	move	a1,v0
80003008:	0c001ddc 	jal	80007770 <get_fat_entry_value>
8000300c:	00000000 	nop
80003010:	00401825 	move	v1,v0
80003014:	24020001 	li	v0,1
80003018:	14620003 	bne	v1,v0,80003028 <fs_read_dir+0x2d0>
8000301c:	00000000 	nop
80003020:	10000037 	b	80003100 <fs_read_dir+0x3a8>
80003024:	00000000 	nop
80003028:	3c028002 	lui	v0,0x8002
8000302c:	2442f51c 	addiu	v0,v0,-2788
80003030:	8c42000c 	lw	v0,12(v0)
80003034:	24430001 	addiu	v1,v0,1
80003038:	8fc20020 	lw	v0,32(s8)
8000303c:	0062102b 	sltu	v0,v1,v0
80003040:	1440001d 	bnez	v0,800030b8 <fs_read_dir+0x360>
80003044:	00000000 	nop
80003048:	8fc20030 	lw	v0,48(s8)
8000304c:	24030001 	li	v1,1
80003050:	ac430008 	sw	v1,8(v0)
80003054:	8fc20030 	lw	v0,48(s8)
80003058:	ac400004 	sw	zero,4(v0)
8000305c:	8fc20020 	lw	v0,32(s8)
80003060:	00402025 	move	a0,v0
80003064:	0c001e7b 	jal	800079ec <fs_dataclus2sec>
80003068:	00000000 	nop
8000306c:	00401825 	move	v1,v0
80003070:	8fc20030 	lw	v0,48(s8)
80003074:	ac430000 	sw	v1,0(v0)
80003078:	8fc20030 	lw	v0,48(s8)
8000307c:	8c430000 	lw	v1,0(v0)
80003080:	3c028002 	lui	v0,0x8002
80003084:	2444ecfc 	addiu	a0,v0,-4868
80003088:	00602825 	move	a1,v1
8000308c:	27868098 	addiu	a2,gp,-32616
80003090:	24070004 	li	a3,4
80003094:	0c0020e5 	jal	80008394 <fs_read_512>
80003098:	00000000 	nop
8000309c:	afc20018 	sw	v0,24(s8)
800030a0:	8fc30018 	lw	v1,24(s8)
800030a4:	2402ffff 	li	v0,-1
800030a8:	14620005 	bne	v1,v0,800030c0 <fs_read_dir+0x368>
800030ac:	00000000 	nop
800030b0:	10000013 	b	80003100 <fs_read_dir+0x3a8>
800030b4:	00000000 	nop
800030b8:	1000000e 	b	800030f4 <fs_read_dir+0x39c>
800030bc:	00000000 	nop
800030c0:	8fc20010 	lw	v0,16(s8)
800030c4:	24420001 	addiu	v0,v0,1
800030c8:	afc20010 	sw	v0,16(s8)
800030cc:	3c028002 	lui	v0,0x8002
800030d0:	2442f51c 	addiu	v0,v0,-2788
800030d4:	90420025 	lbu	v0,37(v0)
800030d8:	00401825 	move	v1,v0
800030dc:	8fc20010 	lw	v0,16(s8)
800030e0:	0062102b 	sltu	v0,v1,v0
800030e4:	1040ff37 	beqz	v0,80002dc4 <fs_read_dir+0x6c>
800030e8:	00000000 	nop
800030ec:	1000ff30 	b	80002db0 <fs_read_dir+0x58>
800030f0:	00000000 	nop
800030f4:	2402ffff 	li	v0,-1
800030f8:	10000002 	b	80003104 <fs_read_dir+0x3ac>
800030fc:	00000000 	nop
80003100:	24020001 	li	v0,1
80003104:	03c0e825 	move	sp,s8
80003108:	8fbf002c 	lw	ra,44(sp)
8000310c:	8fbe0028 	lw	s8,40(sp)
80003110:	27bd0030 	addiu	sp,sp,48
80003114:	03e00008 	jr	ra
80003118:	00000000 	nop

8000311c <init_fat_info>:
8000311c:	27bdfdd0 	addiu	sp,sp,-560
80003120:	afbf022c 	sw	ra,556(sp)
80003124:	afbe0228 	sw	s8,552(sp)
80003128:	03a0f025 	move	s8,sp
8000312c:	27c20024 	addiu	v0,s8,36
80003130:	00402025 	move	a0,v0
80003134:	00002825 	move	a1,zero
80003138:	24060200 	li	a2,512
8000313c:	0c005d92 	jal	80017648 <kernel_memset>
80003140:	00000000 	nop
80003144:	3c028002 	lui	v0,0x8002
80003148:	2444f51c 	addiu	a0,v0,-2788
8000314c:	00002825 	move	a1,zero
80003150:	24060418 	li	a2,1048
80003154:	0c005d92 	jal	80017648 <kernel_memset>
80003158:	00000000 	nop
8000315c:	27c20024 	addiu	v0,s8,36
80003160:	00402025 	move	a0,v0
80003164:	00002825 	move	a1,zero
80003168:	24060001 	li	a2,1
8000316c:	0c001d11 	jal	80007444 <read_block>
80003170:	00000000 	nop
80003174:	00401825 	move	v1,v0
80003178:	24020001 	li	v0,1
8000317c:	14620003 	bne	v1,v0,8000318c <init_fat_info+0x70>
80003180:	00000000 	nop
80003184:	100000a9 	b	8000342c <init_fat_info+0x310>
80003188:	00000000 	nop
8000318c:	00002025 	move	a0,zero
80003190:	3c028001 	lui	v0,0x8001
80003194:	24457dc4 	addiu	a1,v0,32196
80003198:	0c005c6a 	jal	800171a8 <log>
8000319c:	00000000 	nop
800031a0:	27c20024 	addiu	v0,s8,36
800031a4:	244201c6 	addiu	v0,v0,454
800031a8:	00402025 	move	a0,v0
800031ac:	0c001d49 	jal	80007524 <get_uint32_t>
800031b0:	00000000 	nop
800031b4:	00401825 	move	v1,v0
800031b8:	3c028002 	lui	v0,0x8002
800031bc:	ac43f51c 	sw	v1,-2788(v0)
800031c0:	3c028002 	lui	v0,0x8002
800031c4:	8c43f51c 	lw	v1,-2788(v0)
800031c8:	3c028002 	lui	v0,0x8002
800031cc:	2444f534 	addiu	a0,v0,-2764
800031d0:	00602825 	move	a1,v1
800031d4:	24060001 	li	a2,1
800031d8:	0c001d11 	jal	80007444 <read_block>
800031dc:	00000000 	nop
800031e0:	00401825 	move	v1,v0
800031e4:	24020001 	li	v0,1
800031e8:	14620003 	bne	v1,v0,800031f8 <init_fat_info+0xdc>
800031ec:	00000000 	nop
800031f0:	1000008e 	b	8000342c <init_fat_info+0x310>
800031f4:	00000000 	nop
800031f8:	00002025 	move	a0,zero
800031fc:	3c028001 	lui	v0,0x8001
80003200:	24457dd8 	addiu	a1,v0,32216
80003204:	0c005c6a 	jal	800171a8 <log>
80003208:	00000000 	nop
8000320c:	3c028002 	lui	v0,0x8002
80003210:	2443f51c 	addiu	v1,v0,-2788
80003214:	8c630020 	lw	v1,32(v1)
80003218:	00031e02 	srl	v1,v1,0x18
8000321c:	2442f51c 	addiu	v0,v0,-2788
80003220:	8c420024 	lw	v0,36(v0)
80003224:	304200ff 	andi	v0,v0,0xff
80003228:	00021200 	sll	v0,v0,0x8
8000322c:	00431025 	or	v0,v0,v1
80003230:	3043ffff 	andi	v1,v0,0xffff
80003234:	24020200 	li	v0,512
80003238:	10620015 	beq	v1,v0,80003290 <init_fat_info+0x174>
8000323c:	00000000 	nop
80003240:	3c028002 	lui	v0,0x8002
80003244:	2443f51c 	addiu	v1,v0,-2788
80003248:	8c630020 	lw	v1,32(v1)
8000324c:	00031e02 	srl	v1,v1,0x18
80003250:	2442f51c 	addiu	v0,v0,-2788
80003254:	8c420024 	lw	v0,36(v0)
80003258:	304200ff 	andi	v0,v0,0xff
8000325c:	00021200 	sll	v0,v0,0x8
80003260:	00431025 	or	v0,v0,v1
80003264:	3042ffff 	andi	v0,v0,0xffff
80003268:	00401825 	move	v1,v0
8000326c:	24040001 	li	a0,1
80003270:	3c028001 	lui	v0,0x8001
80003274:	24457de4 	addiu	a1,v0,32228
80003278:	24060200 	li	a2,512
8000327c:	00603825 	move	a3,v1
80003280:	0c005c6a 	jal	800171a8 <log>
80003284:	00000000 	nop
80003288:	10000068 	b	8000342c <init_fat_info+0x310>
8000328c:	00000000 	nop
80003290:	3c028002 	lui	v0,0x8002
80003294:	2442f51c 	addiu	v0,v0,-2788
80003298:	8c420028 	lw	v0,40(v0)
8000329c:	00021202 	srl	v0,v0,0x8
800032a0:	00401825 	move	v1,v0
800032a4:	2402ffff 	li	v0,-1
800032a8:	00621024 	and	v0,v1,v0
800032ac:	3042ffff 	andi	v0,v0,0xffff
800032b0:	10400003 	beqz	v0,800032c0 <init_fat_info+0x1a4>
800032b4:	00000000 	nop
800032b8:	1000005c 	b	8000342c <init_fat_info+0x310>
800032bc:	00000000 	nop
800032c0:	3c028002 	lui	v0,0x8002
800032c4:	2442f51c 	addiu	v0,v0,-2788
800032c8:	9442002e 	lhu	v0,46(v0)
800032cc:	10400003 	beqz	v0,800032dc <init_fat_info+0x1c0>
800032d0:	00000000 	nop
800032d4:	10000055 	b	8000342c <init_fat_info+0x310>
800032d8:	00000000 	nop
800032dc:	3c028002 	lui	v0,0x8002
800032e0:	2443f51c 	addiu	v1,v0,-2788
800032e4:	8c630028 	lw	v1,40(v1)
800032e8:	00031e02 	srl	v1,v1,0x18
800032ec:	2442f51c 	addiu	v0,v0,-2788
800032f0:	8c42002c 	lw	v0,44(v0)
800032f4:	304200ff 	andi	v0,v0,0xff
800032f8:	00021200 	sll	v0,v0,0x8
800032fc:	00431025 	or	v0,v0,v1
80003300:	3042ffff 	andi	v0,v0,0xffff
80003304:	10400003 	beqz	v0,80003314 <init_fat_info+0x1f8>
80003308:	00000000 	nop
8000330c:	10000047 	b	8000342c <init_fat_info+0x310>
80003310:	00000000 	nop
80003314:	3c028002 	lui	v0,0x8002
80003318:	2442f51c 	addiu	v0,v0,-2788
8000331c:	8c420038 	lw	v0,56(v0)
80003320:	afc20010 	sw	v0,16(s8)
80003324:	3c028002 	lui	v0,0x8002
80003328:	2442f51c 	addiu	v0,v0,-2788
8000332c:	94420026 	lhu	v0,38(v0)
80003330:	afc20014 	sw	v0,20(s8)
80003334:	3c028002 	lui	v0,0x8002
80003338:	2442f51c 	addiu	v0,v0,-2788
8000333c:	8c42003c 	lw	v0,60(v0)
80003340:	afc20018 	sw	v0,24(s8)
80003344:	8fc30010 	lw	v1,16(s8)
80003348:	8fc20014 	lw	v0,20(s8)
8000334c:	00621823 	subu	v1,v1,v0
80003350:	8fc20018 	lw	v0,24(s8)
80003354:	00021040 	sll	v0,v0,0x1
80003358:	00621023 	subu	v0,v1,v0
8000335c:	afc2001c 	sw	v0,28(s8)
80003360:	3c028002 	lui	v0,0x8002
80003364:	2442f51c 	addiu	v0,v0,-2788
80003368:	90420025 	lbu	v0,37(v0)
8000336c:	a3c20020 	sb	v0,32(s8)
80003370:	93c20020 	lbu	v0,32(s8)
80003374:	8fc3001c 	lw	v1,28(s8)
80003378:	0062001b 	divu	zero,v1,v0
8000337c:	004001f4 	teq	v0,zero,0x7
80003380:	00001010 	mfhi	v0
80003384:	00001812 	mflo	v1
80003388:	3c028002 	lui	v0,0x8002
8000338c:	2442f51c 	addiu	v0,v0,-2788
80003390:	ac43000c 	sw	v1,12(v0)
80003394:	3c028002 	lui	v0,0x8002
80003398:	2442f51c 	addiu	v0,v0,-2788
8000339c:	8c43000c 	lw	v1,12(v0)
800033a0:	3402fff5 	li	v0,0xfff5
800033a4:	0062102b 	sltu	v0,v1,v0
800033a8:	10400003 	beqz	v0,800033b8 <init_fat_info+0x29c>
800033ac:	00000000 	nop
800033b0:	1000001e 	b	8000342c <init_fat_info+0x310>
800033b4:	00000000 	nop
800033b8:	8fc20018 	lw	v0,24(s8)
800033bc:	00021840 	sll	v1,v0,0x1
800033c0:	8fc20014 	lw	v0,20(s8)
800033c4:	00621821 	addu	v1,v1,v0
800033c8:	3c028002 	lui	v0,0x8002
800033cc:	2442f51c 	addiu	v0,v0,-2788
800033d0:	ac430014 	sw	v1,20(v0)
800033d4:	00002025 	move	a0,zero
800033d8:	3c028001 	lui	v0,0x8001
800033dc:	24457e1c 	addiu	a1,v0,32284
800033e0:	0c005c6a 	jal	800171a8 <log>
800033e4:	00000000 	nop
800033e8:	3c028002 	lui	v0,0x8002
800033ec:	8c42f51c 	lw	v0,-2788(v0)
800033f0:	24430001 	addiu	v1,v0,1
800033f4:	3c028002 	lui	v0,0x8002
800033f8:	2444f734 	addiu	a0,v0,-2252
800033fc:	00602825 	move	a1,v1
80003400:	24060001 	li	a2,1
80003404:	0c001d11 	jal	80007444 <read_block>
80003408:	00000000 	nop
8000340c:	00002025 	move	a0,zero
80003410:	3c028001 	lui	v0,0x8001
80003414:	24457e40 	addiu	a1,v0,32320
80003418:	0c005c6a 	jal	800171a8 <log>
8000341c:	00000000 	nop
80003420:	00001025 	move	v0,zero
80003424:	10000002 	b	80003430 <init_fat_info+0x314>
80003428:	00000000 	nop
8000342c:	24020001 	li	v0,1
80003430:	03c0e825 	move	sp,s8
80003434:	8fbf022c 	lw	ra,556(sp)
80003438:	8fbe0228 	lw	s8,552(sp)
8000343c:	27bd0230 	addiu	sp,sp,560
80003440:	03e00008 	jr	ra
80003444:	00000000 	nop

80003448 <init_fat_buf>:
80003448:	27bdfff0 	addiu	sp,sp,-16
8000344c:	afbe000c 	sw	s8,12(sp)
80003450:	03a0f025 	move	s8,sp
80003454:	afc00000 	sw	zero,0(s8)
80003458:	afc00000 	sw	zero,0(s8)
8000345c:	10000015 	b	800034b4 <init_fat_buf+0x6c>
80003460:	00000000 	nop
80003464:	3c038002 	lui	v1,0x8002
80003468:	8fc20000 	lw	v0,0(s8)
8000346c:	000210c0 	sll	v0,v0,0x3
80003470:	00022180 	sll	a0,v0,0x6
80003474:	00441021 	addu	v0,v0,a0
80003478:	24630944 	addiu	v1,v1,2372
8000347c:	00431021 	addu	v0,v0,v1
80003480:	2403ffff 	li	v1,-1
80003484:	ac430200 	sw	v1,512(v0)
80003488:	3c038002 	lui	v1,0x8002
8000348c:	8fc20000 	lw	v0,0(s8)
80003490:	000210c0 	sll	v0,v0,0x3
80003494:	00022180 	sll	a0,v0,0x6
80003498:	00441021 	addu	v0,v0,a0
8000349c:	24630944 	addiu	v1,v1,2372
800034a0:	00431021 	addu	v0,v0,v1
800034a4:	ac400204 	sw	zero,516(v0)
800034a8:	8fc20000 	lw	v0,0(s8)
800034ac:	24420001 	addiu	v0,v0,1
800034b0:	afc20000 	sw	v0,0(s8)
800034b4:	8fc20000 	lw	v0,0(s8)
800034b8:	28420002 	slti	v0,v0,2
800034bc:	1440ffe9 	bnez	v0,80003464 <init_fat_buf+0x1c>
800034c0:	00000000 	nop
800034c4:	03c0e825 	move	sp,s8
800034c8:	8fbe000c 	lw	s8,12(sp)
800034cc:	27bd0010 	addiu	sp,sp,16
800034d0:	03e00008 	jr	ra
800034d4:	00000000 	nop

800034d8 <init_dir_buf>:
800034d8:	27bdfff0 	addiu	sp,sp,-16
800034dc:	afbe000c 	sw	s8,12(sp)
800034e0:	03a0f025 	move	s8,sp
800034e4:	afc00000 	sw	zero,0(s8)
800034e8:	afc00000 	sw	zero,0(s8)
800034ec:	10000015 	b	80003544 <init_dir_buf+0x6c>
800034f0:	00000000 	nop
800034f4:	3c038002 	lui	v1,0x8002
800034f8:	8fc20000 	lw	v0,0(s8)
800034fc:	000210c0 	sll	v0,v0,0x3
80003500:	00022180 	sll	a0,v0,0x6
80003504:	00441021 	addu	v0,v0,a0
80003508:	2463ecfc 	addiu	v1,v1,-4868
8000350c:	00431021 	addu	v0,v0,v1
80003510:	2403ffff 	li	v1,-1
80003514:	ac430200 	sw	v1,512(v0)
80003518:	3c038002 	lui	v1,0x8002
8000351c:	8fc20000 	lw	v0,0(s8)
80003520:	000210c0 	sll	v0,v0,0x3
80003524:	00022180 	sll	a0,v0,0x6
80003528:	00441021 	addu	v0,v0,a0
8000352c:	2463ecfc 	addiu	v1,v1,-4868
80003530:	00431021 	addu	v0,v0,v1
80003534:	ac400204 	sw	zero,516(v0)
80003538:	8fc20000 	lw	v0,0(s8)
8000353c:	24420001 	addiu	v0,v0,1
80003540:	afc20000 	sw	v0,0(s8)
80003544:	8fc20000 	lw	v0,0(s8)
80003548:	28420004 	slti	v0,v0,4
8000354c:	1440ffe9 	bnez	v0,800034f4 <init_dir_buf+0x1c>
80003550:	00000000 	nop
80003554:	03c0e825 	move	sp,s8
80003558:	8fbe000c 	lw	s8,12(sp)
8000355c:	27bd0010 	addiu	sp,sp,16
80003560:	03e00008 	jr	ra
80003564:	00000000 	nop

80003568 <init_fs>:
80003568:	27bdffe0 	addiu	sp,sp,-32
8000356c:	afbf001c 	sw	ra,28(sp)
80003570:	afbe0018 	sw	s8,24(sp)
80003574:	03a0f025 	move	s8,sp
80003578:	0c000c47 	jal	8000311c <init_fat_info>
8000357c:	00000000 	nop
80003580:	afc20010 	sw	v0,16(s8)
80003584:	8fc20010 	lw	v0,16(s8)
80003588:	1040000a 	beqz	v0,800035b4 <init_fs+0x4c>
8000358c:	00000000 	nop
80003590:	00000000 	nop
80003594:	24040001 	li	a0,1
80003598:	3c028001 	lui	v0,0x8001
8000359c:	24457e54 	addiu	a1,v0,32340
800035a0:	0c005c6a 	jal	800171a8 <log>
800035a4:	00000000 	nop
800035a8:	24020001 	li	v0,1
800035ac:	10000006 	b	800035c8 <init_fs+0x60>
800035b0:	00000000 	nop
800035b4:	0c000d12 	jal	80003448 <init_fat_buf>
800035b8:	00000000 	nop
800035bc:	0c000d36 	jal	800034d8 <init_dir_buf>
800035c0:	00000000 	nop
800035c4:	00001025 	move	v0,zero
800035c8:	03c0e825 	move	sp,s8
800035cc:	8fbf001c 	lw	ra,28(sp)
800035d0:	8fbe0018 	lw	s8,24(sp)
800035d4:	27bd0020 	addiu	sp,sp,32
800035d8:	03e00008 	jr	ra
800035dc:	00000000 	nop

800035e0 <write_fat_sector>:
800035e0:	27bdffe8 	addiu	sp,sp,-24
800035e4:	afbf0014 	sw	ra,20(sp)
800035e8:	afbe0010 	sw	s8,16(sp)
800035ec:	03a0f025 	move	s8,sp
800035f0:	afc40018 	sw	a0,24(s8)
800035f4:	3c038002 	lui	v1,0x8002
800035f8:	8fc20018 	lw	v0,24(s8)
800035fc:	000210c0 	sll	v0,v0,0x3
80003600:	00022180 	sll	a0,v0,0x6
80003604:	00441021 	addu	v0,v0,a0
80003608:	24630944 	addiu	v1,v1,2372
8000360c:	00431021 	addu	v0,v0,v1
80003610:	8c430200 	lw	v1,512(v0)
80003614:	2402ffff 	li	v0,-1
80003618:	10620055 	beq	v1,v0,80003770 <write_fat_sector+0x190>
8000361c:	00000000 	nop
80003620:	3c038002 	lui	v1,0x8002
80003624:	8fc20018 	lw	v0,24(s8)
80003628:	000210c0 	sll	v0,v0,0x3
8000362c:	00022180 	sll	a0,v0,0x6
80003630:	00441021 	addu	v0,v0,a0
80003634:	24630944 	addiu	v1,v1,2372
80003638:	00431021 	addu	v0,v0,v1
8000363c:	8c420204 	lw	v0,516(v0)
80003640:	30420002 	andi	v0,v0,0x2
80003644:	1040004a 	beqz	v0,80003770 <write_fat_sector+0x190>
80003648:	00000000 	nop
8000364c:	8fc20018 	lw	v0,24(s8)
80003650:	000210c0 	sll	v0,v0,0x3
80003654:	00021980 	sll	v1,v0,0x6
80003658:	00431021 	addu	v0,v0,v1
8000365c:	3c038002 	lui	v1,0x8002
80003660:	24630944 	addiu	v1,v1,2372
80003664:	00432821 	addu	a1,v0,v1
80003668:	3c038002 	lui	v1,0x8002
8000366c:	8fc20018 	lw	v0,24(s8)
80003670:	000210c0 	sll	v0,v0,0x3
80003674:	00022180 	sll	a0,v0,0x6
80003678:	00441021 	addu	v0,v0,a0
8000367c:	24630944 	addiu	v1,v1,2372
80003680:	00431021 	addu	v0,v0,v1
80003684:	8c420200 	lw	v0,512(v0)
80003688:	00a02025 	move	a0,a1
8000368c:	00402825 	move	a1,v0
80003690:	24060001 	li	a2,1
80003694:	0c001d23 	jal	8000748c <write_block>
80003698:	00000000 	nop
8000369c:	00401825 	move	v1,v0
800036a0:	24020001 	li	v0,1
800036a4:	14620003 	bne	v1,v0,800036b4 <write_fat_sector+0xd4>
800036a8:	00000000 	nop
800036ac:	10000033 	b	8000377c <write_fat_sector+0x19c>
800036b0:	00000000 	nop
800036b4:	8fc20018 	lw	v0,24(s8)
800036b8:	000210c0 	sll	v0,v0,0x3
800036bc:	00021980 	sll	v1,v0,0x6
800036c0:	00431021 	addu	v0,v0,v1
800036c4:	3c038002 	lui	v1,0x8002
800036c8:	24630944 	addiu	v1,v1,2372
800036cc:	00433021 	addu	a2,v0,v1
800036d0:	3c028002 	lui	v0,0x8002
800036d4:	2442f51c 	addiu	v0,v0,-2788
800036d8:	8c43003c 	lw	v1,60(v0)
800036dc:	3c048002 	lui	a0,0x8002
800036e0:	8fc20018 	lw	v0,24(s8)
800036e4:	000210c0 	sll	v0,v0,0x3
800036e8:	00022980 	sll	a1,v0,0x6
800036ec:	00451021 	addu	v0,v0,a1
800036f0:	24840944 	addiu	a0,a0,2372
800036f4:	00441021 	addu	v0,v0,a0
800036f8:	8c420200 	lw	v0,512(v0)
800036fc:	00621021 	addu	v0,v1,v0
80003700:	00c02025 	move	a0,a2
80003704:	00402825 	move	a1,v0
80003708:	24060001 	li	a2,1
8000370c:	0c001d23 	jal	8000748c <write_block>
80003710:	00000000 	nop
80003714:	00401825 	move	v1,v0
80003718:	24020001 	li	v0,1
8000371c:	14620003 	bne	v1,v0,8000372c <write_fat_sector+0x14c>
80003720:	00000000 	nop
80003724:	10000015 	b	8000377c <write_fat_sector+0x19c>
80003728:	00000000 	nop
8000372c:	3c038002 	lui	v1,0x8002
80003730:	8fc20018 	lw	v0,24(s8)
80003734:	000210c0 	sll	v0,v0,0x3
80003738:	00022180 	sll	a0,v0,0x6
8000373c:	00441021 	addu	v0,v0,a0
80003740:	24630944 	addiu	v1,v1,2372
80003744:	00431021 	addu	v0,v0,v1
80003748:	8c420204 	lw	v0,516(v0)
8000374c:	30430001 	andi	v1,v0,0x1
80003750:	3c048002 	lui	a0,0x8002
80003754:	8fc20018 	lw	v0,24(s8)
80003758:	000210c0 	sll	v0,v0,0x3
8000375c:	00022980 	sll	a1,v0,0x6
80003760:	00451021 	addu	v0,v0,a1
80003764:	24840944 	addiu	a0,a0,2372
80003768:	00441021 	addu	v0,v0,a0
8000376c:	ac430204 	sw	v1,516(v0)
80003770:	00001025 	move	v0,zero
80003774:	10000002 	b	80003780 <write_fat_sector+0x1a0>
80003778:	00000000 	nop
8000377c:	24020001 	li	v0,1
80003780:	03c0e825 	move	sp,s8
80003784:	8fbf0014 	lw	ra,20(sp)
80003788:	8fbe0010 	lw	s8,16(sp)
8000378c:	27bd0018 	addiu	sp,sp,24
80003790:	03e00008 	jr	ra
80003794:	00000000 	nop

80003798 <read_fat_sector>:
80003798:	27bdffe0 	addiu	sp,sp,-32
8000379c:	afbf001c 	sw	ra,28(sp)
800037a0:	afbe0018 	sw	s8,24(sp)
800037a4:	03a0f025 	move	s8,sp
800037a8:	afc40020 	sw	a0,32(s8)
800037ac:	afc00010 	sw	zero,16(s8)
800037b0:	10000004 	b	800037c4 <read_fat_sector+0x2c>
800037b4:	00000000 	nop
800037b8:	8fc20010 	lw	v0,16(s8)
800037bc:	24420001 	addiu	v0,v0,1
800037c0:	afc20010 	sw	v0,16(s8)
800037c4:	8fc20010 	lw	v0,16(s8)
800037c8:	2c420002 	sltiu	v0,v0,2
800037cc:	1040000c 	beqz	v0,80003800 <read_fat_sector+0x68>
800037d0:	00000000 	nop
800037d4:	3c038002 	lui	v1,0x8002
800037d8:	8fc20010 	lw	v0,16(s8)
800037dc:	000210c0 	sll	v0,v0,0x3
800037e0:	00022180 	sll	a0,v0,0x6
800037e4:	00441021 	addu	v0,v0,a0
800037e8:	24630944 	addiu	v1,v1,2372
800037ec:	00431021 	addu	v0,v0,v1
800037f0:	8c430200 	lw	v1,512(v0)
800037f4:	8fc20020 	lw	v0,32(s8)
800037f8:	1462ffef 	bne	v1,v0,800037b8 <read_fat_sector+0x20>
800037fc:	00000000 	nop
80003800:	8fc30010 	lw	v1,16(s8)
80003804:	24020002 	li	v0,2
80003808:	14620037 	bne	v1,v0,800038e8 <read_fat_sector+0x150>
8000380c:	00000000 	nop
80003810:	3c028002 	lui	v0,0x8002
80003814:	24440944 	addiu	a0,v0,2372
80003818:	27858094 	addiu	a1,gp,-32620
8000381c:	24060002 	li	a2,2
80003820:	0c00202f 	jal	800080bc <fs_victim_512>
80003824:	00000000 	nop
80003828:	afc20010 	sw	v0,16(s8)
8000382c:	8fc40010 	lw	a0,16(s8)
80003830:	0c000d78 	jal	800035e0 <write_fat_sector>
80003834:	00000000 	nop
80003838:	00401825 	move	v1,v0
8000383c:	24020001 	li	v0,1
80003840:	14620003 	bne	v1,v0,80003850 <read_fat_sector+0xb8>
80003844:	00000000 	nop
80003848:	1000003b 	b	80003938 <read_fat_sector+0x1a0>
8000384c:	00000000 	nop
80003850:	8fc20010 	lw	v0,16(s8)
80003854:	000210c0 	sll	v0,v0,0x3
80003858:	00021980 	sll	v1,v0,0x6
8000385c:	00431021 	addu	v0,v0,v1
80003860:	3c038002 	lui	v1,0x8002
80003864:	24630944 	addiu	v1,v1,2372
80003868:	00431021 	addu	v0,v0,v1
8000386c:	00402025 	move	a0,v0
80003870:	8fc50020 	lw	a1,32(s8)
80003874:	24060001 	li	a2,1
80003878:	0c001d11 	jal	80007444 <read_block>
8000387c:	00000000 	nop
80003880:	00401825 	move	v1,v0
80003884:	24020001 	li	v0,1
80003888:	14620003 	bne	v1,v0,80003898 <read_fat_sector+0x100>
8000388c:	00000000 	nop
80003890:	10000029 	b	80003938 <read_fat_sector+0x1a0>
80003894:	00000000 	nop
80003898:	3c038002 	lui	v1,0x8002
8000389c:	8fc20010 	lw	v0,16(s8)
800038a0:	000210c0 	sll	v0,v0,0x3
800038a4:	00022180 	sll	a0,v0,0x6
800038a8:	00441021 	addu	v0,v0,a0
800038ac:	24630944 	addiu	v1,v1,2372
800038b0:	00431021 	addu	v0,v0,v1
800038b4:	8fc30020 	lw	v1,32(s8)
800038b8:	ac430200 	sw	v1,512(v0)
800038bc:	3c038002 	lui	v1,0x8002
800038c0:	8fc20010 	lw	v0,16(s8)
800038c4:	000210c0 	sll	v0,v0,0x3
800038c8:	00022180 	sll	a0,v0,0x6
800038cc:	00441021 	addu	v0,v0,a0
800038d0:	24630944 	addiu	v1,v1,2372
800038d4:	00431021 	addu	v0,v0,v1
800038d8:	24030001 	li	v1,1
800038dc:	ac430204 	sw	v1,516(v0)
800038e0:	10000012 	b	8000392c <read_fat_sector+0x194>
800038e4:	00000000 	nop
800038e8:	3c038002 	lui	v1,0x8002
800038ec:	8fc20010 	lw	v0,16(s8)
800038f0:	000210c0 	sll	v0,v0,0x3
800038f4:	00022180 	sll	a0,v0,0x6
800038f8:	00441021 	addu	v0,v0,a0
800038fc:	24630944 	addiu	v1,v1,2372
80003900:	00431021 	addu	v0,v0,v1
80003904:	8c420204 	lw	v0,516(v0)
80003908:	34430001 	ori	v1,v0,0x1
8000390c:	3c048002 	lui	a0,0x8002
80003910:	8fc20010 	lw	v0,16(s8)
80003914:	000210c0 	sll	v0,v0,0x3
80003918:	00022980 	sll	a1,v0,0x6
8000391c:	00451021 	addu	v0,v0,a1
80003920:	24840944 	addiu	a0,a0,2372
80003924:	00441021 	addu	v0,v0,a0
80003928:	ac430204 	sw	v1,516(v0)
8000392c:	8fc20010 	lw	v0,16(s8)
80003930:	10000002 	b	8000393c <read_fat_sector+0x1a4>
80003934:	00000000 	nop
80003938:	2402ffff 	li	v0,-1
8000393c:	03c0e825 	move	sp,s8
80003940:	8fbf001c 	lw	ra,28(sp)
80003944:	8fbe0018 	lw	s8,24(sp)
80003948:	27bd0020 	addiu	sp,sp,32
8000394c:	03e00008 	jr	ra
80003950:	00000000 	nop

80003954 <fs_next_slash>:
80003954:	27bdffd8 	addiu	sp,sp,-40
80003958:	afbe0024 	sw	s8,36(sp)
8000395c:	03a0f025 	move	s8,sp
80003960:	afc40028 	sw	a0,40(s8)
80003964:	afc00000 	sw	zero,0(s8)
80003968:	10000004 	b	8000397c <fs_next_slash+0x28>
8000396c:	00000000 	nop
80003970:	8fc20000 	lw	v0,0(s8)
80003974:	24420001 	addiu	v0,v0,1
80003978:	afc20000 	sw	v0,0(s8)
8000397c:	8fc30028 	lw	v1,40(s8)
80003980:	8fc20000 	lw	v0,0(s8)
80003984:	00621021 	addu	v0,v1,v0
80003988:	90420000 	lbu	v0,0(v0)
8000398c:	10400008 	beqz	v0,800039b0 <fs_next_slash+0x5c>
80003990:	00000000 	nop
80003994:	8fc30028 	lw	v1,40(s8)
80003998:	8fc20000 	lw	v0,0(s8)
8000399c:	00621021 	addu	v0,v1,v0
800039a0:	90430000 	lbu	v1,0(v0)
800039a4:	2402002f 	li	v0,47
800039a8:	1462fff1 	bne	v1,v0,80003970 <fs_next_slash+0x1c>
800039ac:	00000000 	nop
800039b0:	afc00004 	sw	zero,4(s8)
800039b4:	1000000d 	b	800039ec <fs_next_slash+0x98>
800039b8:	00000000 	nop
800039bc:	8fc20004 	lw	v0,4(s8)
800039c0:	03c21021 	addu	v0,s8,v0
800039c4:	a040000c 	sb	zero,12(v0)
800039c8:	3c028002 	lui	v0,0x8002
800039cc:	2443f934 	addiu	v1,v0,-1740
800039d0:	8fc20004 	lw	v0,4(s8)
800039d4:	00621021 	addu	v0,v1,v0
800039d8:	24030020 	li	v1,32
800039dc:	a0430000 	sb	v1,0(v0)
800039e0:	8fc20004 	lw	v0,4(s8)
800039e4:	24420001 	addiu	v0,v0,1
800039e8:	afc20004 	sw	v0,4(s8)
800039ec:	8fc20004 	lw	v0,4(s8)
800039f0:	2c42000c 	sltiu	v0,v0,12
800039f4:	1440fff1 	bnez	v0,800039bc <fs_next_slash+0x68>
800039f8:	00000000 	nop
800039fc:	afc00004 	sw	zero,4(s8)
80003a00:	1000001f 	b	80003a80 <fs_next_slash+0x12c>
80003a04:	00000000 	nop
80003a08:	8fc30028 	lw	v1,40(s8)
80003a0c:	8fc20004 	lw	v0,4(s8)
80003a10:	00621021 	addu	v0,v1,v0
80003a14:	90430000 	lbu	v1,0(v0)
80003a18:	8fc20004 	lw	v0,4(s8)
80003a1c:	03c21021 	addu	v0,s8,v0
80003a20:	a043000c 	sb	v1,12(v0)
80003a24:	8fc20004 	lw	v0,4(s8)
80003a28:	03c21021 	addu	v0,s8,v0
80003a2c:	9042000c 	lbu	v0,12(v0)
80003a30:	2c420061 	sltiu	v0,v0,97
80003a34:	1440000f 	bnez	v0,80003a74 <fs_next_slash+0x120>
80003a38:	00000000 	nop
80003a3c:	8fc20004 	lw	v0,4(s8)
80003a40:	03c21021 	addu	v0,s8,v0
80003a44:	9042000c 	lbu	v0,12(v0)
80003a48:	2c42007b 	sltiu	v0,v0,123
80003a4c:	10400009 	beqz	v0,80003a74 <fs_next_slash+0x120>
80003a50:	00000000 	nop
80003a54:	8fc20004 	lw	v0,4(s8)
80003a58:	03c21021 	addu	v0,s8,v0
80003a5c:	9042000c 	lbu	v0,12(v0)
80003a60:	2442ffe0 	addiu	v0,v0,-32
80003a64:	304300ff 	andi	v1,v0,0xff
80003a68:	8fc20004 	lw	v0,4(s8)
80003a6c:	03c21021 	addu	v0,s8,v0
80003a70:	a043000c 	sb	v1,12(v0)
80003a74:	8fc20004 	lw	v0,4(s8)
80003a78:	24420001 	addiu	v0,v0,1
80003a7c:	afc20004 	sw	v0,4(s8)
80003a80:	8fc20004 	lw	v0,4(s8)
80003a84:	2c42000c 	sltiu	v0,v0,12
80003a88:	10400006 	beqz	v0,80003aa4 <fs_next_slash+0x150>
80003a8c:	00000000 	nop
80003a90:	8fc30004 	lw	v1,4(s8)
80003a94:	8fc20000 	lw	v0,0(s8)
80003a98:	0062102b 	sltu	v0,v1,v0
80003a9c:	1440ffda 	bnez	v0,80003a08 <fs_next_slash+0xb4>
80003aa0:	00000000 	nop
80003aa4:	a3c00018 	sb	zero,24(s8)
80003aa8:	afc00004 	sw	zero,4(s8)
80003aac:	10000014 	b	80003b00 <fs_next_slash+0x1ac>
80003ab0:	00000000 	nop
80003ab4:	8fc20004 	lw	v0,4(s8)
80003ab8:	03c21021 	addu	v0,s8,v0
80003abc:	9043000c 	lbu	v1,12(v0)
80003ac0:	2402002e 	li	v0,46
80003ac4:	14620003 	bne	v1,v0,80003ad4 <fs_next_slash+0x180>
80003ac8:	00000000 	nop
80003acc:	10000015 	b	80003b24 <fs_next_slash+0x1d0>
80003ad0:	00000000 	nop
80003ad4:	8fc20004 	lw	v0,4(s8)
80003ad8:	03c21021 	addu	v0,s8,v0
80003adc:	9043000c 	lbu	v1,12(v0)
80003ae0:	3c028002 	lui	v0,0x8002
80003ae4:	2444f934 	addiu	a0,v0,-1740
80003ae8:	8fc20004 	lw	v0,4(s8)
80003aec:	00821021 	addu	v0,a0,v0
80003af0:	a0430000 	sb	v1,0(v0)
80003af4:	8fc20004 	lw	v0,4(s8)
80003af8:	24420001 	addiu	v0,v0,1
80003afc:	afc20004 	sw	v0,4(s8)
80003b00:	8fc20004 	lw	v0,4(s8)
80003b04:	03c21021 	addu	v0,s8,v0
80003b08:	9042000c 	lbu	v0,12(v0)
80003b0c:	10400005 	beqz	v0,80003b24 <fs_next_slash+0x1d0>
80003b10:	00000000 	nop
80003b14:	8fc20004 	lw	v0,4(s8)
80003b18:	2c42000c 	sltiu	v0,v0,12
80003b1c:	1440ffe5 	bnez	v0,80003ab4 <fs_next_slash+0x160>
80003b20:	00000000 	nop
80003b24:	8fc20004 	lw	v0,4(s8)
80003b28:	03c21021 	addu	v0,s8,v0
80003b2c:	9043000c 	lbu	v1,12(v0)
80003b30:	2402002e 	li	v0,46
80003b34:	14620023 	bne	v1,v0,80003bc4 <fs_next_slash+0x270>
80003b38:	00000000 	nop
80003b3c:	8fc20004 	lw	v0,4(s8)
80003b40:	24420001 	addiu	v0,v0,1
80003b44:	afc20004 	sw	v0,4(s8)
80003b48:	24020008 	li	v0,8
80003b4c:	afc20008 	sw	v0,8(s8)
80003b50:	1000000f 	b	80003b90 <fs_next_slash+0x23c>
80003b54:	00000000 	nop
80003b58:	8fc20004 	lw	v0,4(s8)
80003b5c:	03c21021 	addu	v0,s8,v0
80003b60:	9043000c 	lbu	v1,12(v0)
80003b64:	3c028002 	lui	v0,0x8002
80003b68:	2444f934 	addiu	a0,v0,-1740
80003b6c:	8fc20008 	lw	v0,8(s8)
80003b70:	00821021 	addu	v0,a0,v0
80003b74:	a0430000 	sb	v1,0(v0)
80003b78:	8fc20004 	lw	v0,4(s8)
80003b7c:	24420001 	addiu	v0,v0,1
80003b80:	afc20004 	sw	v0,4(s8)
80003b84:	8fc20008 	lw	v0,8(s8)
80003b88:	24420001 	addiu	v0,v0,1
80003b8c:	afc20008 	sw	v0,8(s8)
80003b90:	8fc20004 	lw	v0,4(s8)
80003b94:	03c21021 	addu	v0,s8,v0
80003b98:	9042000c 	lbu	v0,12(v0)
80003b9c:	10400009 	beqz	v0,80003bc4 <fs_next_slash+0x270>
80003ba0:	00000000 	nop
80003ba4:	8fc20004 	lw	v0,4(s8)
80003ba8:	2c42000c 	sltiu	v0,v0,12
80003bac:	10400005 	beqz	v0,80003bc4 <fs_next_slash+0x270>
80003bb0:	00000000 	nop
80003bb4:	8fc20008 	lw	v0,8(s8)
80003bb8:	2c42000b 	sltiu	v0,v0,11
80003bbc:	1440ffe6 	bnez	v0,80003b58 <fs_next_slash+0x204>
80003bc0:	00000000 	nop
80003bc4:	3c028002 	lui	v0,0x8002
80003bc8:	2442f934 	addiu	v0,v0,-1740
80003bcc:	a040000b 	sb	zero,11(v0)
80003bd0:	8fc20000 	lw	v0,0(s8)
80003bd4:	03c0e825 	move	sp,s8
80003bd8:	8fbe0024 	lw	s8,36(sp)
80003bdc:	27bd0028 	addiu	sp,sp,40
80003be0:	03e00008 	jr	ra
80003be4:	00000000 	nop

80003be8 <fs_cmp_filename>:
80003be8:	27bdfff0 	addiu	sp,sp,-16
80003bec:	afbe000c 	sw	s8,12(sp)
80003bf0:	03a0f025 	move	s8,sp
80003bf4:	afc40010 	sw	a0,16(s8)
80003bf8:	afc50014 	sw	a1,20(s8)
80003bfc:	afc00000 	sw	zero,0(s8)
80003c00:	10000011 	b	80003c48 <fs_cmp_filename+0x60>
80003c04:	00000000 	nop
80003c08:	8fc30010 	lw	v1,16(s8)
80003c0c:	8fc20000 	lw	v0,0(s8)
80003c10:	00621021 	addu	v0,v1,v0
80003c14:	90430000 	lbu	v1,0(v0)
80003c18:	8fc40014 	lw	a0,20(s8)
80003c1c:	8fc20000 	lw	v0,0(s8)
80003c20:	00821021 	addu	v0,a0,v0
80003c24:	90420000 	lbu	v0,0(v0)
80003c28:	10620004 	beq	v1,v0,80003c3c <fs_cmp_filename+0x54>
80003c2c:	00000000 	nop
80003c30:	24020001 	li	v0,1
80003c34:	10000009 	b	80003c5c <fs_cmp_filename+0x74>
80003c38:	00000000 	nop
80003c3c:	8fc20000 	lw	v0,0(s8)
80003c40:	24420001 	addiu	v0,v0,1
80003c44:	afc20000 	sw	v0,0(s8)
80003c48:	8fc20000 	lw	v0,0(s8)
80003c4c:	2c42000b 	sltiu	v0,v0,11
80003c50:	1440ffed 	bnez	v0,80003c08 <fs_cmp_filename+0x20>
80003c54:	00000000 	nop
80003c58:	00001025 	move	v0,zero
80003c5c:	03c0e825 	move	sp,s8
80003c60:	8fbe000c 	lw	s8,12(sp)
80003c64:	27bd0010 	addiu	sp,sp,16
80003c68:	03e00008 	jr	ra
80003c6c:	00000000 	nop

80003c70 <fs_find>:
80003c70:	27bdffc8 	addiu	sp,sp,-56
80003c74:	afbf0034 	sw	ra,52(sp)
80003c78:	afbe0030 	sw	s8,48(sp)
80003c7c:	03a0f025 	move	s8,sp
80003c80:	afc40038 	sw	a0,56(s8)
80003c84:	8fc20038 	lw	v0,56(s8)
80003c88:	afc20010 	sw	v0,16(s8)
80003c8c:	8fc20010 	lw	v0,16(s8)
80003c90:	24430001 	addiu	v1,v0,1
80003c94:	afc30010 	sw	v1,16(s8)
80003c98:	90430000 	lbu	v1,0(v0)
80003c9c:	2402002f 	li	v0,47
80003ca0:	10620003 	beq	v1,v0,80003cb0 <fs_find+0x40>
80003ca4:	00000000 	nop
80003ca8:	10000121 	b	80004130 <fs_find+0x4c0>
80003cac:	00000000 	nop
80003cb0:	24040002 	li	a0,2
80003cb4:	0c001e7b 	jal	800079ec <fs_dataclus2sec>
80003cb8:	00000000 	nop
80003cbc:	00401825 	move	v1,v0
80003cc0:	3c028002 	lui	v0,0x8002
80003cc4:	2444ecfc 	addiu	a0,v0,-4868
80003cc8:	00602825 	move	a1,v1
80003ccc:	27868098 	addiu	a2,gp,-32616
80003cd0:	24070004 	li	a3,4
80003cd4:	0c0020e5 	jal	80008394 <fs_read_512>
80003cd8:	00000000 	nop
80003cdc:	afc2001c 	sw	v0,28(s8)
80003ce0:	8fc3001c 	lw	v1,28(s8)
80003ce4:	2402ffff 	li	v0,-1
80003ce8:	14620003 	bne	v1,v0,80003cf8 <fs_find+0x88>
80003cec:	00000000 	nop
80003cf0:	1000010f 	b	80004130 <fs_find+0x4c0>
80003cf4:	00000000 	nop
80003cf8:	8fc20038 	lw	v0,56(s8)
80003cfc:	2403ffff 	li	v1,-1
80003d00:	ac430104 	sw	v1,260(v0)
80003d04:	8fc40010 	lw	a0,16(s8)
80003d08:	0c000e55 	jal	80003954 <fs_next_slash>
80003d0c:	00000000 	nop
80003d10:	afc20024 	sw	v0,36(s8)
80003d14:	24020001 	li	v0,1
80003d18:	afc20020 	sw	v0,32(s8)
80003d1c:	100000ba 	b	80004008 <fs_find+0x398>
80003d20:	00000000 	nop
80003d24:	afc00014 	sw	zero,20(s8)
80003d28:	1000005c 	b	80003e9c <fs_find+0x22c>
80003d2c:	00000000 	nop
80003d30:	8fc2001c 	lw	v0,28(s8)
80003d34:	000210c0 	sll	v0,v0,0x3
80003d38:	00021980 	sll	v1,v0,0x6
80003d3c:	00431021 	addu	v0,v0,v1
80003d40:	3c038002 	lui	v1,0x8002
80003d44:	2463ecfc 	addiu	v1,v1,-4868
80003d48:	00431821 	addu	v1,v0,v1
80003d4c:	8fc20014 	lw	v0,20(s8)
80003d50:	00621021 	addu	v0,v1,v0
80003d54:	90420000 	lbu	v0,0(v0)
80003d58:	14400003 	bnez	v0,80003d68 <fs_find+0xf8>
80003d5c:	00000000 	nop
80003d60:	100000b3 	b	80004030 <fs_find+0x3c0>
80003d64:	00000000 	nop
80003d68:	8fc2001c 	lw	v0,28(s8)
80003d6c:	000210c0 	sll	v0,v0,0x3
80003d70:	00021980 	sll	v1,v0,0x6
80003d74:	00431021 	addu	v0,v0,v1
80003d78:	3c038002 	lui	v1,0x8002
80003d7c:	2463ecfc 	addiu	v1,v1,-4868
80003d80:	00431821 	addu	v1,v0,v1
80003d84:	8fc20014 	lw	v0,20(s8)
80003d88:	00621021 	addu	v0,v1,v0
80003d8c:	00402025 	move	a0,v0
80003d90:	3c028002 	lui	v0,0x8002
80003d94:	2445f934 	addiu	a1,v0,-1740
80003d98:	0c000efa 	jal	80003be8 <fs_cmp_filename>
80003d9c:	00000000 	nop
80003da0:	1440003b 	bnez	v0,80003e90 <fs_find+0x220>
80003da4:	00000000 	nop
80003da8:	8fc2001c 	lw	v0,28(s8)
80003dac:	000210c0 	sll	v0,v0,0x3
80003db0:	00021980 	sll	v1,v0,0x6
80003db4:	00431021 	addu	v0,v0,v1
80003db8:	3c038002 	lui	v1,0x8002
80003dbc:	2463ecfc 	addiu	v1,v1,-4868
80003dc0:	00431821 	addu	v1,v0,v1
80003dc4:	8fc20014 	lw	v0,20(s8)
80003dc8:	2442000b 	addiu	v0,v0,11
80003dcc:	00621021 	addu	v0,v1,v0
80003dd0:	90420000 	lbu	v0,0(v0)
80003dd4:	30420008 	andi	v0,v0,0x8
80003dd8:	1440002d 	bnez	v0,80003e90 <fs_find+0x220>
80003ddc:	00000000 	nop
80003de0:	8fc20038 	lw	v0,56(s8)
80003de4:	8fc30014 	lw	v1,20(s8)
80003de8:	ac430104 	sw	v1,260(v0)
80003dec:	3c038002 	lui	v1,0x8002
80003df0:	8fc2001c 	lw	v0,28(s8)
80003df4:	000210c0 	sll	v0,v0,0x3
80003df8:	00022180 	sll	a0,v0,0x6
80003dfc:	00441021 	addu	v0,v0,a0
80003e00:	2463ecfc 	addiu	v1,v1,-4868
80003e04:	00431021 	addu	v0,v0,v1
80003e08:	8c430200 	lw	v1,512(v0)
80003e0c:	3c028002 	lui	v0,0x8002
80003e10:	8c42f51c 	lw	v0,-2788(v0)
80003e14:	00621823 	subu	v1,v1,v0
80003e18:	8fc20038 	lw	v0,56(s8)
80003e1c:	ac430108 	sw	v1,264(v0)
80003e20:	afc00018 	sw	zero,24(s8)
80003e24:	10000014 	b	80003e78 <fs_find+0x208>
80003e28:	00000000 	nop
80003e2c:	8fc2001c 	lw	v0,28(s8)
80003e30:	000210c0 	sll	v0,v0,0x3
80003e34:	00021980 	sll	v1,v0,0x6
80003e38:	00431021 	addu	v0,v0,v1
80003e3c:	3c038002 	lui	v1,0x8002
80003e40:	2463ecfc 	addiu	v1,v1,-4868
80003e44:	00431821 	addu	v1,v0,v1
80003e48:	8fc40014 	lw	a0,20(s8)
80003e4c:	8fc20018 	lw	v0,24(s8)
80003e50:	00821021 	addu	v0,a0,v0
80003e54:	00621021 	addu	v0,v1,v0
80003e58:	90430000 	lbu	v1,0(v0)
80003e5c:	8fc40038 	lw	a0,56(s8)
80003e60:	8fc20018 	lw	v0,24(s8)
80003e64:	00821021 	addu	v0,a0,v0
80003e68:	a043010c 	sb	v1,268(v0)
80003e6c:	8fc20018 	lw	v0,24(s8)
80003e70:	24420001 	addiu	v0,v0,1
80003e74:	afc20018 	sw	v0,24(s8)
80003e78:	8fc20018 	lw	v0,24(s8)
80003e7c:	2c420020 	sltiu	v0,v0,32
80003e80:	1440ffea 	bnez	v0,80003e2c <fs_find+0x1bc>
80003e84:	00000000 	nop
80003e88:	10000069 	b	80004030 <fs_find+0x3c0>
80003e8c:	00000000 	nop
80003e90:	8fc20014 	lw	v0,20(s8)
80003e94:	24420020 	addiu	v0,v0,32
80003e98:	afc20014 	sw	v0,20(s8)
80003e9c:	8fc20014 	lw	v0,20(s8)
80003ea0:	2c420200 	sltiu	v0,v0,512
80003ea4:	1440ffa2 	bnez	v0,80003d30 <fs_find+0xc0>
80003ea8:	00000000 	nop
80003eac:	3c028002 	lui	v0,0x8002
80003eb0:	2442f51c 	addiu	v0,v0,-2788
80003eb4:	90420025 	lbu	v0,37(v0)
80003eb8:	00401825 	move	v1,v0
80003ebc:	8fc20020 	lw	v0,32(s8)
80003ec0:	0043102b 	sltu	v0,v0,v1
80003ec4:	10400018 	beqz	v0,80003f28 <fs_find+0x2b8>
80003ec8:	00000000 	nop
80003ecc:	3c038002 	lui	v1,0x8002
80003ed0:	8fc2001c 	lw	v0,28(s8)
80003ed4:	000210c0 	sll	v0,v0,0x3
80003ed8:	00022180 	sll	a0,v0,0x6
80003edc:	00441021 	addu	v0,v0,a0
80003ee0:	2463ecfc 	addiu	v1,v1,-4868
80003ee4:	00431021 	addu	v0,v0,v1
80003ee8:	8c420200 	lw	v0,512(v0)
80003eec:	24430001 	addiu	v1,v0,1
80003ef0:	3c028002 	lui	v0,0x8002
80003ef4:	2444ecfc 	addiu	a0,v0,-4868
80003ef8:	00602825 	move	a1,v1
80003efc:	27868098 	addiu	a2,gp,-32616
80003f00:	24070004 	li	a3,4
80003f04:	0c0020e5 	jal	80008394 <fs_read_512>
80003f08:	00000000 	nop
80003f0c:	afc2001c 	sw	v0,28(s8)
80003f10:	8fc3001c 	lw	v1,28(s8)
80003f14:	2402ffff 	li	v0,-1
80003f18:	14620038 	bne	v1,v0,80003ffc <fs_find+0x38c>
80003f1c:	00000000 	nop
80003f20:	10000083 	b	80004130 <fs_find+0x4c0>
80003f24:	00000000 	nop
80003f28:	3c038002 	lui	v1,0x8002
80003f2c:	8fc2001c 	lw	v0,28(s8)
80003f30:	000210c0 	sll	v0,v0,0x3
80003f34:	00022180 	sll	a0,v0,0x6
80003f38:	00441021 	addu	v0,v0,a0
80003f3c:	2463ecfc 	addiu	v1,v1,-4868
80003f40:	00431021 	addu	v0,v0,v1
80003f44:	8c420200 	lw	v0,512(v0)
80003f48:	3c038002 	lui	v1,0x8002
80003f4c:	2463f51c 	addiu	v1,v1,-2788
80003f50:	90630025 	lbu	v1,37(v1)
80003f54:	00431023 	subu	v0,v0,v1
80003f58:	24430001 	addiu	v1,v0,1
80003f5c:	27c20028 	addiu	v0,s8,40
80003f60:	00602025 	move	a0,v1
80003f64:	00402825 	move	a1,v0
80003f68:	0c001ddc 	jal	80007770 <get_fat_entry_value>
80003f6c:	00000000 	nop
80003f70:	00401825 	move	v1,v0
80003f74:	24020001 	li	v0,1
80003f78:	14620003 	bne	v1,v0,80003f88 <fs_find+0x318>
80003f7c:	00000000 	nop
80003f80:	1000006b 	b	80004130 <fs_find+0x4c0>
80003f84:	00000000 	nop
80003f88:	3c028002 	lui	v0,0x8002
80003f8c:	2442f51c 	addiu	v0,v0,-2788
80003f90:	8c42000c 	lw	v0,12(v0)
80003f94:	24430001 	addiu	v1,v0,1
80003f98:	8fc20028 	lw	v0,40(s8)
80003f9c:	0062102b 	sltu	v0,v1,v0
80003fa0:	14400014 	bnez	v0,80003ff4 <fs_find+0x384>
80003fa4:	00000000 	nop
80003fa8:	8fc20028 	lw	v0,40(s8)
80003fac:	00402025 	move	a0,v0
80003fb0:	0c001e7b 	jal	800079ec <fs_dataclus2sec>
80003fb4:	00000000 	nop
80003fb8:	00401825 	move	v1,v0
80003fbc:	3c028002 	lui	v0,0x8002
80003fc0:	2444ecfc 	addiu	a0,v0,-4868
80003fc4:	00602825 	move	a1,v1
80003fc8:	27868098 	addiu	a2,gp,-32616
80003fcc:	24070004 	li	a3,4
80003fd0:	0c0020e5 	jal	80008394 <fs_read_512>
80003fd4:	00000000 	nop
80003fd8:	afc2001c 	sw	v0,28(s8)
80003fdc:	8fc3001c 	lw	v1,28(s8)
80003fe0:	2402ffff 	li	v0,-1
80003fe4:	14620005 	bne	v1,v0,80003ffc <fs_find+0x38c>
80003fe8:	00000000 	nop
80003fec:	10000050 	b	80004130 <fs_find+0x4c0>
80003ff0:	00000000 	nop
80003ff4:	1000000e 	b	80004030 <fs_find+0x3c0>
80003ff8:	00000000 	nop
80003ffc:	8fc20020 	lw	v0,32(s8)
80004000:	24420001 	addiu	v0,v0,1
80004004:	afc20020 	sw	v0,32(s8)
80004008:	3c028002 	lui	v0,0x8002
8000400c:	2442f51c 	addiu	v0,v0,-2788
80004010:	90420025 	lbu	v0,37(v0)
80004014:	00401825 	move	v1,v0
80004018:	8fc20020 	lw	v0,32(s8)
8000401c:	0062102b 	sltu	v0,v1,v0
80004020:	1040ff40 	beqz	v0,80003d24 <fs_find+0xb4>
80004024:	00000000 	nop
80004028:	1000ff3a 	b	80003d14 <fs_find+0xa4>
8000402c:	00000000 	nop
80004030:	8fc20038 	lw	v0,56(s8)
80004034:	8c430104 	lw	v1,260(v0)
80004038:	2402ffff 	li	v0,-1
8000403c:	14620003 	bne	v1,v0,8000404c <fs_find+0x3dc>
80004040:	00000000 	nop
80004044:	1000003a 	b	80004130 <fs_find+0x4c0>
80004048:	00000000 	nop
8000404c:	8fc30010 	lw	v1,16(s8)
80004050:	8fc20024 	lw	v0,36(s8)
80004054:	00621021 	addu	v0,v1,v0
80004058:	90420000 	lbu	v0,0(v0)
8000405c:	14400005 	bnez	v0,80004074 <fs_find+0x404>
80004060:	00000000 	nop
80004064:	00000000 	nop
80004068:	00001025 	move	v0,zero
8000406c:	10000031 	b	80004134 <fs_find+0x4c4>
80004070:	00000000 	nop
80004074:	8fc20038 	lw	v0,56(s8)
80004078:	90420117 	lbu	v0,279(v0)
8000407c:	30420010 	andi	v0,v0,0x10
80004080:	14400003 	bnez	v0,80004090 <fs_find+0x420>
80004084:	00000000 	nop
80004088:	10000029 	b	80004130 <fs_find+0x4c0>
8000408c:	00000000 	nop
80004090:	8fc20024 	lw	v0,36(s8)
80004094:	24420001 	addiu	v0,v0,1
80004098:	8fc30010 	lw	v1,16(s8)
8000409c:	00621021 	addu	v0,v1,v0
800040a0:	afc20010 	sw	v0,16(s8)
800040a4:	8fc40038 	lw	a0,56(s8)
800040a8:	0c001dcd 	jal	80007734 <get_start_cluster>
800040ac:	00000000 	nop
800040b0:	afc20028 	sw	v0,40(s8)
800040b4:	3c028002 	lui	v0,0x8002
800040b8:	2442f51c 	addiu	v0,v0,-2788
800040bc:	8c42000c 	lw	v0,12(v0)
800040c0:	24430001 	addiu	v1,v0,1
800040c4:	8fc20028 	lw	v0,40(s8)
800040c8:	0062102b 	sltu	v0,v1,v0
800040cc:	14400014 	bnez	v0,80004120 <fs_find+0x4b0>
800040d0:	00000000 	nop
800040d4:	8fc20028 	lw	v0,40(s8)
800040d8:	00402025 	move	a0,v0
800040dc:	0c001e7b 	jal	800079ec <fs_dataclus2sec>
800040e0:	00000000 	nop
800040e4:	00401825 	move	v1,v0
800040e8:	3c028002 	lui	v0,0x8002
800040ec:	2444ecfc 	addiu	a0,v0,-4868
800040f0:	00602825 	move	a1,v1
800040f4:	27868098 	addiu	a2,gp,-32616
800040f8:	24070004 	li	a3,4
800040fc:	0c0020e5 	jal	80008394 <fs_read_512>
80004100:	00000000 	nop
80004104:	afc2001c 	sw	v0,28(s8)
80004108:	8fc3001c 	lw	v1,28(s8)
8000410c:	2402ffff 	li	v0,-1
80004110:	14620005 	bne	v1,v0,80004128 <fs_find+0x4b8>
80004114:	00000000 	nop
80004118:	10000005 	b	80004130 <fs_find+0x4c0>
8000411c:	00000000 	nop
80004120:	10000003 	b	80004130 <fs_find+0x4c0>
80004124:	00000000 	nop
80004128:	1000fef3 	b	80003cf8 <fs_find+0x88>
8000412c:	00000000 	nop
80004130:	24020001 	li	v0,1
80004134:	03c0e825 	move	sp,s8
80004138:	8fbf0034 	lw	ra,52(sp)
8000413c:	8fbe0030 	lw	s8,48(sp)
80004140:	27bd0038 	addiu	sp,sp,56
80004144:	03e00008 	jr	ra
80004148:	00000000 	nop

8000414c <fs_open>:
8000414c:	27bdffe0 	addiu	sp,sp,-32
80004150:	afbf001c 	sw	ra,28(sp)
80004154:	afbe0018 	sw	s8,24(sp)
80004158:	03a0f025 	move	s8,sp
8000415c:	afc40020 	sw	a0,32(s8)
80004160:	afc50024 	sw	a1,36(s8)
80004164:	afc00010 	sw	zero,16(s8)
80004168:	10000013 	b	800041b8 <fs_open+0x6c>
8000416c:	00000000 	nop
80004170:	8fc30020 	lw	v1,32(s8)
80004174:	8fc20010 	lw	v0,16(s8)
80004178:	000210c0 	sll	v0,v0,0x3
8000417c:	00022240 	sll	a0,v0,0x9
80004180:	00441021 	addu	v0,v0,a0
80004184:	00621021 	addu	v0,v1,v0
80004188:	2403ffff 	li	v1,-1
8000418c:	ac431130 	sw	v1,4400(v0)
80004190:	8fc30020 	lw	v1,32(s8)
80004194:	8fc20010 	lw	v0,16(s8)
80004198:	000210c0 	sll	v0,v0,0x3
8000419c:	00022240 	sll	a0,v0,0x9
800041a0:	00441021 	addu	v0,v0,a0
800041a4:	00621021 	addu	v0,v1,v0
800041a8:	ac401134 	sw	zero,4404(v0)
800041ac:	8fc20010 	lw	v0,16(s8)
800041b0:	24420001 	addiu	v0,v0,1
800041b4:	afc20010 	sw	v0,16(s8)
800041b8:	8fc20010 	lw	v0,16(s8)
800041bc:	2c420004 	sltiu	v0,v0,4
800041c0:	1440ffeb 	bnez	v0,80004170 <fs_open+0x24>
800041c4:	00000000 	nop
800041c8:	8fc20020 	lw	v0,32(s8)
800041cc:	ac40012c 	sw	zero,300(v0)
800041d0:	afc00010 	sw	zero,16(s8)
800041d4:	10000008 	b	800041f8 <fs_open+0xac>
800041d8:	00000000 	nop
800041dc:	8fc30020 	lw	v1,32(s8)
800041e0:	8fc20010 	lw	v0,16(s8)
800041e4:	00621021 	addu	v0,v1,v0
800041e8:	a0400000 	sb	zero,0(v0)
800041ec:	8fc20010 	lw	v0,16(s8)
800041f0:	24420001 	addiu	v0,v0,1
800041f4:	afc20010 	sw	v0,16(s8)
800041f8:	8fc20010 	lw	v0,16(s8)
800041fc:	2c420100 	sltiu	v0,v0,256
80004200:	1440fff6 	bnez	v0,800041dc <fs_open+0x90>
80004204:	00000000 	nop
80004208:	afc00010 	sw	zero,16(s8)
8000420c:	1000000c 	b	80004240 <fs_open+0xf4>
80004210:	00000000 	nop
80004214:	8fc30024 	lw	v1,36(s8)
80004218:	8fc20010 	lw	v0,16(s8)
8000421c:	00621021 	addu	v0,v1,v0
80004220:	90430000 	lbu	v1,0(v0)
80004224:	8fc40020 	lw	a0,32(s8)
80004228:	8fc20010 	lw	v0,16(s8)
8000422c:	00821021 	addu	v0,a0,v0
80004230:	a0430000 	sb	v1,0(v0)
80004234:	8fc20010 	lw	v0,16(s8)
80004238:	24420001 	addiu	v0,v0,1
8000423c:	afc20010 	sw	v0,16(s8)
80004240:	8fc20010 	lw	v0,16(s8)
80004244:	2c420100 	sltiu	v0,v0,256
80004248:	10400007 	beqz	v0,80004268 <fs_open+0x11c>
8000424c:	00000000 	nop
80004250:	8fc30024 	lw	v1,36(s8)
80004254:	8fc20010 	lw	v0,16(s8)
80004258:	00621021 	addu	v0,v1,v0
8000425c:	90420000 	lbu	v0,0(v0)
80004260:	1440ffec 	bnez	v0,80004214 <fs_open+0xc8>
80004264:	00000000 	nop
80004268:	8fc20020 	lw	v0,32(s8)
8000426c:	ac400100 	sw	zero,256(v0)
80004270:	8fc40020 	lw	a0,32(s8)
80004274:	0c000f1c 	jal	80003c70 <fs_find>
80004278:	00000000 	nop
8000427c:	00401825 	move	v1,v0
80004280:	24020001 	li	v0,1
80004284:	14620005 	bne	v1,v0,8000429c <fs_open+0x150>
80004288:	00000000 	nop
8000428c:	00000000 	nop
80004290:	24020001 	li	v0,1
80004294:	10000002 	b	800042a0 <fs_open+0x154>
80004298:	00000000 	nop
8000429c:	00001025 	move	v0,zero
800042a0:	03c0e825 	move	sp,s8
800042a4:	8fbf001c 	lw	ra,28(sp)
800042a8:	8fbe0018 	lw	s8,24(sp)
800042ac:	27bd0020 	addiu	sp,sp,32
800042b0:	03e00008 	jr	ra
800042b4:	00000000 	nop

800042b8 <fs_fflush>:
800042b8:	27bdffe0 	addiu	sp,sp,-32
800042bc:	afbf001c 	sw	ra,28(sp)
800042c0:	afbe0018 	sw	s8,24(sp)
800042c4:	03a0f025 	move	s8,sp
800042c8:	3c028002 	lui	v0,0x8002
800042cc:	8c42f51c 	lw	v0,-2788(v0)
800042d0:	24430001 	addiu	v1,v0,1
800042d4:	3c028002 	lui	v0,0x8002
800042d8:	2444f734 	addiu	a0,v0,-2252
800042dc:	00602825 	move	a1,v1
800042e0:	24060001 	li	a2,1
800042e4:	0c001d23 	jal	8000748c <write_block>
800042e8:	00000000 	nop
800042ec:	00401825 	move	v1,v0
800042f0:	24020001 	li	v0,1
800042f4:	14620003 	bne	v1,v0,80004304 <fs_fflush+0x4c>
800042f8:	00000000 	nop
800042fc:	10000040 	b	80004400 <fs_fflush+0x148>
80004300:	00000000 	nop
80004304:	3c028002 	lui	v0,0x8002
80004308:	8c42f51c 	lw	v0,-2788(v0)
8000430c:	24430007 	addiu	v1,v0,7
80004310:	3c028002 	lui	v0,0x8002
80004314:	2444f734 	addiu	a0,v0,-2252
80004318:	00602825 	move	a1,v1
8000431c:	24060001 	li	a2,1
80004320:	0c001d23 	jal	8000748c <write_block>
80004324:	00000000 	nop
80004328:	00401825 	move	v1,v0
8000432c:	24020001 	li	v0,1
80004330:	14620003 	bne	v1,v0,80004340 <fs_fflush+0x88>
80004334:	00000000 	nop
80004338:	10000031 	b	80004400 <fs_fflush+0x148>
8000433c:	00000000 	nop
80004340:	afc00010 	sw	zero,16(s8)
80004344:	1000000d 	b	8000437c <fs_fflush+0xc4>
80004348:	00000000 	nop
8000434c:	8fc40010 	lw	a0,16(s8)
80004350:	0c000d78 	jal	800035e0 <write_fat_sector>
80004354:	00000000 	nop
80004358:	00401825 	move	v1,v0
8000435c:	24020001 	li	v0,1
80004360:	14620003 	bne	v1,v0,80004370 <fs_fflush+0xb8>
80004364:	00000000 	nop
80004368:	10000025 	b	80004400 <fs_fflush+0x148>
8000436c:	00000000 	nop
80004370:	8fc20010 	lw	v0,16(s8)
80004374:	24420001 	addiu	v0,v0,1
80004378:	afc20010 	sw	v0,16(s8)
8000437c:	8fc20010 	lw	v0,16(s8)
80004380:	2c420002 	sltiu	v0,v0,2
80004384:	1440fff1 	bnez	v0,8000434c <fs_fflush+0x94>
80004388:	00000000 	nop
8000438c:	afc00010 	sw	zero,16(s8)
80004390:	10000014 	b	800043e4 <fs_fflush+0x12c>
80004394:	00000000 	nop
80004398:	8fc20010 	lw	v0,16(s8)
8000439c:	000210c0 	sll	v0,v0,0x3
800043a0:	00021980 	sll	v1,v0,0x6
800043a4:	00431821 	addu	v1,v0,v1
800043a8:	3c028002 	lui	v0,0x8002
800043ac:	2442ecfc 	addiu	v0,v0,-4868
800043b0:	00621021 	addu	v0,v1,v0
800043b4:	00402025 	move	a0,v0
800043b8:	0c0020ba 	jal	800082e8 <fs_write_512>
800043bc:	00000000 	nop
800043c0:	00401825 	move	v1,v0
800043c4:	24020001 	li	v0,1
800043c8:	14620003 	bne	v1,v0,800043d8 <fs_fflush+0x120>
800043cc:	00000000 	nop
800043d0:	1000000b 	b	80004400 <fs_fflush+0x148>
800043d4:	00000000 	nop
800043d8:	8fc20010 	lw	v0,16(s8)
800043dc:	24420001 	addiu	v0,v0,1
800043e0:	afc20010 	sw	v0,16(s8)
800043e4:	8fc20010 	lw	v0,16(s8)
800043e8:	2c420004 	sltiu	v0,v0,4
800043ec:	1440ffea 	bnez	v0,80004398 <fs_fflush+0xe0>
800043f0:	00000000 	nop
800043f4:	00001025 	move	v0,zero
800043f8:	10000002 	b	80004404 <fs_fflush+0x14c>
800043fc:	00000000 	nop
80004400:	24020001 	li	v0,1
80004404:	03c0e825 	move	sp,s8
80004408:	8fbf001c 	lw	ra,28(sp)
8000440c:	8fbe0018 	lw	s8,24(sp)
80004410:	27bd0020 	addiu	sp,sp,32
80004414:	03e00008 	jr	ra
80004418:	00000000 	nop

8000441c <fs_close>:
8000441c:	27bdffe0 	addiu	sp,sp,-32
80004420:	afbf001c 	sw	ra,28(sp)
80004424:	afbe0018 	sw	s8,24(sp)
80004428:	03a0f025 	move	s8,sp
8000442c:	afc40020 	sw	a0,32(s8)
80004430:	8fc20020 	lw	v0,32(s8)
80004434:	8c430108 	lw	v1,264(v0)
80004438:	3c028002 	lui	v0,0x8002
8000443c:	2444ecfc 	addiu	a0,v0,-4868
80004440:	00602825 	move	a1,v1
80004444:	27868098 	addiu	a2,gp,-32616
80004448:	24070004 	li	a3,4
8000444c:	0c0020e5 	jal	80008394 <fs_read_512>
80004450:	00000000 	nop
80004454:	afc20014 	sw	v0,20(s8)
80004458:	8fc30014 	lw	v1,20(s8)
8000445c:	2402ffff 	li	v0,-1
80004460:	14620003 	bne	v1,v0,80004470 <fs_close+0x54>
80004464:	00000000 	nop
80004468:	1000004a 	b	80004594 <fs_close+0x178>
8000446c:	00000000 	nop
80004470:	3c038002 	lui	v1,0x8002
80004474:	8fc20014 	lw	v0,20(s8)
80004478:	000210c0 	sll	v0,v0,0x3
8000447c:	00022180 	sll	a0,v0,0x6
80004480:	00441021 	addu	v0,v0,a0
80004484:	2463ecfc 	addiu	v1,v1,-4868
80004488:	00431021 	addu	v0,v0,v1
8000448c:	24030003 	li	v1,3
80004490:	ac430204 	sw	v1,516(v0)
80004494:	afc00010 	sw	zero,16(s8)
80004498:	10000015 	b	800044f0 <fs_close+0xd4>
8000449c:	00000000 	nop
800044a0:	8fc20014 	lw	v0,20(s8)
800044a4:	000210c0 	sll	v0,v0,0x3
800044a8:	00021980 	sll	v1,v0,0x6
800044ac:	00431021 	addu	v0,v0,v1
800044b0:	3c038002 	lui	v1,0x8002
800044b4:	2463ecfc 	addiu	v1,v1,-4868
800044b8:	00431821 	addu	v1,v0,v1
800044bc:	8fc20020 	lw	v0,32(s8)
800044c0:	8c440104 	lw	a0,260(v0)
800044c4:	8fc20010 	lw	v0,16(s8)
800044c8:	00821021 	addu	v0,a0,v0
800044cc:	00621021 	addu	v0,v1,v0
800044d0:	8fc40020 	lw	a0,32(s8)
800044d4:	8fc30010 	lw	v1,16(s8)
800044d8:	00831821 	addu	v1,a0,v1
800044dc:	9063010c 	lbu	v1,268(v1)
800044e0:	a0430000 	sb	v1,0(v0)
800044e4:	8fc20010 	lw	v0,16(s8)
800044e8:	24420001 	addiu	v0,v0,1
800044ec:	afc20010 	sw	v0,16(s8)
800044f0:	8fc20010 	lw	v0,16(s8)
800044f4:	2c420020 	sltiu	v0,v0,32
800044f8:	1440ffe9 	bnez	v0,800044a0 <fs_close+0x84>
800044fc:	00000000 	nop
80004500:	0c0010ae 	jal	800042b8 <fs_fflush>
80004504:	00000000 	nop
80004508:	00401825 	move	v1,v0
8000450c:	24020001 	li	v0,1
80004510:	14620003 	bne	v1,v0,80004520 <fs_close+0x104>
80004514:	00000000 	nop
80004518:	1000001e 	b	80004594 <fs_close+0x178>
8000451c:	00000000 	nop
80004520:	afc00010 	sw	zero,16(s8)
80004524:	10000014 	b	80004578 <fs_close+0x15c>
80004528:	00000000 	nop
8000452c:	8fc20010 	lw	v0,16(s8)
80004530:	000210c0 	sll	v0,v0,0x3
80004534:	00021a40 	sll	v1,v0,0x9
80004538:	00431021 	addu	v0,v0,v1
8000453c:	24420130 	addiu	v0,v0,304
80004540:	8fc30020 	lw	v1,32(s8)
80004544:	00621021 	addu	v0,v1,v0
80004548:	00402025 	move	a0,v0
8000454c:	0c001f3a 	jal	80007ce8 <fs_write_4k>
80004550:	00000000 	nop
80004554:	00401825 	move	v1,v0
80004558:	24020001 	li	v0,1
8000455c:	14620003 	bne	v1,v0,8000456c <fs_close+0x150>
80004560:	00000000 	nop
80004564:	1000000b 	b	80004594 <fs_close+0x178>
80004568:	00000000 	nop
8000456c:	8fc20010 	lw	v0,16(s8)
80004570:	24420001 	addiu	v0,v0,1
80004574:	afc20010 	sw	v0,16(s8)
80004578:	8fc20010 	lw	v0,16(s8)
8000457c:	2c420004 	sltiu	v0,v0,4
80004580:	1440ffea 	bnez	v0,8000452c <fs_close+0x110>
80004584:	00000000 	nop
80004588:	00001025 	move	v0,zero
8000458c:	10000002 	b	80004598 <fs_close+0x17c>
80004590:	00000000 	nop
80004594:	24020001 	li	v0,1
80004598:	03c0e825 	move	sp,s8
8000459c:	8fbf001c 	lw	ra,28(sp)
800045a0:	8fbe0018 	lw	s8,24(sp)
800045a4:	27bd0020 	addiu	sp,sp,32
800045a8:	03e00008 	jr	ra
800045ac:	00000000 	nop

800045b0 <fs_read>:
800045b0:	27bdffb8 	addiu	sp,sp,-72
800045b4:	afbf0044 	sw	ra,68(sp)
800045b8:	afbe0040 	sw	s8,64(sp)
800045bc:	afb0003c 	sw	s0,60(sp)
800045c0:	03a0f025 	move	s8,sp
800045c4:	afc40048 	sw	a0,72(s8)
800045c8:	afc5004c 	sw	a1,76(s8)
800045cc:	afc60050 	sw	a2,80(s8)
800045d0:	8fc20048 	lw	v0,72(s8)
800045d4:	8c420128 	lw	v0,296(v0)
800045d8:	afc20024 	sw	v0,36(s8)
800045dc:	8fc40048 	lw	a0,72(s8)
800045e0:	0c001dcd 	jal	80007734 <get_start_cluster>
800045e4:	00000000 	nop
800045e8:	afc20018 	sw	v0,24(s8)
800045ec:	8fc20018 	lw	v0,24(s8)
800045f0:	14400004 	bnez	v0,80004604 <fs_read+0x54>
800045f4:	00000000 	nop
800045f8:	00001025 	move	v0,zero
800045fc:	100000d2 	b	80004948 <fs_read+0x398>
80004600:	00000000 	nop
80004604:	8fc20048 	lw	v0,72(s8)
80004608:	8c430100 	lw	v1,256(v0)
8000460c:	8fc20050 	lw	v0,80(s8)
80004610:	00621821 	addu	v1,v1,v0
80004614:	8fc20024 	lw	v0,36(s8)
80004618:	0043102b 	sltu	v0,v0,v1
8000461c:	10400006 	beqz	v0,80004638 <fs_read+0x88>
80004620:	00000000 	nop
80004624:	8fc20048 	lw	v0,72(s8)
80004628:	8c420100 	lw	v0,256(v0)
8000462c:	8fc30024 	lw	v1,36(s8)
80004630:	00621023 	subu	v0,v1,v0
80004634:	afc20050 	sw	v0,80(s8)
80004638:	8fc20050 	lw	v0,80(s8)
8000463c:	14400004 	bnez	v0,80004650 <fs_read+0xa0>
80004640:	00000000 	nop
80004644:	00001025 	move	v0,zero
80004648:	100000bf 	b	80004948 <fs_read+0x398>
8000464c:	00000000 	nop
80004650:	8fc20048 	lw	v0,72(s8)
80004654:	8c500100 	lw	s0,256(v0)
80004658:	3c028002 	lui	v0,0x8002
8000465c:	2442f51c 	addiu	v0,v0,-2788
80004660:	90420025 	lbu	v0,37(v0)
80004664:	00021240 	sll	v0,v0,0x9
80004668:	00402025 	move	a0,v0
8000466c:	0c001d9a 	jal	80007668 <fs_wa>
80004670:	00000000 	nop
80004674:	00501006 	srlv	v0,s0,v0
80004678:	afc20010 	sw	v0,16(s8)
8000467c:	8fc20048 	lw	v0,72(s8)
80004680:	8c420100 	lw	v0,256(v0)
80004684:	3c038002 	lui	v1,0x8002
80004688:	2463f51c 	addiu	v1,v1,-2788
8000468c:	90630025 	lbu	v1,37(v1)
80004690:	00031a40 	sll	v1,v1,0x9
80004694:	2463ffff 	addiu	v1,v1,-1
80004698:	00431024 	and	v0,v0,v1
8000469c:	afc20014 	sw	v0,20(s8)
800046a0:	8fc20048 	lw	v0,72(s8)
800046a4:	8c430100 	lw	v1,256(v0)
800046a8:	8fc20050 	lw	v0,80(s8)
800046ac:	00621021 	addu	v0,v1,v0
800046b0:	2450ffff 	addiu	s0,v0,-1
800046b4:	3c028002 	lui	v0,0x8002
800046b8:	2442f51c 	addiu	v0,v0,-2788
800046bc:	90420025 	lbu	v0,37(v0)
800046c0:	00021240 	sll	v0,v0,0x9
800046c4:	00402025 	move	a0,v0
800046c8:	0c001d9a 	jal	80007668 <fs_wa>
800046cc:	00000000 	nop
800046d0:	00501006 	srlv	v0,s0,v0
800046d4:	afc20028 	sw	v0,40(s8)
800046d8:	8fc20048 	lw	v0,72(s8)
800046dc:	8c430100 	lw	v1,256(v0)
800046e0:	8fc20050 	lw	v0,80(s8)
800046e4:	00621021 	addu	v0,v1,v0
800046e8:	2442ffff 	addiu	v0,v0,-1
800046ec:	3c038002 	lui	v1,0x8002
800046f0:	2463f51c 	addiu	v1,v1,-2788
800046f4:	90630025 	lbu	v1,37(v1)
800046f8:	00031a40 	sll	v1,v1,0x9
800046fc:	2463ffff 	addiu	v1,v1,-1
80004700:	00431024 	and	v0,v0,v1
80004704:	afc2002c 	sw	v0,44(s8)
80004708:	afc0001c 	sw	zero,28(s8)
8000470c:	10000011 	b	80004754 <fs_read+0x1a4>
80004710:	00000000 	nop
80004714:	27c20034 	addiu	v0,s8,52
80004718:	8fc40018 	lw	a0,24(s8)
8000471c:	00402825 	move	a1,v0
80004720:	0c001ddc 	jal	80007770 <get_fat_entry_value>
80004724:	00000000 	nop
80004728:	00401825 	move	v1,v0
8000472c:	24020001 	li	v0,1
80004730:	14620003 	bne	v1,v0,80004740 <fs_read+0x190>
80004734:	00000000 	nop
80004738:	10000082 	b	80004944 <fs_read+0x394>
8000473c:	00000000 	nop
80004740:	8fc20034 	lw	v0,52(s8)
80004744:	afc20018 	sw	v0,24(s8)
80004748:	8fc2001c 	lw	v0,28(s8)
8000474c:	24420001 	addiu	v0,v0,1
80004750:	afc2001c 	sw	v0,28(s8)
80004754:	8fc3001c 	lw	v1,28(s8)
80004758:	8fc20010 	lw	v0,16(s8)
8000475c:	0062102b 	sltu	v0,v1,v0
80004760:	1440ffec 	bnez	v0,80004714 <fs_read+0x164>
80004764:	00000000 	nop
80004768:	afc00020 	sw	zero,32(s8)
8000476c:	10000067 	b	8000490c <fs_read+0x35c>
80004770:	00000000 	nop
80004774:	8fc20048 	lw	v0,72(s8)
80004778:	24500130 	addiu	s0,v0,304
8000477c:	8fc40018 	lw	a0,24(s8)
80004780:	0c001e7b 	jal	800079ec <fs_dataclus2sec>
80004784:	00000000 	nop
80004788:	00401825 	move	v1,v0
8000478c:	8fc20048 	lw	v0,72(s8)
80004790:	2442012c 	addiu	v0,v0,300
80004794:	02002025 	move	a0,s0
80004798:	00602825 	move	a1,v1
8000479c:	00403025 	move	a2,v0
800047a0:	24070004 	li	a3,4
800047a4:	0c001f67 	jal	80007d9c <fs_read_4k>
800047a8:	00000000 	nop
800047ac:	afc20030 	sw	v0,48(s8)
800047b0:	8fc30030 	lw	v1,48(s8)
800047b4:	2402ffff 	li	v0,-1
800047b8:	14620003 	bne	v1,v0,800047c8 <fs_read+0x218>
800047bc:	00000000 	nop
800047c0:	10000060 	b	80004944 <fs_read+0x394>
800047c4:	00000000 	nop
800047c8:	8fc30010 	lw	v1,16(s8)
800047cc:	8fc20028 	lw	v0,40(s8)
800047d0:	1462001e 	bne	v1,v0,8000484c <fs_read+0x29c>
800047d4:	00000000 	nop
800047d8:	8fc20014 	lw	v0,20(s8)
800047dc:	afc2001c 	sw	v0,28(s8)
800047e0:	10000013 	b	80004830 <fs_read+0x280>
800047e4:	00000000 	nop
800047e8:	8fc20020 	lw	v0,32(s8)
800047ec:	24430001 	addiu	v1,v0,1
800047f0:	afc30020 	sw	v1,32(s8)
800047f4:	8fc3004c 	lw	v1,76(s8)
800047f8:	00621821 	addu	v1,v1,v0
800047fc:	8fc40048 	lw	a0,72(s8)
80004800:	8fc20030 	lw	v0,48(s8)
80004804:	000210c0 	sll	v0,v0,0x3
80004808:	00022a40 	sll	a1,v0,0x9
8000480c:	00451021 	addu	v0,v0,a1
80004810:	00822021 	addu	a0,a0,v0
80004814:	8fc2001c 	lw	v0,28(s8)
80004818:	00821021 	addu	v0,a0,v0
8000481c:	90420130 	lbu	v0,304(v0)
80004820:	a0620000 	sb	v0,0(v1)
80004824:	8fc2001c 	lw	v0,28(s8)
80004828:	24420001 	addiu	v0,v0,1
8000482c:	afc2001c 	sw	v0,28(s8)
80004830:	8fc3001c 	lw	v1,28(s8)
80004834:	8fc2002c 	lw	v0,44(s8)
80004838:	0043102b 	sltu	v0,v0,v1
8000483c:	1040ffea 	beqz	v0,800047e8 <fs_read+0x238>
80004840:	00000000 	nop
80004844:	10000036 	b	80004920 <fs_read+0x370>
80004848:	00000000 	nop
8000484c:	8fc20014 	lw	v0,20(s8)
80004850:	afc2001c 	sw	v0,28(s8)
80004854:	10000013 	b	800048a4 <fs_read+0x2f4>
80004858:	00000000 	nop
8000485c:	8fc20020 	lw	v0,32(s8)
80004860:	24430001 	addiu	v1,v0,1
80004864:	afc30020 	sw	v1,32(s8)
80004868:	8fc3004c 	lw	v1,76(s8)
8000486c:	00621821 	addu	v1,v1,v0
80004870:	8fc40048 	lw	a0,72(s8)
80004874:	8fc20030 	lw	v0,48(s8)
80004878:	000210c0 	sll	v0,v0,0x3
8000487c:	00022a40 	sll	a1,v0,0x9
80004880:	00451021 	addu	v0,v0,a1
80004884:	00822021 	addu	a0,a0,v0
80004888:	8fc2001c 	lw	v0,28(s8)
8000488c:	00821021 	addu	v0,a0,v0
80004890:	90420130 	lbu	v0,304(v0)
80004894:	a0620000 	sb	v0,0(v1)
80004898:	8fc2001c 	lw	v0,28(s8)
8000489c:	24420001 	addiu	v0,v0,1
800048a0:	afc2001c 	sw	v0,28(s8)
800048a4:	3c028002 	lui	v0,0x8002
800048a8:	2442f51c 	addiu	v0,v0,-2788
800048ac:	90420025 	lbu	v0,37(v0)
800048b0:	00021240 	sll	v0,v0,0x9
800048b4:	00401825 	move	v1,v0
800048b8:	8fc2001c 	lw	v0,28(s8)
800048bc:	0043102b 	sltu	v0,v0,v1
800048c0:	1440ffe6 	bnez	v0,8000485c <fs_read+0x2ac>
800048c4:	00000000 	nop
800048c8:	8fc20010 	lw	v0,16(s8)
800048cc:	24420001 	addiu	v0,v0,1
800048d0:	afc20010 	sw	v0,16(s8)
800048d4:	afc00014 	sw	zero,20(s8)
800048d8:	27c20034 	addiu	v0,s8,52
800048dc:	8fc40018 	lw	a0,24(s8)
800048e0:	00402825 	move	a1,v0
800048e4:	0c001ddc 	jal	80007770 <get_fat_entry_value>
800048e8:	00000000 	nop
800048ec:	00401825 	move	v1,v0
800048f0:	24020001 	li	v0,1
800048f4:	14620003 	bne	v1,v0,80004904 <fs_read+0x354>
800048f8:	00000000 	nop
800048fc:	10000011 	b	80004944 <fs_read+0x394>
80004900:	00000000 	nop
80004904:	8fc20034 	lw	v0,52(s8)
80004908:	afc20018 	sw	v0,24(s8)
8000490c:	8fc30010 	lw	v1,16(s8)
80004910:	8fc20028 	lw	v0,40(s8)
80004914:	0043102b 	sltu	v0,v0,v1
80004918:	1040ff96 	beqz	v0,80004774 <fs_read+0x1c4>
8000491c:	00000000 	nop
80004920:	8fc20048 	lw	v0,72(s8)
80004924:	8c430100 	lw	v1,256(v0)
80004928:	8fc20050 	lw	v0,80(s8)
8000492c:	00621821 	addu	v1,v1,v0
80004930:	8fc20048 	lw	v0,72(s8)
80004934:	ac430100 	sw	v1,256(v0)
80004938:	8fc20020 	lw	v0,32(s8)
8000493c:	10000002 	b	80004948 <fs_read+0x398>
80004940:	00000000 	nop
80004944:	2402ffff 	li	v0,-1
80004948:	03c0e825 	move	sp,s8
8000494c:	8fbf0044 	lw	ra,68(sp)
80004950:	8fbe0040 	lw	s8,64(sp)
80004954:	8fb0003c 	lw	s0,60(sp)
80004958:	27bd0048 	addiu	sp,sp,72
8000495c:	03e00008 	jr	ra
80004960:	00000000 	nop

80004964 <fs_next_free>:
80004964:	27bdffe0 	addiu	sp,sp,-32
80004968:	afbf001c 	sw	ra,28(sp)
8000496c:	afbe0018 	sw	s8,24(sp)
80004970:	03a0f025 	move	s8,sp
80004974:	afc40020 	sw	a0,32(s8)
80004978:	afc50024 	sw	a1,36(s8)
8000497c:	8fc20024 	lw	v0,36(s8)
80004980:	2403ffff 	li	v1,-1
80004984:	ac430000 	sw	v1,0(v0)
80004988:	8fc20020 	lw	v0,32(s8)
8000498c:	afc20010 	sw	v0,16(s8)
80004990:	10000019 	b	800049f8 <fs_next_free+0x94>
80004994:	00000000 	nop
80004998:	27c20014 	addiu	v0,s8,20
8000499c:	8fc40010 	lw	a0,16(s8)
800049a0:	00402825 	move	a1,v0
800049a4:	0c001ddc 	jal	80007770 <get_fat_entry_value>
800049a8:	00000000 	nop
800049ac:	00401825 	move	v1,v0
800049b0:	24020001 	li	v0,1
800049b4:	14620005 	bne	v1,v0,800049cc <fs_next_free+0x68>
800049b8:	00000000 	nop
800049bc:	00000000 	nop
800049c0:	24020001 	li	v0,1
800049c4:	10000015 	b	80004a1c <fs_next_free+0xb8>
800049c8:	00000000 	nop
800049cc:	8fc20014 	lw	v0,20(s8)
800049d0:	14400006 	bnez	v0,800049ec <fs_next_free+0x88>
800049d4:	00000000 	nop
800049d8:	8fc20024 	lw	v0,36(s8)
800049dc:	8fc30010 	lw	v1,16(s8)
800049e0:	ac430000 	sw	v1,0(v0)
800049e4:	1000000c 	b	80004a18 <fs_next_free+0xb4>
800049e8:	00000000 	nop
800049ec:	8fc20010 	lw	v0,16(s8)
800049f0:	24420001 	addiu	v0,v0,1
800049f4:	afc20010 	sw	v0,16(s8)
800049f8:	3c028002 	lui	v0,0x8002
800049fc:	2442f51c 	addiu	v0,v0,-2788
80004a00:	8c42000c 	lw	v0,12(v0)
80004a04:	24430001 	addiu	v1,v0,1
80004a08:	8fc20010 	lw	v0,16(s8)
80004a0c:	0062102b 	sltu	v0,v1,v0
80004a10:	1040ffe1 	beqz	v0,80004998 <fs_next_free+0x34>
80004a14:	00000000 	nop
80004a18:	00001025 	move	v0,zero
80004a1c:	03c0e825 	move	sp,s8
80004a20:	8fbf001c 	lw	ra,28(sp)
80004a24:	8fbe0018 	lw	s8,24(sp)
80004a28:	27bd0020 	addiu	sp,sp,32
80004a2c:	03e00008 	jr	ra
80004a30:	00000000 	nop

80004a34 <fs_alloc>:
80004a34:	27bdffe0 	addiu	sp,sp,-32
80004a38:	afbf001c 	sw	ra,28(sp)
80004a3c:	afbe0018 	sw	s8,24(sp)
80004a40:	03a0f025 	move	s8,sp
80004a44:	afc40020 	sw	a0,32(s8)
80004a48:	3c028002 	lui	v0,0x8002
80004a4c:	2444f920 	addiu	a0,v0,-1760
80004a50:	0c001d49 	jal	80007524 <get_uint32_t>
80004a54:	00000000 	nop
80004a58:	24420001 	addiu	v0,v0,1
80004a5c:	afc20010 	sw	v0,16(s8)
80004a60:	3c028002 	lui	v0,0x8002
80004a64:	2444f91c 	addiu	a0,v0,-1764
80004a68:	0c001d49 	jal	80007524 <get_uint32_t>
80004a6c:	00000000 	nop
80004a70:	24430001 	addiu	v1,v0,1
80004a74:	8fc20010 	lw	v0,16(s8)
80004a78:	0062102b 	sltu	v0,v1,v0
80004a7c:	10400017 	beqz	v0,80004adc <fs_alloc+0xa8>
80004a80:	00000000 	nop
80004a84:	24040002 	li	a0,2
80004a88:	27c20010 	addiu	v0,s8,16
80004a8c:	00402825 	move	a1,v0
80004a90:	0c001259 	jal	80004964 <fs_next_free>
80004a94:	00000000 	nop
80004a98:	00401825 	move	v1,v0
80004a9c:	24020001 	li	v0,1
80004aa0:	14620003 	bne	v1,v0,80004ab0 <fs_alloc+0x7c>
80004aa4:	00000000 	nop
80004aa8:	1000004e 	b	80004be4 <fs_alloc+0x1b0>
80004aac:	00000000 	nop
80004ab0:	8fc20010 	lw	v0,16(s8)
80004ab4:	00402025 	move	a0,v0
80004ab8:	2405ffff 	li	a1,-1
80004abc:	0c001e0f 	jal	8000783c <fs_modify_fat>
80004ac0:	00000000 	nop
80004ac4:	00401825 	move	v1,v0
80004ac8:	24020001 	li	v0,1
80004acc:	14620003 	bne	v1,v0,80004adc <fs_alloc+0xa8>
80004ad0:	00000000 	nop
80004ad4:	10000043 	b	80004be4 <fs_alloc+0x1b0>
80004ad8:	00000000 	nop
80004adc:	8fc20010 	lw	v0,16(s8)
80004ae0:	00402025 	move	a0,v0
80004ae4:	2405ffff 	li	a1,-1
80004ae8:	0c001e0f 	jal	8000783c <fs_modify_fat>
80004aec:	00000000 	nop
80004af0:	00401825 	move	v1,v0
80004af4:	24020001 	li	v0,1
80004af8:	14620003 	bne	v1,v0,80004b08 <fs_alloc+0xd4>
80004afc:	00000000 	nop
80004b00:	10000038 	b	80004be4 <fs_alloc+0x1b0>
80004b04:	00000000 	nop
80004b08:	8fc30010 	lw	v1,16(s8)
80004b0c:	27c20014 	addiu	v0,s8,20
80004b10:	00602025 	move	a0,v1
80004b14:	00402825 	move	a1,v0
80004b18:	0c001259 	jal	80004964 <fs_next_free>
80004b1c:	00000000 	nop
80004b20:	00401825 	move	v1,v0
80004b24:	24020001 	li	v0,1
80004b28:	14620003 	bne	v1,v0,80004b38 <fs_alloc+0x104>
80004b2c:	00000000 	nop
80004b30:	1000002c 	b	80004be4 <fs_alloc+0x1b0>
80004b34:	00000000 	nop
80004b38:	3c028002 	lui	v0,0x8002
80004b3c:	2442f51c 	addiu	v0,v0,-2788
80004b40:	8c42000c 	lw	v0,12(v0)
80004b44:	24430001 	addiu	v1,v0,1
80004b48:	8fc20014 	lw	v0,20(s8)
80004b4c:	0062102b 	sltu	v0,v1,v0
80004b50:	10400003 	beqz	v0,80004b60 <fs_alloc+0x12c>
80004b54:	00000000 	nop
80004b58:	10000022 	b	80004be4 <fs_alloc+0x1b0>
80004b5c:	00000000 	nop
80004b60:	8fc20014 	lw	v0,20(s8)
80004b64:	2443ffff 	addiu	v1,v0,-1
80004b68:	3c028002 	lui	v0,0x8002
80004b6c:	2444f920 	addiu	a0,v0,-1760
80004b70:	00602825 	move	a1,v1
80004b74:	0c001d7a 	jal	800075e8 <set_uint32_t>
80004b78:	00000000 	nop
80004b7c:	8fc30010 	lw	v1,16(s8)
80004b80:	8fc20020 	lw	v0,32(s8)
80004b84:	ac430000 	sw	v1,0(v0)
80004b88:	8fc20010 	lw	v0,16(s8)
80004b8c:	00402025 	move	a0,v0
80004b90:	0c001e7b 	jal	800079ec <fs_dataclus2sec>
80004b94:	00000000 	nop
80004b98:	00402825 	move	a1,v0
80004b9c:	3c028002 	lui	v0,0x8002
80004ba0:	2442f51c 	addiu	v0,v0,-2788
80004ba4:	90420025 	lbu	v0,37(v0)
80004ba8:	00401825 	move	v1,v0
80004bac:	3c028002 	lui	v0,0x8002
80004bb0:	2444f944 	addiu	a0,v0,-1724
80004bb4:	00603025 	move	a2,v1
80004bb8:	0c001d23 	jal	8000748c <write_block>
80004bbc:	00000000 	nop
80004bc0:	00401825 	move	v1,v0
80004bc4:	24020001 	li	v0,1
80004bc8:	14620003 	bne	v1,v0,80004bd8 <fs_alloc+0x1a4>
80004bcc:	00000000 	nop
80004bd0:	10000004 	b	80004be4 <fs_alloc+0x1b0>
80004bd4:	00000000 	nop
80004bd8:	00001025 	move	v0,zero
80004bdc:	10000002 	b	80004be8 <fs_alloc+0x1b4>
80004be0:	00000000 	nop
80004be4:	24020001 	li	v0,1
80004be8:	03c0e825 	move	sp,s8
80004bec:	8fbf001c 	lw	ra,28(sp)
80004bf0:	8fbe0018 	lw	s8,24(sp)
80004bf4:	27bd0020 	addiu	sp,sp,32
80004bf8:	03e00008 	jr	ra
80004bfc:	00000000 	nop

80004c00 <fs_write>:
80004c00:	27bdffb0 	addiu	sp,sp,-80
80004c04:	afbf004c 	sw	ra,76(sp)
80004c08:	afbe0048 	sw	s8,72(sp)
80004c0c:	afb10044 	sw	s1,68(sp)
80004c10:	afb00040 	sw	s0,64(sp)
80004c14:	03a0f025 	move	s8,sp
80004c18:	afc40050 	sw	a0,80(s8)
80004c1c:	afc50054 	sw	a1,84(s8)
80004c20:	afc60058 	sw	a2,88(s8)
80004c24:	8fc20058 	lw	v0,88(s8)
80004c28:	14400004 	bnez	v0,80004c3c <fs_write+0x3c>
80004c2c:	00000000 	nop
80004c30:	00001025 	move	v0,zero
80004c34:	1000016c 	b	800051e8 <fs_write+0x5e8>
80004c38:	00000000 	nop
80004c3c:	8fc20050 	lw	v0,80(s8)
80004c40:	8c500100 	lw	s0,256(v0)
80004c44:	3c028002 	lui	v0,0x8002
80004c48:	2442f51c 	addiu	v0,v0,-2788
80004c4c:	90420025 	lbu	v0,37(v0)
80004c50:	00021240 	sll	v0,v0,0x9
80004c54:	00402025 	move	a0,v0
80004c58:	0c001d9a 	jal	80007668 <fs_wa>
80004c5c:	00000000 	nop
80004c60:	00501006 	srlv	v0,s0,v0
80004c64:	afc20010 	sw	v0,16(s8)
80004c68:	8fc20050 	lw	v0,80(s8)
80004c6c:	8c420100 	lw	v0,256(v0)
80004c70:	3c038002 	lui	v1,0x8002
80004c74:	2463f51c 	addiu	v1,v1,-2788
80004c78:	90630025 	lbu	v1,37(v1)
80004c7c:	00031a40 	sll	v1,v1,0x9
80004c80:	2463ffff 	addiu	v1,v1,-1
80004c84:	00431024 	and	v0,v0,v1
80004c88:	afc20014 	sw	v0,20(s8)
80004c8c:	8fc20050 	lw	v0,80(s8)
80004c90:	8c430100 	lw	v1,256(v0)
80004c94:	8fc20058 	lw	v0,88(s8)
80004c98:	00621021 	addu	v0,v1,v0
80004c9c:	2450ffff 	addiu	s0,v0,-1
80004ca0:	3c028002 	lui	v0,0x8002
80004ca4:	2442f51c 	addiu	v0,v0,-2788
80004ca8:	90420025 	lbu	v0,37(v0)
80004cac:	00021240 	sll	v0,v0,0x9
80004cb0:	00402025 	move	a0,v0
80004cb4:	0c001d9a 	jal	80007668 <fs_wa>
80004cb8:	00000000 	nop
80004cbc:	00501006 	srlv	v0,s0,v0
80004cc0:	afc20028 	sw	v0,40(s8)
80004cc4:	8fc20050 	lw	v0,80(s8)
80004cc8:	8c430100 	lw	v1,256(v0)
80004ccc:	8fc20058 	lw	v0,88(s8)
80004cd0:	00621021 	addu	v0,v1,v0
80004cd4:	2442ffff 	addiu	v0,v0,-1
80004cd8:	3c038002 	lui	v1,0x8002
80004cdc:	2463f51c 	addiu	v1,v1,-2788
80004ce0:	90630025 	lbu	v1,37(v1)
80004ce4:	00031a40 	sll	v1,v1,0x9
80004ce8:	2463ffff 	addiu	v1,v1,-1
80004cec:	00431024 	and	v0,v0,v1
80004cf0:	afc2002c 	sw	v0,44(s8)
80004cf4:	8fc40050 	lw	a0,80(s8)
80004cf8:	0c001dcd 	jal	80007734 <get_start_cluster>
80004cfc:	00000000 	nop
80004d00:	afc20034 	sw	v0,52(s8)
80004d04:	8fc20034 	lw	v0,52(s8)
80004d08:	14400028 	bnez	v0,80004dac <fs_write+0x1ac>
80004d0c:	00000000 	nop
80004d10:	27c20034 	addiu	v0,s8,52
80004d14:	00402025 	move	a0,v0
80004d18:	0c00128d 	jal	80004a34 <fs_alloc>
80004d1c:	00000000 	nop
80004d20:	00401825 	move	v1,v0
80004d24:	24020001 	li	v0,1
80004d28:	14620003 	bne	v1,v0,80004d38 <fs_write+0x138>
80004d2c:	00000000 	nop
80004d30:	1000012c 	b	800051e4 <fs_write+0x5e4>
80004d34:	00000000 	nop
80004d38:	8fc20034 	lw	v0,52(s8)
80004d3c:	00021402 	srl	v0,v0,0x10
80004d40:	3043ffff 	andi	v1,v0,0xffff
80004d44:	8fc20050 	lw	v0,80(s8)
80004d48:	a4430120 	sh	v1,288(v0)
80004d4c:	8fc20034 	lw	v0,52(s8)
80004d50:	3043ffff 	andi	v1,v0,0xffff
80004d54:	8fc20050 	lw	v0,80(s8)
80004d58:	a4430126 	sh	v1,294(v0)
80004d5c:	8fc20050 	lw	v0,80(s8)
80004d60:	24510130 	addiu	s1,v0,304
80004d64:	8fc20050 	lw	v0,80(s8)
80004d68:	2450012c 	addiu	s0,v0,300
80004d6c:	8fc20034 	lw	v0,52(s8)
80004d70:	00402025 	move	a0,v0
80004d74:	0c001e7b 	jal	800079ec <fs_dataclus2sec>
80004d78:	00000000 	nop
80004d7c:	02202025 	move	a0,s1
80004d80:	02002825 	move	a1,s0
80004d84:	24060004 	li	a2,4
80004d88:	00403825 	move	a3,v0
80004d8c:	0c001fe2 	jal	80007f88 <fs_clr_4k>
80004d90:	00000000 	nop
80004d94:	00401825 	move	v1,v0
80004d98:	24020001 	li	v0,1
80004d9c:	14620003 	bne	v1,v0,80004dac <fs_write+0x1ac>
80004da0:	00000000 	nop
80004da4:	1000010f 	b	800051e4 <fs_write+0x5e4>
80004da8:	00000000 	nop
80004dac:	afc00018 	sw	zero,24(s8)
80004db0:	10000044 	b	80004ec4 <fs_write+0x2c4>
80004db4:	00000000 	nop
80004db8:	8fc30034 	lw	v1,52(s8)
80004dbc:	27c20038 	addiu	v0,s8,56
80004dc0:	00602025 	move	a0,v1
80004dc4:	00402825 	move	a1,v0
80004dc8:	0c001ddc 	jal	80007770 <get_fat_entry_value>
80004dcc:	00000000 	nop
80004dd0:	00401825 	move	v1,v0
80004dd4:	24020001 	li	v0,1
80004dd8:	14620003 	bne	v1,v0,80004de8 <fs_write+0x1e8>
80004ddc:	00000000 	nop
80004de0:	10000100 	b	800051e4 <fs_write+0x5e4>
80004de4:	00000000 	nop
80004de8:	3c028002 	lui	v0,0x8002
80004dec:	2442f51c 	addiu	v0,v0,-2788
80004df0:	8c42000c 	lw	v0,12(v0)
80004df4:	24430001 	addiu	v1,v0,1
80004df8:	8fc20038 	lw	v0,56(s8)
80004dfc:	0062102b 	sltu	v0,v1,v0
80004e00:	1040002b 	beqz	v0,80004eb0 <fs_write+0x2b0>
80004e04:	00000000 	nop
80004e08:	27c20038 	addiu	v0,s8,56
80004e0c:	00402025 	move	a0,v0
80004e10:	0c00128d 	jal	80004a34 <fs_alloc>
80004e14:	00000000 	nop
80004e18:	00401825 	move	v1,v0
80004e1c:	24020001 	li	v0,1
80004e20:	14620003 	bne	v1,v0,80004e30 <fs_write+0x230>
80004e24:	00000000 	nop
80004e28:	100000ee 	b	800051e4 <fs_write+0x5e4>
80004e2c:	00000000 	nop
80004e30:	8fc30034 	lw	v1,52(s8)
80004e34:	8fc20038 	lw	v0,56(s8)
80004e38:	00602025 	move	a0,v1
80004e3c:	00402825 	move	a1,v0
80004e40:	0c001e0f 	jal	8000783c <fs_modify_fat>
80004e44:	00000000 	nop
80004e48:	00401825 	move	v1,v0
80004e4c:	24020001 	li	v0,1
80004e50:	14620003 	bne	v1,v0,80004e60 <fs_write+0x260>
80004e54:	00000000 	nop
80004e58:	100000e2 	b	800051e4 <fs_write+0x5e4>
80004e5c:	00000000 	nop
80004e60:	8fc20050 	lw	v0,80(s8)
80004e64:	24510130 	addiu	s1,v0,304
80004e68:	8fc20050 	lw	v0,80(s8)
80004e6c:	2450012c 	addiu	s0,v0,300
80004e70:	8fc20038 	lw	v0,56(s8)
80004e74:	00402025 	move	a0,v0
80004e78:	0c001e7b 	jal	800079ec <fs_dataclus2sec>
80004e7c:	00000000 	nop
80004e80:	02202025 	move	a0,s1
80004e84:	02002825 	move	a1,s0
80004e88:	24060004 	li	a2,4
80004e8c:	00403825 	move	a3,v0
80004e90:	0c001fe2 	jal	80007f88 <fs_clr_4k>
80004e94:	00000000 	nop
80004e98:	00401825 	move	v1,v0
80004e9c:	24020001 	li	v0,1
80004ea0:	14620003 	bne	v1,v0,80004eb0 <fs_write+0x2b0>
80004ea4:	00000000 	nop
80004ea8:	100000ce 	b	800051e4 <fs_write+0x5e4>
80004eac:	00000000 	nop
80004eb0:	8fc20038 	lw	v0,56(s8)
80004eb4:	afc20034 	sw	v0,52(s8)
80004eb8:	8fc20018 	lw	v0,24(s8)
80004ebc:	24420001 	addiu	v0,v0,1
80004ec0:	afc20018 	sw	v0,24(s8)
80004ec4:	8fc30018 	lw	v1,24(s8)
80004ec8:	8fc20010 	lw	v0,16(s8)
80004ecc:	0062102b 	sltu	v0,v1,v0
80004ed0:	1440ffb9 	bnez	v0,80004db8 <fs_write+0x1b8>
80004ed4:	00000000 	nop
80004ed8:	afc0001c 	sw	zero,28(s8)
80004edc:	afc00030 	sw	zero,48(s8)
80004ee0:	100000a3 	b	80005170 <fs_write+0x570>
80004ee4:	00000000 	nop
80004ee8:	8fc20050 	lw	v0,80(s8)
80004eec:	24500130 	addiu	s0,v0,304
80004ef0:	8fc20034 	lw	v0,52(s8)
80004ef4:	00402025 	move	a0,v0
80004ef8:	0c001e7b 	jal	800079ec <fs_dataclus2sec>
80004efc:	00000000 	nop
80004f00:	00401825 	move	v1,v0
80004f04:	8fc20050 	lw	v0,80(s8)
80004f08:	2442012c 	addiu	v0,v0,300
80004f0c:	02002025 	move	a0,s0
80004f10:	00602825 	move	a1,v1
80004f14:	00403025 	move	a2,v0
80004f18:	24070004 	li	a3,4
80004f1c:	0c001f67 	jal	80007d9c <fs_read_4k>
80004f20:	00000000 	nop
80004f24:	afc20030 	sw	v0,48(s8)
80004f28:	8fc30030 	lw	v1,48(s8)
80004f2c:	2402ffff 	li	v0,-1
80004f30:	14620003 	bne	v1,v0,80004f40 <fs_write+0x340>
80004f34:	00000000 	nop
80004f38:	100000aa 	b	800051e4 <fs_write+0x5e4>
80004f3c:	00000000 	nop
80004f40:	8fc30050 	lw	v1,80(s8)
80004f44:	8fc20030 	lw	v0,48(s8)
80004f48:	000210c0 	sll	v0,v0,0x3
80004f4c:	00022240 	sll	a0,v0,0x9
80004f50:	00441021 	addu	v0,v0,a0
80004f54:	00621021 	addu	v0,v1,v0
80004f58:	24030003 	li	v1,3
80004f5c:	ac431134 	sw	v1,4404(v0)
80004f60:	8fc30010 	lw	v1,16(s8)
80004f64:	8fc20028 	lw	v0,40(s8)
80004f68:	1462001e 	bne	v1,v0,80004fe4 <fs_write+0x3e4>
80004f6c:	00000000 	nop
80004f70:	8fc20014 	lw	v0,20(s8)
80004f74:	afc20020 	sw	v0,32(s8)
80004f78:	10000013 	b	80004fc8 <fs_write+0x3c8>
80004f7c:	00000000 	nop
80004f80:	8fc2001c 	lw	v0,28(s8)
80004f84:	24430001 	addiu	v1,v0,1
80004f88:	afc3001c 	sw	v1,28(s8)
80004f8c:	8fc30054 	lw	v1,84(s8)
80004f90:	00621021 	addu	v0,v1,v0
80004f94:	90430000 	lbu	v1,0(v0)
80004f98:	8fc40050 	lw	a0,80(s8)
80004f9c:	8fc20030 	lw	v0,48(s8)
80004fa0:	000210c0 	sll	v0,v0,0x3
80004fa4:	00022a40 	sll	a1,v0,0x9
80004fa8:	00451021 	addu	v0,v0,a1
80004fac:	00822021 	addu	a0,a0,v0
80004fb0:	8fc20020 	lw	v0,32(s8)
80004fb4:	00821021 	addu	v0,a0,v0
80004fb8:	a0430130 	sb	v1,304(v0)
80004fbc:	8fc20020 	lw	v0,32(s8)
80004fc0:	24420001 	addiu	v0,v0,1
80004fc4:	afc20020 	sw	v0,32(s8)
80004fc8:	8fc30020 	lw	v1,32(s8)
80004fcc:	8fc2002c 	lw	v0,44(s8)
80004fd0:	0043102b 	sltu	v0,v0,v1
80004fd4:	1040ffea 	beqz	v0,80004f80 <fs_write+0x380>
80004fd8:	00000000 	nop
80004fdc:	10000069 	b	80005184 <fs_write+0x584>
80004fe0:	00000000 	nop
80004fe4:	8fc20014 	lw	v0,20(s8)
80004fe8:	afc20024 	sw	v0,36(s8)
80004fec:	10000013 	b	8000503c <fs_write+0x43c>
80004ff0:	00000000 	nop
80004ff4:	8fc2001c 	lw	v0,28(s8)
80004ff8:	24430001 	addiu	v1,v0,1
80004ffc:	afc3001c 	sw	v1,28(s8)
80005000:	8fc30054 	lw	v1,84(s8)
80005004:	00621021 	addu	v0,v1,v0
80005008:	90430000 	lbu	v1,0(v0)
8000500c:	8fc40050 	lw	a0,80(s8)
80005010:	8fc20030 	lw	v0,48(s8)
80005014:	000210c0 	sll	v0,v0,0x3
80005018:	00022a40 	sll	a1,v0,0x9
8000501c:	00451021 	addu	v0,v0,a1
80005020:	00822021 	addu	a0,a0,v0
80005024:	8fc20024 	lw	v0,36(s8)
80005028:	00821021 	addu	v0,a0,v0
8000502c:	a0430130 	sb	v1,304(v0)
80005030:	8fc20024 	lw	v0,36(s8)
80005034:	24420001 	addiu	v0,v0,1
80005038:	afc20024 	sw	v0,36(s8)
8000503c:	3c028002 	lui	v0,0x8002
80005040:	2442f51c 	addiu	v0,v0,-2788
80005044:	90420025 	lbu	v0,37(v0)
80005048:	00021240 	sll	v0,v0,0x9
8000504c:	00401825 	move	v1,v0
80005050:	8fc20024 	lw	v0,36(s8)
80005054:	0043102b 	sltu	v0,v0,v1
80005058:	1440ffe6 	bnez	v0,80004ff4 <fs_write+0x3f4>
8000505c:	00000000 	nop
80005060:	8fc20010 	lw	v0,16(s8)
80005064:	24420001 	addiu	v0,v0,1
80005068:	afc20010 	sw	v0,16(s8)
8000506c:	afc00014 	sw	zero,20(s8)
80005070:	8fc30034 	lw	v1,52(s8)
80005074:	27c20038 	addiu	v0,s8,56
80005078:	00602025 	move	a0,v1
8000507c:	00402825 	move	a1,v0
80005080:	0c001ddc 	jal	80007770 <get_fat_entry_value>
80005084:	00000000 	nop
80005088:	00401825 	move	v1,v0
8000508c:	24020001 	li	v0,1
80005090:	14620003 	bne	v1,v0,800050a0 <fs_write+0x4a0>
80005094:	00000000 	nop
80005098:	10000052 	b	800051e4 <fs_write+0x5e4>
8000509c:	00000000 	nop
800050a0:	3c028002 	lui	v0,0x8002
800050a4:	2442f51c 	addiu	v0,v0,-2788
800050a8:	8c42000c 	lw	v0,12(v0)
800050ac:	24430001 	addiu	v1,v0,1
800050b0:	8fc20038 	lw	v0,56(s8)
800050b4:	0062102b 	sltu	v0,v1,v0
800050b8:	1040002b 	beqz	v0,80005168 <fs_write+0x568>
800050bc:	00000000 	nop
800050c0:	27c20038 	addiu	v0,s8,56
800050c4:	00402025 	move	a0,v0
800050c8:	0c00128d 	jal	80004a34 <fs_alloc>
800050cc:	00000000 	nop
800050d0:	00401825 	move	v1,v0
800050d4:	24020001 	li	v0,1
800050d8:	14620003 	bne	v1,v0,800050e8 <fs_write+0x4e8>
800050dc:	00000000 	nop
800050e0:	10000040 	b	800051e4 <fs_write+0x5e4>
800050e4:	00000000 	nop
800050e8:	8fc30034 	lw	v1,52(s8)
800050ec:	8fc20038 	lw	v0,56(s8)
800050f0:	00602025 	move	a0,v1
800050f4:	00402825 	move	a1,v0
800050f8:	0c001e0f 	jal	8000783c <fs_modify_fat>
800050fc:	00000000 	nop
80005100:	00401825 	move	v1,v0
80005104:	24020001 	li	v0,1
80005108:	14620003 	bne	v1,v0,80005118 <fs_write+0x518>
8000510c:	00000000 	nop
80005110:	10000034 	b	800051e4 <fs_write+0x5e4>
80005114:	00000000 	nop
80005118:	8fc20050 	lw	v0,80(s8)
8000511c:	24510130 	addiu	s1,v0,304
80005120:	8fc20050 	lw	v0,80(s8)
80005124:	2450012c 	addiu	s0,v0,300
80005128:	8fc20038 	lw	v0,56(s8)
8000512c:	00402025 	move	a0,v0
80005130:	0c001e7b 	jal	800079ec <fs_dataclus2sec>
80005134:	00000000 	nop
80005138:	02202025 	move	a0,s1
8000513c:	02002825 	move	a1,s0
80005140:	24060004 	li	a2,4
80005144:	00403825 	move	a3,v0
80005148:	0c001fe2 	jal	80007f88 <fs_clr_4k>
8000514c:	00000000 	nop
80005150:	00401825 	move	v1,v0
80005154:	24020001 	li	v0,1
80005158:	14620003 	bne	v1,v0,80005168 <fs_write+0x568>
8000515c:	00000000 	nop
80005160:	10000020 	b	800051e4 <fs_write+0x5e4>
80005164:	00000000 	nop
80005168:	8fc20038 	lw	v0,56(s8)
8000516c:	afc20034 	sw	v0,52(s8)
80005170:	8fc30010 	lw	v1,16(s8)
80005174:	8fc20028 	lw	v0,40(s8)
80005178:	0043102b 	sltu	v0,v0,v1
8000517c:	1040ff5a 	beqz	v0,80004ee8 <fs_write+0x2e8>
80005180:	00000000 	nop
80005184:	8fc20050 	lw	v0,80(s8)
80005188:	8c430100 	lw	v1,256(v0)
8000518c:	8fc20058 	lw	v0,88(s8)
80005190:	00621821 	addu	v1,v1,v0
80005194:	8fc20050 	lw	v0,80(s8)
80005198:	8c420128 	lw	v0,296(v0)
8000519c:	0043102b 	sltu	v0,v0,v1
800051a0:	10400007 	beqz	v0,800051c0 <fs_write+0x5c0>
800051a4:	00000000 	nop
800051a8:	8fc20050 	lw	v0,80(s8)
800051ac:	8c430100 	lw	v1,256(v0)
800051b0:	8fc20058 	lw	v0,88(s8)
800051b4:	00621821 	addu	v1,v1,v0
800051b8:	8fc20050 	lw	v0,80(s8)
800051bc:	ac430128 	sw	v1,296(v0)
800051c0:	8fc20050 	lw	v0,80(s8)
800051c4:	8c430100 	lw	v1,256(v0)
800051c8:	8fc20058 	lw	v0,88(s8)
800051cc:	00621821 	addu	v1,v1,v0
800051d0:	8fc20050 	lw	v0,80(s8)
800051d4:	ac430100 	sw	v1,256(v0)
800051d8:	8fc2001c 	lw	v0,28(s8)
800051dc:	10000002 	b	800051e8 <fs_write+0x5e8>
800051e0:	00000000 	nop
800051e4:	2402ffff 	li	v0,-1
800051e8:	03c0e825 	move	sp,s8
800051ec:	8fbf004c 	lw	ra,76(sp)
800051f0:	8fbe0048 	lw	s8,72(sp)
800051f4:	8fb10044 	lw	s1,68(sp)
800051f8:	8fb00040 	lw	s0,64(sp)
800051fc:	27bd0050 	addiu	sp,sp,80
80005200:	03e00008 	jr	ra
80005204:	00000000 	nop

80005208 <fs_lseek>:
80005208:	27bdfff0 	addiu	sp,sp,-16
8000520c:	afbe000c 	sw	s8,12(sp)
80005210:	03a0f025 	move	s8,sp
80005214:	afc40010 	sw	a0,16(s8)
80005218:	afc50014 	sw	a1,20(s8)
8000521c:	8fc20010 	lw	v0,16(s8)
80005220:	8c420128 	lw	v0,296(v0)
80005224:	afc20000 	sw	v0,0(s8)
80005228:	8fc30014 	lw	v1,20(s8)
8000522c:	8fc20000 	lw	v0,0(s8)
80005230:	0062102b 	sltu	v0,v1,v0
80005234:	10400006 	beqz	v0,80005250 <fs_lseek+0x48>
80005238:	00000000 	nop
8000523c:	8fc20010 	lw	v0,16(s8)
80005240:	8fc30014 	lw	v1,20(s8)
80005244:	ac430100 	sw	v1,256(v0)
80005248:	10000004 	b	8000525c <fs_lseek+0x54>
8000524c:	00000000 	nop
80005250:	8fc20010 	lw	v0,16(s8)
80005254:	8fc30000 	lw	v1,0(s8)
80005258:	ac430100 	sw	v1,256(v0)
8000525c:	03c0e825 	move	sp,s8
80005260:	8fbe000c 	lw	s8,12(sp)
80005264:	27bd0010 	addiu	sp,sp,16
80005268:	03e00008 	jr	ra
8000526c:	00000000 	nop

80005270 <fs_find_empty_entry>:
80005270:	27bdffd8 	addiu	sp,sp,-40
80005274:	afbf0024 	sw	ra,36(sp)
80005278:	afbe0020 	sw	s8,32(sp)
8000527c:	03a0f025 	move	s8,sp
80005280:	afc40028 	sw	a0,40(s8)
80005284:	afc5002c 	sw	a1,44(s8)
80005288:	24020001 	li	v0,1
8000528c:	afc20014 	sw	v0,20(s8)
80005290:	100000bb 	b	80005580 <fs_find_empty_entry+0x310>
80005294:	00000000 	nop
80005298:	afc00010 	sw	zero,16(s8)
8000529c:	10000024 	b	80005330 <fs_find_empty_entry+0xc0>
800052a0:	00000000 	nop
800052a4:	8fc2002c 	lw	v0,44(s8)
800052a8:	000210c0 	sll	v0,v0,0x3
800052ac:	00021980 	sll	v1,v0,0x6
800052b0:	00431021 	addu	v0,v0,v1
800052b4:	3c038002 	lui	v1,0x8002
800052b8:	2463ecfc 	addiu	v1,v1,-4868
800052bc:	00431821 	addu	v1,v0,v1
800052c0:	8fc20010 	lw	v0,16(s8)
800052c4:	00621021 	addu	v0,v1,v0
800052c8:	90420000 	lbu	v0,0(v0)
800052cc:	1040000e 	beqz	v0,80005308 <fs_find_empty_entry+0x98>
800052d0:	00000000 	nop
800052d4:	8fc2002c 	lw	v0,44(s8)
800052d8:	000210c0 	sll	v0,v0,0x3
800052dc:	00021980 	sll	v1,v0,0x6
800052e0:	00431021 	addu	v0,v0,v1
800052e4:	3c038002 	lui	v1,0x8002
800052e8:	2463ecfc 	addiu	v1,v1,-4868
800052ec:	00431821 	addu	v1,v0,v1
800052f0:	8fc20010 	lw	v0,16(s8)
800052f4:	00621021 	addu	v0,v1,v0
800052f8:	90430000 	lbu	v1,0(v0)
800052fc:	240200e5 	li	v0,229
80005300:	14620008 	bne	v1,v0,80005324 <fs_find_empty_entry+0xb4>
80005304:	00000000 	nop
80005308:	8fc20028 	lw	v0,40(s8)
8000530c:	8fc30010 	lw	v1,16(s8)
80005310:	ac430000 	sw	v1,0(v0)
80005314:	00000000 	nop
80005318:	8fc2002c 	lw	v0,44(s8)
8000531c:	100000a3 	b	800055ac <fs_find_empty_entry+0x33c>
80005320:	00000000 	nop
80005324:	8fc20010 	lw	v0,16(s8)
80005328:	24420020 	addiu	v0,v0,32
8000532c:	afc20010 	sw	v0,16(s8)
80005330:	8fc20010 	lw	v0,16(s8)
80005334:	2c420200 	sltiu	v0,v0,512
80005338:	1440ffda 	bnez	v0,800052a4 <fs_find_empty_entry+0x34>
8000533c:	00000000 	nop
80005340:	3c028002 	lui	v0,0x8002
80005344:	2442f51c 	addiu	v0,v0,-2788
80005348:	90420025 	lbu	v0,37(v0)
8000534c:	00401825 	move	v1,v0
80005350:	8fc20014 	lw	v0,20(s8)
80005354:	0043102b 	sltu	v0,v0,v1
80005358:	10400019 	beqz	v0,800053c0 <fs_find_empty_entry+0x150>
8000535c:	00000000 	nop
80005360:	3c038002 	lui	v1,0x8002
80005364:	8fc2002c 	lw	v0,44(s8)
80005368:	000210c0 	sll	v0,v0,0x3
8000536c:	00022180 	sll	a0,v0,0x6
80005370:	00441021 	addu	v0,v0,a0
80005374:	2463ecfc 	addiu	v1,v1,-4868
80005378:	00431021 	addu	v0,v0,v1
8000537c:	8c430200 	lw	v1,512(v0)
80005380:	8fc20014 	lw	v0,20(s8)
80005384:	00621821 	addu	v1,v1,v0
80005388:	3c028002 	lui	v0,0x8002
8000538c:	2444ecfc 	addiu	a0,v0,-4868
80005390:	00602825 	move	a1,v1
80005394:	27868098 	addiu	a2,gp,-32616
80005398:	24070004 	li	a3,4
8000539c:	0c0020e5 	jal	80008394 <fs_read_512>
800053a0:	00000000 	nop
800053a4:	afc2002c 	sw	v0,44(s8)
800053a8:	8fc3002c 	lw	v1,44(s8)
800053ac:	2402ffff 	li	v0,-1
800053b0:	14620070 	bne	v1,v0,80005574 <fs_find_empty_entry+0x304>
800053b4:	00000000 	nop
800053b8:	1000007b 	b	800055a8 <fs_find_empty_entry+0x338>
800053bc:	00000000 	nop
800053c0:	3c038002 	lui	v1,0x8002
800053c4:	8fc2002c 	lw	v0,44(s8)
800053c8:	000210c0 	sll	v0,v0,0x3
800053cc:	00022180 	sll	a0,v0,0x6
800053d0:	00441021 	addu	v0,v0,a0
800053d4:	2463ecfc 	addiu	v1,v1,-4868
800053d8:	00431021 	addu	v0,v0,v1
800053dc:	8c420200 	lw	v0,512(v0)
800053e0:	3c038002 	lui	v1,0x8002
800053e4:	2463f51c 	addiu	v1,v1,-2788
800053e8:	90630025 	lbu	v1,37(v1)
800053ec:	00431023 	subu	v0,v0,v1
800053f0:	24430001 	addiu	v1,v0,1
800053f4:	27c20018 	addiu	v0,s8,24
800053f8:	00602025 	move	a0,v1
800053fc:	00402825 	move	a1,v0
80005400:	0c001ddc 	jal	80007770 <get_fat_entry_value>
80005404:	00000000 	nop
80005408:	00401825 	move	v1,v0
8000540c:	24020001 	li	v0,1
80005410:	14620003 	bne	v1,v0,80005420 <fs_find_empty_entry+0x1b0>
80005414:	00000000 	nop
80005418:	10000063 	b	800055a8 <fs_find_empty_entry+0x338>
8000541c:	00000000 	nop
80005420:	3c028002 	lui	v0,0x8002
80005424:	2442f51c 	addiu	v0,v0,-2788
80005428:	8c42000c 	lw	v0,12(v0)
8000542c:	24430001 	addiu	v1,v0,1
80005430:	8fc20018 	lw	v0,24(s8)
80005434:	0062102b 	sltu	v0,v1,v0
80005438:	1040003b 	beqz	v0,80005528 <fs_find_empty_entry+0x2b8>
8000543c:	00000000 	nop
80005440:	27c20018 	addiu	v0,s8,24
80005444:	00402025 	move	a0,v0
80005448:	0c00128d 	jal	80004a34 <fs_alloc>
8000544c:	00000000 	nop
80005450:	00401825 	move	v1,v0
80005454:	24020001 	li	v0,1
80005458:	14620003 	bne	v1,v0,80005468 <fs_find_empty_entry+0x1f8>
8000545c:	00000000 	nop
80005460:	10000051 	b	800055a8 <fs_find_empty_entry+0x338>
80005464:	00000000 	nop
80005468:	3c038002 	lui	v1,0x8002
8000546c:	8fc2002c 	lw	v0,44(s8)
80005470:	000210c0 	sll	v0,v0,0x3
80005474:	00022180 	sll	a0,v0,0x6
80005478:	00441021 	addu	v0,v0,a0
8000547c:	2463ecfc 	addiu	v1,v1,-4868
80005480:	00431021 	addu	v0,v0,v1
80005484:	8c420200 	lw	v0,512(v0)
80005488:	3c038002 	lui	v1,0x8002
8000548c:	2463f51c 	addiu	v1,v1,-2788
80005490:	90630025 	lbu	v1,37(v1)
80005494:	00431023 	subu	v0,v0,v1
80005498:	24420001 	addiu	v0,v0,1
8000549c:	00402025 	move	a0,v0
800054a0:	0c001e95 	jal	80007a54 <fs_sec2dataclus>
800054a4:	00000000 	nop
800054a8:	00401825 	move	v1,v0
800054ac:	8fc20018 	lw	v0,24(s8)
800054b0:	00602025 	move	a0,v1
800054b4:	00402825 	move	a1,v0
800054b8:	0c001e0f 	jal	8000783c <fs_modify_fat>
800054bc:	00000000 	nop
800054c0:	00401825 	move	v1,v0
800054c4:	24020001 	li	v0,1
800054c8:	14620003 	bne	v1,v0,800054d8 <fs_find_empty_entry+0x268>
800054cc:	00000000 	nop
800054d0:	10000035 	b	800055a8 <fs_find_empty_entry+0x338>
800054d4:	00000000 	nop
800054d8:	8fc20028 	lw	v0,40(s8)
800054dc:	ac400000 	sw	zero,0(v0)
800054e0:	8fc20018 	lw	v0,24(s8)
800054e4:	00402025 	move	a0,v0
800054e8:	0c001e7b 	jal	800079ec <fs_dataclus2sec>
800054ec:	00000000 	nop
800054f0:	00401825 	move	v1,v0
800054f4:	3c028002 	lui	v0,0x8002
800054f8:	2444ecfc 	addiu	a0,v0,-4868
800054fc:	27858098 	addiu	a1,gp,-32616
80005500:	24060004 	li	a2,4
80005504:	00603825 	move	a3,v1
80005508:	0c00215c 	jal	80008570 <fs_clr_512>
8000550c:	00000000 	nop
80005510:	00401825 	move	v1,v0
80005514:	24020001 	li	v0,1
80005518:	14620003 	bne	v1,v0,80005528 <fs_find_empty_entry+0x2b8>
8000551c:	00000000 	nop
80005520:	10000021 	b	800055a8 <fs_find_empty_entry+0x338>
80005524:	00000000 	nop
80005528:	8fc20018 	lw	v0,24(s8)
8000552c:	00402025 	move	a0,v0
80005530:	0c001e7b 	jal	800079ec <fs_dataclus2sec>
80005534:	00000000 	nop
80005538:	00401825 	move	v1,v0
8000553c:	3c028002 	lui	v0,0x8002
80005540:	2444ecfc 	addiu	a0,v0,-4868
80005544:	00602825 	move	a1,v1
80005548:	27868098 	addiu	a2,gp,-32616
8000554c:	24070004 	li	a3,4
80005550:	0c0020e5 	jal	80008394 <fs_read_512>
80005554:	00000000 	nop
80005558:	afc2002c 	sw	v0,44(s8)
8000555c:	8fc3002c 	lw	v1,44(s8)
80005560:	2402ffff 	li	v0,-1
80005564:	14620003 	bne	v1,v0,80005574 <fs_find_empty_entry+0x304>
80005568:	00000000 	nop
8000556c:	1000000e 	b	800055a8 <fs_find_empty_entry+0x338>
80005570:	00000000 	nop
80005574:	8fc20014 	lw	v0,20(s8)
80005578:	24420001 	addiu	v0,v0,1
8000557c:	afc20014 	sw	v0,20(s8)
80005580:	3c028002 	lui	v0,0x8002
80005584:	2442f51c 	addiu	v0,v0,-2788
80005588:	90420025 	lbu	v0,37(v0)
8000558c:	00401825 	move	v1,v0
80005590:	8fc20014 	lw	v0,20(s8)
80005594:	0062102b 	sltu	v0,v1,v0
80005598:	1040ff3f 	beqz	v0,80005298 <fs_find_empty_entry+0x28>
8000559c:	00000000 	nop
800055a0:	1000ff39 	b	80005288 <fs_find_empty_entry+0x18>
800055a4:	00000000 	nop
800055a8:	2402ffff 	li	v0,-1
800055ac:	03c0e825 	move	sp,s8
800055b0:	8fbf0024 	lw	ra,36(sp)
800055b4:	8fbe0020 	lw	s8,32(sp)
800055b8:	27bd0028 	addiu	sp,sp,40
800055bc:	03e00008 	jr	ra
800055c0:	00000000 	nop

800055c4 <fs_create_with_attr>:
800055c4:	27bdbe80 	addiu	sp,sp,-16768
800055c8:	afbf417c 	sw	ra,16764(sp)
800055cc:	afbe4178 	sw	s8,16760(sp)
800055d0:	03a0f025 	move	s8,sp
800055d4:	afc44180 	sw	a0,16768(s8)
800055d8:	00a01025 	move	v0,a1
800055dc:	a3c24184 	sb	v0,16772(s8)
800055e0:	afc00018 	sw	zero,24(s8)
800055e4:	afc0001c 	sw	zero,28(s8)
800055e8:	27c20028 	addiu	v0,s8,40
800055ec:	00402025 	move	a0,v0
800055f0:	8fc54180 	lw	a1,16768(s8)
800055f4:	0c001053 	jal	8000414c <fs_open>
800055f8:	00000000 	nop
800055fc:	14400003 	bnez	v0,8000560c <fs_create_with_attr+0x48>
80005600:	00000000 	nop
80005604:	100000f2 	b	800059d0 <fs_create_with_attr+0x40c>
80005608:	00000000 	nop
8000560c:	240200ff 	li	v0,255
80005610:	afc20010 	sw	v0,16(s8)
80005614:	8fc20010 	lw	v0,16(s8)
80005618:	27c30010 	addiu	v1,s8,16
8000561c:	00621021 	addu	v0,v1,v0
80005620:	90420018 	lbu	v0,24(v0)
80005624:	10400008 	beqz	v0,80005648 <fs_create_with_attr+0x84>
80005628:	00000000 	nop
8000562c:	8fc20010 	lw	v0,16(s8)
80005630:	afc2001c 	sw	v0,28(s8)
80005634:	00000000 	nop
80005638:	240200ff 	li	v0,255
8000563c:	afc20010 	sw	v0,16(s8)
80005640:	10000006 	b	8000565c <fs_create_with_attr+0x98>
80005644:	00000000 	nop
80005648:	8fc20010 	lw	v0,16(s8)
8000564c:	2442ffff 	addiu	v0,v0,-1
80005650:	afc20010 	sw	v0,16(s8)
80005654:	1000ffef 	b	80005614 <fs_create_with_attr+0x50>
80005658:	00000000 	nop
8000565c:	8fc20010 	lw	v0,16(s8)
80005660:	27c30010 	addiu	v1,s8,16
80005664:	00621021 	addu	v0,v1,v0
80005668:	90430018 	lbu	v1,24(v0)
8000566c:	2402002f 	li	v0,47
80005670:	14620009 	bne	v1,v0,80005698 <fs_create_with_attr+0xd4>
80005674:	00000000 	nop
80005678:	8fc20010 	lw	v0,16(s8)
8000567c:	afc20018 	sw	v0,24(s8)
80005680:	00000000 	nop
80005684:	8fc20018 	lw	v0,24(s8)
80005688:	1040003d 	beqz	v0,80005780 <fs_create_with_attr+0x1bc>
8000568c:	00000000 	nop
80005690:	10000006 	b	800056ac <fs_create_with_attr+0xe8>
80005694:	00000000 	nop
80005698:	8fc20010 	lw	v0,16(s8)
8000569c:	2442ffff 	addiu	v0,v0,-1
800056a0:	afc20010 	sw	v0,16(s8)
800056a4:	1000ffed 	b	8000565c <fs_create_with_attr+0x98>
800056a8:	00000000 	nop
800056ac:	8fc20018 	lw	v0,24(s8)
800056b0:	afc20010 	sw	v0,16(s8)
800056b4:	10000008 	b	800056d8 <fs_create_with_attr+0x114>
800056b8:	00000000 	nop
800056bc:	8fc20010 	lw	v0,16(s8)
800056c0:	27c30010 	addiu	v1,s8,16
800056c4:	00621021 	addu	v0,v1,v0
800056c8:	a0400018 	sb	zero,24(v0)
800056cc:	8fc20010 	lw	v0,16(s8)
800056d0:	24420001 	addiu	v0,v0,1
800056d4:	afc20010 	sw	v0,16(s8)
800056d8:	8fc30010 	lw	v1,16(s8)
800056dc:	8fc2001c 	lw	v0,28(s8)
800056e0:	0043102b 	sltu	v0,v0,v1
800056e4:	1040fff5 	beqz	v0,800056bc <fs_create_with_attr+0xf8>
800056e8:	00000000 	nop
800056ec:	27c20028 	addiu	v0,s8,40
800056f0:	00402025 	move	a0,v0
800056f4:	0c000f1c 	jal	80003c70 <fs_find>
800056f8:	00000000 	nop
800056fc:	00401825 	move	v1,v0
80005700:	24020001 	li	v0,1
80005704:	14620003 	bne	v1,v0,80005714 <fs_create_with_attr+0x150>
80005708:	00000000 	nop
8000570c:	100000b0 	b	800059d0 <fs_create_with_attr+0x40c>
80005710:	00000000 	nop
80005714:	27c20028 	addiu	v0,s8,40
80005718:	00402025 	move	a0,v0
8000571c:	0c001dcd 	jal	80007734 <get_start_cluster>
80005720:	00000000 	nop
80005724:	afc20020 	sw	v0,32(s8)
80005728:	8fc40020 	lw	a0,32(s8)
8000572c:	0c001e7b 	jal	800079ec <fs_dataclus2sec>
80005730:	00000000 	nop
80005734:	00401825 	move	v1,v0
80005738:	3c028002 	lui	v0,0x8002
8000573c:	2444ecfc 	addiu	a0,v0,-4868
80005740:	00602825 	move	a1,v1
80005744:	27868098 	addiu	a2,gp,-32616
80005748:	24070004 	li	a3,4
8000574c:	0c0020e5 	jal	80008394 <fs_read_512>
80005750:	00000000 	nop
80005754:	afc20014 	sw	v0,20(s8)
80005758:	8fc30014 	lw	v1,20(s8)
8000575c:	2402ffff 	li	v0,-1
80005760:	14620003 	bne	v1,v0,80005770 <fs_create_with_attr+0x1ac>
80005764:	00000000 	nop
80005768:	10000099 	b	800059d0 <fs_create_with_attr+0x40c>
8000576c:	00000000 	nop
80005770:	8fc20020 	lw	v0,32(s8)
80005774:	afc2012c 	sw	v0,300(s8)
80005778:	10000015 	b	800057d0 <fs_create_with_attr+0x20c>
8000577c:	00000000 	nop
80005780:	24040002 	li	a0,2
80005784:	0c001e7b 	jal	800079ec <fs_dataclus2sec>
80005788:	00000000 	nop
8000578c:	00401825 	move	v1,v0
80005790:	3c028002 	lui	v0,0x8002
80005794:	2444ecfc 	addiu	a0,v0,-4868
80005798:	00602825 	move	a1,v1
8000579c:	27868098 	addiu	a2,gp,-32616
800057a0:	24070004 	li	a3,4
800057a4:	0c0020e5 	jal	80008394 <fs_read_512>
800057a8:	00000000 	nop
800057ac:	afc20014 	sw	v0,20(s8)
800057b0:	8fc30014 	lw	v1,20(s8)
800057b4:	2402ffff 	li	v0,-1
800057b8:	14620003 	bne	v1,v0,800057c8 <fs_create_with_attr+0x204>
800057bc:	00000000 	nop
800057c0:	10000083 	b	800059d0 <fs_create_with_attr+0x40c>
800057c4:	00000000 	nop
800057c8:	24020002 	li	v0,2
800057cc:	afc2012c 	sw	v0,300(s8)
800057d0:	27c20024 	addiu	v0,s8,36
800057d4:	00402025 	move	a0,v0
800057d8:	8fc50014 	lw	a1,20(s8)
800057dc:	0c00149c 	jal	80005270 <fs_find_empty_entry>
800057e0:	00000000 	nop
800057e4:	afc20014 	sw	v0,20(s8)
800057e8:	8fc30014 	lw	v1,20(s8)
800057ec:	2402ffff 	li	v0,-1
800057f0:	14620003 	bne	v1,v0,80005800 <fs_create_with_attr+0x23c>
800057f4:	00000000 	nop
800057f8:	10000075 	b	800059d0 <fs_create_with_attr+0x40c>
800057fc:	00000000 	nop
80005800:	8fc20018 	lw	v0,24(s8)
80005804:	24420001 	addiu	v0,v0,1
80005808:	afc20010 	sw	v0,16(s8)
8000580c:	1000000f 	b	8000584c <fs_create_with_attr+0x288>
80005810:	00000000 	nop
80005814:	8fc30010 	lw	v1,16(s8)
80005818:	8fc20018 	lw	v0,24(s8)
8000581c:	00621023 	subu	v0,v1,v0
80005820:	2442ffff 	addiu	v0,v0,-1
80005824:	8fc44180 	lw	a0,16768(s8)
80005828:	8fc30010 	lw	v1,16(s8)
8000582c:	00831821 	addu	v1,a0,v1
80005830:	90630000 	lbu	v1,0(v1)
80005834:	27c40010 	addiu	a0,s8,16
80005838:	00821021 	addu	v0,a0,v0
8000583c:	a0430018 	sb	v1,24(v0)
80005840:	8fc20010 	lw	v0,16(s8)
80005844:	24420001 	addiu	v0,v0,1
80005848:	afc20010 	sw	v0,16(s8)
8000584c:	8fc30010 	lw	v1,16(s8)
80005850:	8fc2001c 	lw	v0,28(s8)
80005854:	0043102b 	sltu	v0,v0,v1
80005858:	1040ffee 	beqz	v0,80005814 <fs_create_with_attr+0x250>
8000585c:	00000000 	nop
80005860:	8fc3001c 	lw	v1,28(s8)
80005864:	8fc20018 	lw	v0,24(s8)
80005868:	00621023 	subu	v0,v1,v0
8000586c:	27c30010 	addiu	v1,s8,16
80005870:	00621021 	addu	v0,v1,v0
80005874:	a0400018 	sb	zero,24(v0)
80005878:	27c20028 	addiu	v0,s8,40
8000587c:	00402025 	move	a0,v0
80005880:	0c000e55 	jal	80003954 <fs_next_slash>
80005884:	00000000 	nop
80005888:	3c038002 	lui	v1,0x8002
8000588c:	8fc20014 	lw	v0,20(s8)
80005890:	000210c0 	sll	v0,v0,0x3
80005894:	00022180 	sll	a0,v0,0x6
80005898:	00441021 	addu	v0,v0,a0
8000589c:	2463ecfc 	addiu	v1,v1,-4868
800058a0:	00431021 	addu	v0,v0,v1
800058a4:	24030003 	li	v1,3
800058a8:	ac430204 	sw	v1,516(v0)
800058ac:	afc00010 	sw	zero,16(s8)
800058b0:	10000015 	b	80005908 <fs_create_with_attr+0x344>
800058b4:	00000000 	nop
800058b8:	8fc20014 	lw	v0,20(s8)
800058bc:	000210c0 	sll	v0,v0,0x3
800058c0:	00021980 	sll	v1,v0,0x6
800058c4:	00431021 	addu	v0,v0,v1
800058c8:	3c038002 	lui	v1,0x8002
800058cc:	2463ecfc 	addiu	v1,v1,-4868
800058d0:	00431821 	addu	v1,v0,v1
800058d4:	8fc40024 	lw	a0,36(s8)
800058d8:	8fc20010 	lw	v0,16(s8)
800058dc:	00821021 	addu	v0,a0,v0
800058e0:	00621021 	addu	v0,v1,v0
800058e4:	3c038002 	lui	v1,0x8002
800058e8:	2464f934 	addiu	a0,v1,-1740
800058ec:	8fc30010 	lw	v1,16(s8)
800058f0:	00831821 	addu	v1,a0,v1
800058f4:	90630000 	lbu	v1,0(v1)
800058f8:	a0430000 	sb	v1,0(v0)
800058fc:	8fc20010 	lw	v0,16(s8)
80005900:	24420001 	addiu	v0,v0,1
80005904:	afc20010 	sw	v0,16(s8)
80005908:	8fc20010 	lw	v0,16(s8)
8000590c:	2c42000b 	sltiu	v0,v0,11
80005910:	1440ffe9 	bnez	v0,800058b8 <fs_create_with_attr+0x2f4>
80005914:	00000000 	nop
80005918:	8fc20014 	lw	v0,20(s8)
8000591c:	000210c0 	sll	v0,v0,0x3
80005920:	00021980 	sll	v1,v0,0x6
80005924:	00431021 	addu	v0,v0,v1
80005928:	3c038002 	lui	v1,0x8002
8000592c:	2463ecfc 	addiu	v1,v1,-4868
80005930:	00431821 	addu	v1,v0,v1
80005934:	8fc20024 	lw	v0,36(s8)
80005938:	2442000b 	addiu	v0,v0,11
8000593c:	00621021 	addu	v0,v1,v0
80005940:	93c34184 	lbu	v1,16772(s8)
80005944:	a0430000 	sb	v1,0(v0)
80005948:	2402000c 	li	v0,12
8000594c:	afc20010 	sw	v0,16(s8)
80005950:	10000010 	b	80005994 <fs_create_with_attr+0x3d0>
80005954:	00000000 	nop
80005958:	8fc20014 	lw	v0,20(s8)
8000595c:	000210c0 	sll	v0,v0,0x3
80005960:	00021980 	sll	v1,v0,0x6
80005964:	00431021 	addu	v0,v0,v1
80005968:	3c038002 	lui	v1,0x8002
8000596c:	2463ecfc 	addiu	v1,v1,-4868
80005970:	00431821 	addu	v1,v0,v1
80005974:	8fc40024 	lw	a0,36(s8)
80005978:	8fc20010 	lw	v0,16(s8)
8000597c:	00821021 	addu	v0,a0,v0
80005980:	00621021 	addu	v0,v1,v0
80005984:	a0400000 	sb	zero,0(v0)
80005988:	8fc20010 	lw	v0,16(s8)
8000598c:	24420001 	addiu	v0,v0,1
80005990:	afc20010 	sw	v0,16(s8)
80005994:	8fc20010 	lw	v0,16(s8)
80005998:	2c420020 	sltiu	v0,v0,32
8000599c:	1440ffee 	bnez	v0,80005958 <fs_create_with_attr+0x394>
800059a0:	00000000 	nop
800059a4:	0c0010ae 	jal	800042b8 <fs_fflush>
800059a8:	00000000 	nop
800059ac:	00401825 	move	v1,v0
800059b0:	24020001 	li	v0,1
800059b4:	14620003 	bne	v1,v0,800059c4 <fs_create_with_attr+0x400>
800059b8:	00000000 	nop
800059bc:	10000004 	b	800059d0 <fs_create_with_attr+0x40c>
800059c0:	00000000 	nop
800059c4:	00001025 	move	v0,zero
800059c8:	10000002 	b	800059d4 <fs_create_with_attr+0x410>
800059cc:	00000000 	nop
800059d0:	24020001 	li	v0,1
800059d4:	03c0e825 	move	sp,s8
800059d8:	8fbf417c 	lw	ra,16764(sp)
800059dc:	8fbe4178 	lw	s8,16760(sp)
800059e0:	27bd4180 	addiu	sp,sp,16768
800059e4:	03e00008 	jr	ra
800059e8:	00000000 	nop

800059ec <fs_create>:
800059ec:	27bdffe8 	addiu	sp,sp,-24
800059f0:	afbf0014 	sw	ra,20(sp)
800059f4:	afbe0010 	sw	s8,16(sp)
800059f8:	03a0f025 	move	s8,sp
800059fc:	afc40018 	sw	a0,24(s8)
80005a00:	8fc40018 	lw	a0,24(s8)
80005a04:	24050020 	li	a1,32
80005a08:	0c001571 	jal	800055c4 <fs_create_with_attr>
80005a0c:	00000000 	nop
80005a10:	03c0e825 	move	sp,s8
80005a14:	8fbf0014 	lw	ra,20(sp)
80005a18:	8fbe0010 	lw	s8,16(sp)
80005a1c:	27bd0018 	addiu	sp,sp,24
80005a20:	03e00008 	jr	ra
80005a24:	00000000 	nop

80005a28 <get_filename>:
80005a28:	27bdffe8 	addiu	sp,sp,-24
80005a2c:	afbe0014 	sw	s8,20(sp)
80005a30:	03a0f025 	move	s8,sp
80005a34:	afc40018 	sw	a0,24(s8)
80005a38:	afc5001c 	sw	a1,28(s8)
80005a3c:	afc00004 	sw	zero,4(s8)
80005a40:	24020008 	li	v0,8
80005a44:	afc20008 	sw	v0,8(s8)
80005a48:	afc00000 	sw	zero,0(s8)
80005a4c:	1000000c 	b	80005a80 <get_filename+0x58>
80005a50:	00000000 	nop
80005a54:	8fc3001c 	lw	v1,28(s8)
80005a58:	8fc20000 	lw	v0,0(s8)
80005a5c:	00621021 	addu	v0,v1,v0
80005a60:	8fc40018 	lw	a0,24(s8)
80005a64:	8fc30000 	lw	v1,0(s8)
80005a68:	00831821 	addu	v1,a0,v1
80005a6c:	90630000 	lbu	v1,0(v1)
80005a70:	a0430000 	sb	v1,0(v0)
80005a74:	8fc20000 	lw	v0,0(s8)
80005a78:	24420001 	addiu	v0,v0,1
80005a7c:	afc20000 	sw	v0,0(s8)
80005a80:	8fc20000 	lw	v0,0(s8)
80005a84:	2c42000b 	sltiu	v0,v0,11
80005a88:	1440fff2 	bnez	v0,80005a54 <get_filename+0x2c>
80005a8c:	00000000 	nop
80005a90:	8fc2001c 	lw	v0,28(s8)
80005a94:	90430000 	lbu	v1,0(v0)
80005a98:	2402002e 	li	v0,46
80005a9c:	14620011 	bne	v1,v0,80005ae4 <get_filename+0xbc>
80005aa0:	00000000 	nop
80005aa4:	8fc2001c 	lw	v0,28(s8)
80005aa8:	24420001 	addiu	v0,v0,1
80005aac:	90430000 	lbu	v1,0(v0)
80005ab0:	2402002e 	li	v0,46
80005ab4:	14620006 	bne	v1,v0,80005ad0 <get_filename+0xa8>
80005ab8:	00000000 	nop
80005abc:	8fc2001c 	lw	v0,28(s8)
80005ac0:	24420002 	addiu	v0,v0,2
80005ac4:	a0400000 	sb	zero,0(v0)
80005ac8:	1000007c 	b	80005cbc <get_filename+0x294>
80005acc:	00000000 	nop
80005ad0:	8fc2001c 	lw	v0,28(s8)
80005ad4:	24420001 	addiu	v0,v0,1
80005ad8:	a0400000 	sb	zero,0(v0)
80005adc:	10000077 	b	80005cbc <get_filename+0x294>
80005ae0:	00000000 	nop
80005ae4:	afc00000 	sw	zero,0(s8)
80005ae8:	10000014 	b	80005b3c <get_filename+0x114>
80005aec:	00000000 	nop
80005af0:	8fc3001c 	lw	v1,28(s8)
80005af4:	8fc20000 	lw	v0,0(s8)
80005af8:	00621021 	addu	v0,v1,v0
80005afc:	90430000 	lbu	v1,0(v0)
80005b00:	24020020 	li	v0,32
80005b04:	1462000a 	bne	v1,v0,80005b30 <get_filename+0x108>
80005b08:	00000000 	nop
80005b0c:	8fc3001c 	lw	v1,28(s8)
80005b10:	8fc20000 	lw	v0,0(s8)
80005b14:	00621021 	addu	v0,v1,v0
80005b18:	2403002e 	li	v1,46
80005b1c:	a0430000 	sb	v1,0(v0)
80005b20:	8fc20000 	lw	v0,0(s8)
80005b24:	afc20004 	sw	v0,4(s8)
80005b28:	10000008 	b	80005b4c <get_filename+0x124>
80005b2c:	00000000 	nop
80005b30:	8fc20000 	lw	v0,0(s8)
80005b34:	24420001 	addiu	v0,v0,1
80005b38:	afc20000 	sw	v0,0(s8)
80005b3c:	8fc20000 	lw	v0,0(s8)
80005b40:	2c420008 	sltiu	v0,v0,8
80005b44:	1440ffea 	bnez	v0,80005af0 <get_filename+0xc8>
80005b48:	00000000 	nop
80005b4c:	8fc30000 	lw	v1,0(s8)
80005b50:	24020008 	li	v0,8
80005b54:	1462001d 	bne	v1,v0,80005bcc <get_filename+0x1a4>
80005b58:	00000000 	nop
80005b5c:	2402000b 	li	v0,11
80005b60:	afc20000 	sw	v0,0(s8)
80005b64:	1000000d 	b	80005b9c <get_filename+0x174>
80005b68:	00000000 	nop
80005b6c:	8fc3001c 	lw	v1,28(s8)
80005b70:	8fc20000 	lw	v0,0(s8)
80005b74:	00621021 	addu	v0,v1,v0
80005b78:	8fc30000 	lw	v1,0(s8)
80005b7c:	2463ffff 	addiu	v1,v1,-1
80005b80:	8fc4001c 	lw	a0,28(s8)
80005b84:	00831821 	addu	v1,a0,v1
80005b88:	90630000 	lbu	v1,0(v1)
80005b8c:	a0430000 	sb	v1,0(v0)
80005b90:	8fc20000 	lw	v0,0(s8)
80005b94:	2442ffff 	addiu	v0,v0,-1
80005b98:	afc20000 	sw	v0,0(s8)
80005b9c:	8fc20000 	lw	v0,0(s8)
80005ba0:	2c420009 	sltiu	v0,v0,9
80005ba4:	1040fff1 	beqz	v0,80005b6c <get_filename+0x144>
80005ba8:	00000000 	nop
80005bac:	8fc2001c 	lw	v0,28(s8)
80005bb0:	24420008 	addiu	v0,v0,8
80005bb4:	2403002e 	li	v1,46
80005bb8:	a0430000 	sb	v1,0(v0)
80005bbc:	24020008 	li	v0,8
80005bc0:	afc20004 	sw	v0,4(s8)
80005bc4:	24020009 	li	v0,9
80005bc8:	afc20008 	sw	v0,8(s8)
80005bcc:	8fc20004 	lw	v0,4(s8)
80005bd0:	24420001 	addiu	v0,v0,1
80005bd4:	afc20000 	sw	v0,0(s8)
80005bd8:	10000021 	b	80005c60 <get_filename+0x238>
80005bdc:	00000000 	nop
80005be0:	8fc30008 	lw	v1,8(s8)
80005be4:	8fc20000 	lw	v0,0(s8)
80005be8:	00621821 	addu	v1,v1,v0
80005bec:	8fc20004 	lw	v0,4(s8)
80005bf0:	00621023 	subu	v0,v1,v0
80005bf4:	2442ffff 	addiu	v0,v0,-1
80005bf8:	8fc3001c 	lw	v1,28(s8)
80005bfc:	00621021 	addu	v0,v1,v0
80005c00:	90430000 	lbu	v1,0(v0)
80005c04:	24020020 	li	v0,32
80005c08:	10620010 	beq	v1,v0,80005c4c <get_filename+0x224>
80005c0c:	00000000 	nop
80005c10:	8fc3001c 	lw	v1,28(s8)
80005c14:	8fc20000 	lw	v0,0(s8)
80005c18:	00621021 	addu	v0,v1,v0
80005c1c:	8fc40008 	lw	a0,8(s8)
80005c20:	8fc30000 	lw	v1,0(s8)
80005c24:	00832021 	addu	a0,a0,v1
80005c28:	8fc30004 	lw	v1,4(s8)
80005c2c:	00831823 	subu	v1,a0,v1
80005c30:	2463ffff 	addiu	v1,v1,-1
80005c34:	8fc4001c 	lw	a0,28(s8)
80005c38:	00831821 	addu	v1,a0,v1
80005c3c:	90630000 	lbu	v1,0(v1)
80005c40:	a0430000 	sb	v1,0(v0)
80005c44:	10000003 	b	80005c54 <get_filename+0x22c>
80005c48:	00000000 	nop
80005c4c:	1000000a 	b	80005c78 <get_filename+0x250>
80005c50:	00000000 	nop
80005c54:	8fc20000 	lw	v0,0(s8)
80005c58:	24420001 	addiu	v0,v0,1
80005c5c:	afc20000 	sw	v0,0(s8)
80005c60:	8fc20004 	lw	v0,4(s8)
80005c64:	24430004 	addiu	v1,v0,4
80005c68:	8fc20000 	lw	v0,0(s8)
80005c6c:	0043102b 	sltu	v0,v0,v1
80005c70:	1440ffdb 	bnez	v0,80005be0 <get_filename+0x1b8>
80005c74:	00000000 	nop
80005c78:	8fc3001c 	lw	v1,28(s8)
80005c7c:	8fc20000 	lw	v0,0(s8)
80005c80:	00621021 	addu	v0,v1,v0
80005c84:	a0400000 	sb	zero,0(v0)
80005c88:	8fc20000 	lw	v0,0(s8)
80005c8c:	2442ffff 	addiu	v0,v0,-1
80005c90:	8fc3001c 	lw	v1,28(s8)
80005c94:	00621021 	addu	v0,v1,v0
80005c98:	90430000 	lbu	v1,0(v0)
80005c9c:	2402002e 	li	v0,46
80005ca0:	14620006 	bne	v1,v0,80005cbc <get_filename+0x294>
80005ca4:	00000000 	nop
80005ca8:	8fc20000 	lw	v0,0(s8)
80005cac:	2442ffff 	addiu	v0,v0,-1
80005cb0:	8fc3001c 	lw	v1,28(s8)
80005cb4:	00621021 	addu	v0,v1,v0
80005cb8:	a0400000 	sb	zero,0(v0)
80005cbc:	03c0e825 	move	sp,s8
80005cc0:	8fbe0014 	lw	s8,20(sp)
80005cc4:	27bd0018 	addiu	sp,sp,24
80005cc8:	03e00008 	jr	ra
80005ccc:	00000000 	nop

80005cd0 <fat_sync>:
80005cd0:	27bdffd8 	addiu	sp,sp,-40
80005cd4:	afbf0024 	sw	ra,36(sp)
80005cd8:	afbe0020 	sw	s8,32(sp)
80005cdc:	03a0f025 	move	s8,sp
80005ce0:	afc40028 	sw	a0,40(s8)
80005ce4:	8fc20028 	lw	v0,40(s8)
80005ce8:	8c420014 	lw	v0,20(v0)
80005cec:	afc20014 	sw	v0,20(s8)
80005cf0:	8fc20014 	lw	v0,20(s8)
80005cf4:	8c42001c 	lw	v0,28(v0)
80005cf8:	00402025 	move	a0,v0
80005cfc:	0c005b4e 	jal	80016d38 <array_num>
80005d00:	00000000 	nop
80005d04:	afc20018 	sw	v0,24(s8)
80005d08:	afc00010 	sw	zero,16(s8)
80005d0c:	10000016 	b	80005d68 <fat_sync+0x98>
80005d10:	00000000 	nop
80005d14:	8fc20014 	lw	v0,20(s8)
80005d18:	8c42001c 	lw	v0,28(v0)
80005d1c:	00402025 	move	a0,v0
80005d20:	8fc50010 	lw	a1,16(s8)
80005d24:	0c005b59 	jal	80016d64 <array_get>
80005d28:	00000000 	nop
80005d2c:	afc2001c 	sw	v0,28(s8)
80005d30:	8fc4001c 	lw	a0,28(s8)
80005d34:	3c028001 	lui	v0,0x8001
80005d38:	24457e6c 	addiu	a1,v0,32364
80005d3c:	0c002db8 	jal	8000b6e0 <vnode_check>
80005d40:	00000000 	nop
80005d44:	8fc2001c 	lw	v0,28(s8)
80005d48:	8c420010 	lw	v0,16(v0)
80005d4c:	8c420030 	lw	v0,48(v0)
80005d50:	8fc4001c 	lw	a0,28(s8)
80005d54:	0040f809 	jalr	v0
80005d58:	00000000 	nop
80005d5c:	8fc20010 	lw	v0,16(s8)
80005d60:	24420001 	addiu	v0,v0,1
80005d64:	afc20010 	sw	v0,16(s8)
80005d68:	8fc30010 	lw	v1,16(s8)
80005d6c:	8fc20018 	lw	v0,24(s8)
80005d70:	0062102b 	sltu	v0,v1,v0
80005d74:	1440ffe7 	bnez	v0,80005d14 <fat_sync+0x44>
80005d78:	00000000 	nop
80005d7c:	00001025 	move	v0,zero
80005d80:	03c0e825 	move	sp,s8
80005d84:	8fbf0024 	lw	ra,36(sp)
80005d88:	8fbe0020 	lw	s8,32(sp)
80005d8c:	27bd0028 	addiu	sp,sp,40
80005d90:	03e00008 	jr	ra
80005d94:	00000000 	nop

80005d98 <fat_getvolname>:
80005d98:	27bdfff0 	addiu	sp,sp,-16
80005d9c:	afbe000c 	sw	s8,12(sp)
80005da0:	03a0f025 	move	s8,sp
80005da4:	afc40010 	sw	a0,16(s8)
80005da8:	8fc20010 	lw	v0,16(s8)
80005dac:	8c420014 	lw	v0,20(v0)
80005db0:	afc20000 	sw	v0,0(s8)
80005db4:	3c028001 	lui	v0,0x8001
80005db8:	24427e74 	addiu	v0,v0,32372
80005dbc:	afc20004 	sw	v0,4(s8)
80005dc0:	8fc20004 	lw	v0,4(s8)
80005dc4:	03c0e825 	move	sp,s8
80005dc8:	8fbe000c 	lw	s8,12(sp)
80005dcc:	27bd0010 	addiu	sp,sp,16
80005dd0:	03e00008 	jr	ra
80005dd4:	00000000 	nop

80005dd8 <fat_unmount>:
80005dd8:	27bdffe0 	addiu	sp,sp,-32
80005ddc:	afbf001c 	sw	ra,28(sp)
80005de0:	afbe0018 	sw	s8,24(sp)
80005de4:	03a0f025 	move	s8,sp
80005de8:	afc40020 	sw	a0,32(s8)
80005dec:	8fc20020 	lw	v0,32(s8)
80005df0:	8c420014 	lw	v0,20(v0)
80005df4:	afc20010 	sw	v0,16(s8)
80005df8:	8fc20010 	lw	v0,16(s8)
80005dfc:	8c42001c 	lw	v0,28(v0)
80005e00:	00402025 	move	a0,v0
80005e04:	0c005b4e 	jal	80016d38 <array_num>
80005e08:	00000000 	nop
80005e0c:	10400004 	beqz	v0,80005e20 <fat_unmount+0x48>
80005e10:	00000000 	nop
80005e14:	2402001b 	li	v0,27
80005e18:	1000000a 	b	80005e44 <fat_unmount+0x6c>
80005e1c:	00000000 	nop
80005e20:	8fc20010 	lw	v0,16(s8)
80005e24:	8c42001c 	lw	v0,28(v0)
80005e28:	00402025 	move	a0,v0
80005e2c:	0c005b12 	jal	80016c48 <array_destroy>
80005e30:	00000000 	nop
80005e34:	8fc40010 	lw	a0,16(s8)
80005e38:	0c003b13 	jal	8000ec4c <kfree>
80005e3c:	00000000 	nop
80005e40:	00001025 	move	v0,zero
80005e44:	03c0e825 	move	sp,s8
80005e48:	8fbf001c 	lw	ra,28(sp)
80005e4c:	8fbe0018 	lw	s8,24(sp)
80005e50:	27bd0020 	addiu	sp,sp,32
80005e54:	03e00008 	jr	ra
80005e58:	00000000 	nop

80005e5c <fat_domount>:
80005e5c:	27bdffe0 	addiu	sp,sp,-32
80005e60:	afbf001c 	sw	ra,28(sp)
80005e64:	afbe0018 	sw	s8,24(sp)
80005e68:	03a0f025 	move	s8,sp
80005e6c:	afc40020 	sw	a0,32(s8)
80005e70:	afc50024 	sw	a1,36(s8)
80005e74:	afc60028 	sw	a2,40(s8)
80005e78:	0c000d5a 	jal	80003568 <init_fs>
80005e7c:	00000000 	nop
80005e80:	10400004 	beqz	v0,80005e94 <fat_domount+0x38>
80005e84:	00000000 	nop
80005e88:	24020003 	li	v0,3
80005e8c:	10000040 	b	80005f90 <fat_domount+0x134>
80005e90:	00000000 	nop
80005e94:	8fc20024 	lw	v0,36(s8)
80005e98:	8c430008 	lw	v1,8(v0)
80005e9c:	24020200 	li	v0,512
80005ea0:	10620004 	beq	v1,v0,80005eb4 <fat_domount+0x58>
80005ea4:	00000000 	nop
80005ea8:	2402001a 	li	v0,26
80005eac:	10000038 	b	80005f90 <fat_domount+0x134>
80005eb0:	00000000 	nop
80005eb4:	24040020 	li	a0,32
80005eb8:	0c003abb 	jal	8000eaec <kmalloc>
80005ebc:	00000000 	nop
80005ec0:	afc20010 	sw	v0,16(s8)
80005ec4:	8fc20010 	lw	v0,16(s8)
80005ec8:	14400004 	bnez	v0,80005edc <fat_domount+0x80>
80005ecc:	00000000 	nop
80005ed0:	24020003 	li	v0,3
80005ed4:	1000002e 	b	80005f90 <fat_domount+0x134>
80005ed8:	00000000 	nop
80005edc:	0c005afd 	jal	80016bf4 <array_create>
80005ee0:	00000000 	nop
80005ee4:	00401825 	move	v1,v0
80005ee8:	8fc20010 	lw	v0,16(s8)
80005eec:	ac43001c 	sw	v1,28(v0)
80005ef0:	8fc20010 	lw	v0,16(s8)
80005ef4:	8c42001c 	lw	v0,28(v0)
80005ef8:	14400007 	bnez	v0,80005f18 <fat_domount+0xbc>
80005efc:	00000000 	nop
80005f00:	8fc40010 	lw	a0,16(s8)
80005f04:	0c003b13 	jal	8000ec4c <kfree>
80005f08:	00000000 	nop
80005f0c:	24020003 	li	v0,3
80005f10:	1000001f 	b	80005f90 <fat_domount+0x134>
80005f14:	00000000 	nop
80005f18:	8fc20010 	lw	v0,16(s8)
80005f1c:	8fc30024 	lw	v1,36(s8)
80005f20:	ac430018 	sw	v1,24(v0)
80005f24:	8fc20010 	lw	v0,16(s8)
80005f28:	3c038000 	lui	v1,0x8000
80005f2c:	24635cd0 	addiu	v1,v1,23760
80005f30:	ac430000 	sw	v1,0(v0)
80005f34:	8fc20010 	lw	v0,16(s8)
80005f38:	3c038000 	lui	v1,0x8000
80005f3c:	24635d98 	addiu	v1,v1,23960
80005f40:	ac430004 	sw	v1,4(v0)
80005f44:	8fc20010 	lw	v0,16(s8)
80005f48:	3c038000 	lui	v1,0x8000
80005f4c:	246369a0 	addiu	v1,v1,27040
80005f50:	ac430008 	sw	v1,8(v0)
80005f54:	8fc20010 	lw	v0,16(s8)
80005f58:	3c038000 	lui	v1,0x8000
80005f5c:	24636a2c 	addiu	v1,v1,27180
80005f60:	ac43000c 	sw	v1,12(v0)
80005f64:	8fc20010 	lw	v0,16(s8)
80005f68:	3c038000 	lui	v1,0x8000
80005f6c:	24635dd8 	addiu	v1,v1,24024
80005f70:	ac430010 	sw	v1,16(v0)
80005f74:	8fc20010 	lw	v0,16(s8)
80005f78:	8fc30010 	lw	v1,16(s8)
80005f7c:	ac430014 	sw	v1,20(v0)
80005f80:	8fc30010 	lw	v1,16(s8)
80005f84:	8fc20028 	lw	v0,40(s8)
80005f88:	ac430000 	sw	v1,0(v0)
80005f8c:	00001025 	move	v0,zero
80005f90:	03c0e825 	move	sp,s8
80005f94:	8fbf001c 	lw	ra,28(sp)
80005f98:	8fbe0018 	lw	s8,24(sp)
80005f9c:	27bd0020 	addiu	sp,sp,32
80005fa0:	03e00008 	jr	ra
80005fa4:	00000000 	nop

80005fa8 <fat_mount>:
80005fa8:	27bdffe8 	addiu	sp,sp,-24
80005fac:	afbf0014 	sw	ra,20(sp)
80005fb0:	afbe0010 	sw	s8,16(sp)
80005fb4:	03a0f025 	move	s8,sp
80005fb8:	afc40018 	sw	a0,24(s8)
80005fbc:	8fc40018 	lw	a0,24(s8)
80005fc0:	00002825 	move	a1,zero
80005fc4:	3c028000 	lui	v0,0x8000
80005fc8:	24465e5c 	addiu	a2,v0,24156
80005fcc:	0c002701 	jal	80009c04 <vfs_mount>
80005fd0:	00000000 	nop
80005fd4:	03c0e825 	move	sp,s8
80005fd8:	8fbf0014 	lw	ra,20(sp)
80005fdc:	8fbe0010 	lw	s8,16(sp)
80005fe0:	27bd0018 	addiu	sp,sp,24
80005fe4:	03e00008 	jr	ra
80005fe8:	00000000 	nop

80005fec <fat_lookonce>:
80005fec:	27bdfff8 	addiu	sp,sp,-8
80005ff0:	afbe0004 	sw	s8,4(sp)
80005ff4:	03a0f025 	move	s8,sp
80005ff8:	afc40008 	sw	a0,8(s8)
80005ffc:	afc5000c 	sw	a1,12(s8)
80006000:	afc60010 	sw	a2,16(s8)
80006004:	afc70014 	sw	a3,20(s8)
80006008:	00001025 	move	v0,zero
8000600c:	03c0e825 	move	sp,s8
80006010:	8fbe0004 	lw	s8,4(sp)
80006014:	27bd0008 	addiu	sp,sp,8
80006018:	03e00008 	jr	ra
8000601c:	00000000 	nop

80006020 <fat_open>:
80006020:	27bdfff8 	addiu	sp,sp,-8
80006024:	afbe0004 	sw	s8,4(sp)
80006028:	03a0f025 	move	s8,sp
8000602c:	afc40008 	sw	a0,8(s8)
80006030:	afc5000c 	sw	a1,12(s8)
80006034:	8fc2000c 	lw	v0,12(s8)
80006038:	30420020 	andi	v0,v0,0x20
8000603c:	10400004 	beqz	v0,80006050 <fat_open+0x30>
80006040:	00000000 	nop
80006044:	24020002 	li	v0,2
80006048:	10000002 	b	80006054 <fat_open+0x34>
8000604c:	00000000 	nop
80006050:	00001025 	move	v0,zero
80006054:	03c0e825 	move	sp,s8
80006058:	8fbe0004 	lw	s8,4(sp)
8000605c:	27bd0008 	addiu	sp,sp,8
80006060:	03e00008 	jr	ra
80006064:	00000000 	nop

80006068 <fat_opendir>:
80006068:	27bdfff8 	addiu	sp,sp,-8
8000606c:	afbe0004 	sw	s8,4(sp)
80006070:	03a0f025 	move	s8,sp
80006074:	afc40008 	sw	a0,8(s8)
80006078:	afc5000c 	sw	a1,12(s8)
8000607c:	8fc2000c 	lw	v0,12(s8)
80006080:	30420003 	andi	v0,v0,0x3
80006084:	10400004 	beqz	v0,80006098 <fat_opendir+0x30>
80006088:	00000000 	nop
8000608c:	24020012 	li	v0,18
80006090:	1000000a 	b	800060bc <fat_opendir+0x54>
80006094:	00000000 	nop
80006098:	00000000 	nop
8000609c:	8fc2000c 	lw	v0,12(s8)
800060a0:	30420020 	andi	v0,v0,0x20
800060a4:	10400004 	beqz	v0,800060b8 <fat_opendir+0x50>
800060a8:	00000000 	nop
800060ac:	24020012 	li	v0,18
800060b0:	10000002 	b	800060bc <fat_opendir+0x54>
800060b4:	00000000 	nop
800060b8:	00001025 	move	v0,zero
800060bc:	03c0e825 	move	sp,s8
800060c0:	8fbe0004 	lw	s8,4(sp)
800060c4:	27bd0008 	addiu	sp,sp,8
800060c8:	03e00008 	jr	ra
800060cc:	00000000 	nop

800060d0 <fat_close>:
800060d0:	27bdffe8 	addiu	sp,sp,-24
800060d4:	afbf0014 	sw	ra,20(sp)
800060d8:	afbe0010 	sw	s8,16(sp)
800060dc:	03a0f025 	move	s8,sp
800060e0:	afc40018 	sw	a0,24(s8)
800060e4:	8fc40018 	lw	a0,24(s8)
800060e8:	3c028001 	lui	v0,0x8001
800060ec:	24457e78 	addiu	a1,v0,32376
800060f0:	0c002db8 	jal	8000b6e0 <vnode_check>
800060f4:	00000000 	nop
800060f8:	8fc20018 	lw	v0,24(s8)
800060fc:	8c420010 	lw	v0,16(v0)
80006100:	8c420030 	lw	v0,48(v0)
80006104:	8fc40018 	lw	a0,24(s8)
80006108:	0040f809 	jalr	v0
8000610c:	00000000 	nop
80006110:	03c0e825 	move	sp,s8
80006114:	8fbf0014 	lw	ra,20(sp)
80006118:	8fbe0010 	lw	s8,16(sp)
8000611c:	27bd0018 	addiu	sp,sp,24
80006120:	03e00008 	jr	ra
80006124:	00000000 	nop

80006128 <fat_reclaim>:
80006128:	27bdfff8 	addiu	sp,sp,-8
8000612c:	afbe0004 	sw	s8,4(sp)
80006130:	03a0f025 	move	s8,sp
80006134:	afc40008 	sw	a0,8(s8)
80006138:	00001025 	move	v0,zero
8000613c:	03c0e825 	move	sp,s8
80006140:	8fbe0004 	lw	s8,4(sp)
80006144:	27bd0008 	addiu	sp,sp,8
80006148:	03e00008 	jr	ra
8000614c:	00000000 	nop

80006150 <fat_read>:
80006150:	27bdffe0 	addiu	sp,sp,-32
80006154:	afbf001c 	sw	ra,28(sp)
80006158:	afbe0018 	sw	s8,24(sp)
8000615c:	03a0f025 	move	s8,sp
80006160:	afc40020 	sw	a0,32(s8)
80006164:	afc50024 	sw	a1,36(s8)
80006168:	afc60028 	sw	a2,40(s8)
8000616c:	8fc20020 	lw	v0,32(s8)
80006170:	8c42000c 	lw	v0,12(v0)
80006174:	afc20010 	sw	v0,16(s8)
80006178:	8fc40010 	lw	a0,16(s8)
8000617c:	8fc50024 	lw	a1,36(s8)
80006180:	8fc60028 	lw	a2,40(s8)
80006184:	0c00116c 	jal	800045b0 <fs_read>
80006188:	00000000 	nop
8000618c:	afc20014 	sw	v0,20(s8)
80006190:	8fc20014 	lw	v0,20(s8)
80006194:	03c0e825 	move	sp,s8
80006198:	8fbf001c 	lw	ra,28(sp)
8000619c:	8fbe0018 	lw	s8,24(sp)
800061a0:	27bd0020 	addiu	sp,sp,32
800061a4:	03e00008 	jr	ra
800061a8:	00000000 	nop

800061ac <fat_write>:
800061ac:	27bdffe0 	addiu	sp,sp,-32
800061b0:	afbf001c 	sw	ra,28(sp)
800061b4:	afbe0018 	sw	s8,24(sp)
800061b8:	03a0f025 	move	s8,sp
800061bc:	afc40020 	sw	a0,32(s8)
800061c0:	afc50024 	sw	a1,36(s8)
800061c4:	afc60028 	sw	a2,40(s8)
800061c8:	8fc20020 	lw	v0,32(s8)
800061cc:	8c42000c 	lw	v0,12(v0)
800061d0:	afc20010 	sw	v0,16(s8)
800061d4:	8fc40010 	lw	a0,16(s8)
800061d8:	8fc50024 	lw	a1,36(s8)
800061dc:	8fc60028 	lw	a2,40(s8)
800061e0:	0c001300 	jal	80004c00 <fs_write>
800061e4:	00000000 	nop
800061e8:	afc20014 	sw	v0,20(s8)
800061ec:	8fc20014 	lw	v0,20(s8)
800061f0:	03c0e825 	move	sp,s8
800061f4:	8fbf001c 	lw	ra,28(sp)
800061f8:	8fbe0018 	lw	s8,24(sp)
800061fc:	27bd0020 	addiu	sp,sp,32
80006200:	03e00008 	jr	ra
80006204:	00000000 	nop

80006208 <fat_ioctl>:
80006208:	27bdfff8 	addiu	sp,sp,-8
8000620c:	afbe0004 	sw	s8,4(sp)
80006210:	03a0f025 	move	s8,sp
80006214:	afc40008 	sw	a0,8(s8)
80006218:	afc5000c 	sw	a1,12(s8)
8000621c:	afc60010 	sw	a2,16(s8)
80006220:	24020008 	li	v0,8
80006224:	03c0e825 	move	sp,s8
80006228:	8fbe0004 	lw	s8,4(sp)
8000622c:	27bd0008 	addiu	sp,sp,8
80006230:	03e00008 	jr	ra
80006234:	00000000 	nop

80006238 <fat_stat>:
80006238:	27bdfff8 	addiu	sp,sp,-8
8000623c:	afbe0004 	sw	s8,4(sp)
80006240:	03a0f025 	move	s8,sp
80006244:	afc40008 	sw	a0,8(s8)
80006248:	afc5000c 	sw	a1,12(s8)
8000624c:	00001025 	move	v0,zero
80006250:	03c0e825 	move	sp,s8
80006254:	8fbe0004 	lw	s8,4(sp)
80006258:	27bd0008 	addiu	sp,sp,8
8000625c:	03e00008 	jr	ra
80006260:	00000000 	nop

80006264 <fat_gettype_file>:
80006264:	27bdfff8 	addiu	sp,sp,-8
80006268:	afbe0004 	sw	s8,4(sp)
8000626c:	03a0f025 	move	s8,sp
80006270:	afc40008 	sw	a0,8(s8)
80006274:	afc5000c 	sw	a1,12(s8)
80006278:	8fc2000c 	lw	v0,12(s8)
8000627c:	24031000 	li	v1,4096
80006280:	ac430000 	sw	v1,0(v0)
80006284:	00001025 	move	v0,zero
80006288:	03c0e825 	move	sp,s8
8000628c:	8fbe0004 	lw	s8,4(sp)
80006290:	27bd0008 	addiu	sp,sp,8
80006294:	03e00008 	jr	ra
80006298:	00000000 	nop

8000629c <fat_gettype_dir>:
8000629c:	27bdfff8 	addiu	sp,sp,-8
800062a0:	afbe0004 	sw	s8,4(sp)
800062a4:	03a0f025 	move	s8,sp
800062a8:	afc40008 	sw	a0,8(s8)
800062ac:	afc5000c 	sw	a1,12(s8)
800062b0:	8fc2000c 	lw	v0,12(s8)
800062b4:	24032000 	li	v1,8192
800062b8:	ac430000 	sw	v1,0(v0)
800062bc:	00001025 	move	v0,zero
800062c0:	03c0e825 	move	sp,s8
800062c4:	8fbe0004 	lw	s8,4(sp)
800062c8:	27bd0008 	addiu	sp,sp,8
800062cc:	03e00008 	jr	ra
800062d0:	00000000 	nop

800062d4 <fat_tryseek>:
800062d4:	27bdfff8 	addiu	sp,sp,-8
800062d8:	afbe0004 	sw	s8,4(sp)
800062dc:	03a0f025 	move	s8,sp
800062e0:	afc40008 	sw	a0,8(s8)
800062e4:	afc60010 	sw	a2,16(s8)
800062e8:	afc70014 	sw	a3,20(s8)
800062ec:	8fc20014 	lw	v0,20(s8)
800062f0:	04410004 	bgez	v0,80006304 <fat_tryseek+0x30>
800062f4:	00000000 	nop
800062f8:	24020008 	li	v0,8
800062fc:	10000002 	b	80006308 <fat_tryseek+0x34>
80006300:	00000000 	nop
80006304:	00001025 	move	v0,zero
80006308:	03c0e825 	move	sp,s8
8000630c:	8fbe0004 	lw	s8,4(sp)
80006310:	27bd0008 	addiu	sp,sp,8
80006314:	03e00008 	jr	ra
80006318:	00000000 	nop

8000631c <fat_fsync>:
8000631c:	27bdffe0 	addiu	sp,sp,-32
80006320:	afbf001c 	sw	ra,28(sp)
80006324:	afbe0018 	sw	s8,24(sp)
80006328:	03a0f025 	move	s8,sp
8000632c:	afc40020 	sw	a0,32(s8)
80006330:	0c0010ae 	jal	800042b8 <fs_fflush>
80006334:	00000000 	nop
80006338:	afc20010 	sw	v0,16(s8)
8000633c:	8fc20010 	lw	v0,16(s8)
80006340:	03c0e825 	move	sp,s8
80006344:	8fbf001c 	lw	ra,28(sp)
80006348:	8fbe0018 	lw	s8,24(sp)
8000634c:	27bd0020 	addiu	sp,sp,32
80006350:	03e00008 	jr	ra
80006354:	00000000 	nop

80006358 <fat_mmap>:
80006358:	27bdfff8 	addiu	sp,sp,-8
8000635c:	afbe0004 	sw	s8,4(sp)
80006360:	03a0f025 	move	s8,sp
80006364:	afc40008 	sw	a0,8(s8)
80006368:	24020002 	li	v0,2
8000636c:	03c0e825 	move	sp,s8
80006370:	8fbe0004 	lw	s8,4(sp)
80006374:	27bd0008 	addiu	sp,sp,8
80006378:	03e00008 	jr	ra
8000637c:	00000000 	nop

80006380 <fat_truncate>:
80006380:	27bdfff8 	addiu	sp,sp,-8
80006384:	afbe0004 	sw	s8,4(sp)
80006388:	03a0f025 	move	s8,sp
8000638c:	afc40008 	sw	a0,8(s8)
80006390:	afc60010 	sw	a2,16(s8)
80006394:	afc70014 	sw	a3,20(s8)
80006398:	00001025 	move	v0,zero
8000639c:	03c0e825 	move	sp,s8
800063a0:	8fbe0004 	lw	s8,4(sp)
800063a4:	27bd0008 	addiu	sp,sp,8
800063a8:	03e00008 	jr	ra
800063ac:	00000000 	nop

800063b0 <fat_namefile>:
800063b0:	27bdfff8 	addiu	sp,sp,-8
800063b4:	afbe0004 	sw	s8,4(sp)
800063b8:	03a0f025 	move	s8,sp
800063bc:	afc40008 	sw	a0,8(s8)
800063c0:	afc5000c 	sw	a1,12(s8)
800063c4:	00001025 	move	v0,zero
800063c8:	03c0e825 	move	sp,s8
800063cc:	8fbe0004 	lw	s8,4(sp)
800063d0:	27bd0008 	addiu	sp,sp,8
800063d4:	03e00008 	jr	ra
800063d8:	00000000 	nop

800063dc <fat_mkdir>:
800063dc:	27bdffe0 	addiu	sp,sp,-32
800063e0:	afbf001c 	sw	ra,28(sp)
800063e4:	afbe0018 	sw	s8,24(sp)
800063e8:	03a0f025 	move	s8,sp
800063ec:	afc40020 	sw	a0,32(s8)
800063f0:	afc50024 	sw	a1,36(s8)
800063f4:	afc60028 	sw	a2,40(s8)
800063f8:	8fc40024 	lw	a0,36(s8)
800063fc:	0c005edc 	jal	80017b70 <kernel_strdup>
80006400:	00000000 	nop
80006404:	afc20010 	sw	v0,16(s8)
80006408:	8fc40010 	lw	a0,16(s8)
8000640c:	0c001bee 	jal	80006fb8 <fs_mkdir>
80006410:	00000000 	nop
80006414:	afc20014 	sw	v0,20(s8)
80006418:	8fc40010 	lw	a0,16(s8)
8000641c:	0c003b13 	jal	8000ec4c <kfree>
80006420:	00000000 	nop
80006424:	00001025 	move	v0,zero
80006428:	03c0e825 	move	sp,s8
8000642c:	8fbf001c 	lw	ra,28(sp)
80006430:	8fbe0018 	lw	s8,24(sp)
80006434:	27bd0020 	addiu	sp,sp,32
80006438:	03e00008 	jr	ra
8000643c:	00000000 	nop

80006440 <fat_rmdir>:
80006440:	27bdfff8 	addiu	sp,sp,-8
80006444:	afbe0004 	sw	s8,4(sp)
80006448:	03a0f025 	move	s8,sp
8000644c:	afc40008 	sw	a0,8(s8)
80006450:	afc5000c 	sw	a1,12(s8)
80006454:	00001025 	move	v0,zero
80006458:	03c0e825 	move	sp,s8
8000645c:	8fbe0004 	lw	s8,4(sp)
80006460:	27bd0008 	addiu	sp,sp,8
80006464:	03e00008 	jr	ra
80006468:	00000000 	nop

8000646c <fat_creat>:
8000646c:	27bdffe0 	addiu	sp,sp,-32
80006470:	afbf001c 	sw	ra,28(sp)
80006474:	afbe0018 	sw	s8,24(sp)
80006478:	03a0f025 	move	s8,sp
8000647c:	afc40020 	sw	a0,32(s8)
80006480:	afc50024 	sw	a1,36(s8)
80006484:	00c01025 	move	v0,a2
80006488:	afc7002c 	sw	a3,44(s8)
8000648c:	a3c20028 	sb	v0,40(s8)
80006490:	8fc40024 	lw	a0,36(s8)
80006494:	0c005edc 	jal	80017b70 <kernel_strdup>
80006498:	00000000 	nop
8000649c:	afc20010 	sw	v0,16(s8)
800064a0:	8fc40010 	lw	a0,16(s8)
800064a4:	0c00167b 	jal	800059ec <fs_create>
800064a8:	00000000 	nop
800064ac:	afc20014 	sw	v0,20(s8)
800064b0:	8fc40010 	lw	a0,16(s8)
800064b4:	0c003b13 	jal	8000ec4c <kfree>
800064b8:	00000000 	nop
800064bc:	8fc20014 	lw	v0,20(s8)
800064c0:	03c0e825 	move	sp,s8
800064c4:	8fbf001c 	lw	ra,28(sp)
800064c8:	8fbe0018 	lw	s8,24(sp)
800064cc:	27bd0020 	addiu	sp,sp,32
800064d0:	03e00008 	jr	ra
800064d4:	00000000 	nop

800064d8 <fat_link>:
800064d8:	27bdfff8 	addiu	sp,sp,-8
800064dc:	afbe0004 	sw	s8,4(sp)
800064e0:	03a0f025 	move	s8,sp
800064e4:	afc40008 	sw	a0,8(s8)
800064e8:	afc5000c 	sw	a1,12(s8)
800064ec:	afc60010 	sw	a2,16(s8)
800064f0:	00001025 	move	v0,zero
800064f4:	03c0e825 	move	sp,s8
800064f8:	8fbe0004 	lw	s8,4(sp)
800064fc:	27bd0008 	addiu	sp,sp,8
80006500:	03e00008 	jr	ra
80006504:	00000000 	nop

80006508 <fat_remove>:
80006508:	27bdffe0 	addiu	sp,sp,-32
8000650c:	afbf001c 	sw	ra,28(sp)
80006510:	afbe0018 	sw	s8,24(sp)
80006514:	03a0f025 	move	s8,sp
80006518:	afc40020 	sw	a0,32(s8)
8000651c:	afc50024 	sw	a1,36(s8)
80006520:	8fc40024 	lw	a0,36(s8)
80006524:	0c005edc 	jal	80017b70 <kernel_strdup>
80006528:	00000000 	nop
8000652c:	afc20010 	sw	v0,16(s8)
80006530:	8fc40010 	lw	a0,16(s8)
80006534:	0c001aae 	jal	80006ab8 <fs_rm>
80006538:	00000000 	nop
8000653c:	afc20014 	sw	v0,20(s8)
80006540:	8fc40010 	lw	a0,16(s8)
80006544:	0c003b13 	jal	8000ec4c <kfree>
80006548:	00000000 	nop
8000654c:	8fc20014 	lw	v0,20(s8)
80006550:	03c0e825 	move	sp,s8
80006554:	8fbf001c 	lw	ra,28(sp)
80006558:	8fbe0018 	lw	s8,24(sp)
8000655c:	27bd0020 	addiu	sp,sp,32
80006560:	03e00008 	jr	ra
80006564:	00000000 	nop

80006568 <fat_rename>:
80006568:	27bdffd8 	addiu	sp,sp,-40
8000656c:	afbf0024 	sw	ra,36(sp)
80006570:	afbe0020 	sw	s8,32(sp)
80006574:	03a0f025 	move	s8,sp
80006578:	afc40028 	sw	a0,40(s8)
8000657c:	afc5002c 	sw	a1,44(s8)
80006580:	afc60030 	sw	a2,48(s8)
80006584:	afc70034 	sw	a3,52(s8)
80006588:	8fc4002c 	lw	a0,44(s8)
8000658c:	0c005edc 	jal	80017b70 <kernel_strdup>
80006590:	00000000 	nop
80006594:	afc20010 	sw	v0,16(s8)
80006598:	8fc40034 	lw	a0,52(s8)
8000659c:	0c005edc 	jal	80017b70 <kernel_strdup>
800065a0:	00000000 	nop
800065a4:	afc20014 	sw	v0,20(s8)
800065a8:	8fc40010 	lw	a0,16(s8)
800065ac:	8fc50014 	lw	a1,20(s8)
800065b0:	0c001afd 	jal	80006bf4 <fs_mv>
800065b4:	00000000 	nop
800065b8:	afc20018 	sw	v0,24(s8)
800065bc:	8fc40010 	lw	a0,16(s8)
800065c0:	0c003b13 	jal	8000ec4c <kfree>
800065c4:	00000000 	nop
800065c8:	8fc40014 	lw	a0,20(s8)
800065cc:	0c003b13 	jal	8000ec4c <kfree>
800065d0:	00000000 	nop
800065d4:	8fc20018 	lw	v0,24(s8)
800065d8:	03c0e825 	move	sp,s8
800065dc:	8fbf0024 	lw	ra,36(sp)
800065e0:	8fbe0020 	lw	s8,32(sp)
800065e4:	27bd0028 	addiu	sp,sp,40
800065e8:	03e00008 	jr	ra
800065ec:	00000000 	nop

800065f0 <fat_parsepath>:
800065f0:	27bdfff0 	addiu	sp,sp,-16
800065f4:	afbe000c 	sw	s8,12(sp)
800065f8:	03a0f025 	move	s8,sp
800065fc:	afc40010 	sw	a0,16(s8)
80006600:	afc50014 	sw	a1,20(s8)
80006604:	24020001 	li	v0,1
80006608:	afc20000 	sw	v0,0(s8)
8000660c:	8fc20000 	lw	v0,0(s8)
80006610:	8fc30010 	lw	v1,16(s8)
80006614:	00621021 	addu	v0,v1,v0
80006618:	90430000 	lbu	v1,0(v0)
8000661c:	2402002f 	li	v0,47
80006620:	10620007 	beq	v1,v0,80006640 <fat_parsepath+0x50>
80006624:	00000000 	nop
80006628:	8fc20000 	lw	v0,0(s8)
8000662c:	8fc30010 	lw	v1,16(s8)
80006630:	00621021 	addu	v0,v1,v0
80006634:	90420000 	lbu	v0,0(v0)
80006638:	14400004 	bnez	v0,8000664c <fat_parsepath+0x5c>
8000663c:	00000000 	nop
80006640:	8fc20000 	lw	v0,0(s8)
80006644:	1000000e 	b	80006680 <fat_parsepath+0x90>
80006648:	00000000 	nop
8000664c:	8fc20000 	lw	v0,0(s8)
80006650:	8fc30014 	lw	v1,20(s8)
80006654:	00621021 	addu	v0,v1,v0
80006658:	8fc30000 	lw	v1,0(s8)
8000665c:	8fc40010 	lw	a0,16(s8)
80006660:	00831821 	addu	v1,a0,v1
80006664:	90630000 	lbu	v1,0(v1)
80006668:	a0430000 	sb	v1,0(v0)
8000666c:	8fc20000 	lw	v0,0(s8)
80006670:	24420001 	addiu	v0,v0,1
80006674:	afc20000 	sw	v0,0(s8)
80006678:	1000ffe4 	b	8000660c <fat_parsepath+0x1c>
8000667c:	00000000 	nop
80006680:	03c0e825 	move	sp,s8
80006684:	8fbe000c 	lw	s8,12(sp)
80006688:	27bd0010 	addiu	sp,sp,16
8000668c:	03e00008 	jr	ra
80006690:	00000000 	nop

80006694 <fat_lookup>:
80006694:	27bdfeb8 	addiu	sp,sp,-328
80006698:	afbf0144 	sw	ra,324(sp)
8000669c:	afbe0140 	sw	s8,320(sp)
800066a0:	03a0f025 	move	s8,sp
800066a4:	afc40148 	sw	a0,328(s8)
800066a8:	afc5014c 	sw	a1,332(s8)
800066ac:	afc60150 	sw	a2,336(s8)
800066b0:	afc00014 	sw	zero,20(s8)
800066b4:	27c20040 	addiu	v0,s8,64
800066b8:	afc20010 	sw	v0,16(s8)
800066bc:	8fc40010 	lw	a0,16(s8)
800066c0:	8fc5014c 	lw	a1,332(s8)
800066c4:	0c005ead 	jal	80017ab4 <kernel_strcpy>
800066c8:	00000000 	nop
800066cc:	8fc4014c 	lw	a0,332(s8)
800066d0:	2405002f 	li	a1,47
800066d4:	0c005e87 	jal	80017a1c <kernel_strchr>
800066d8:	00000000 	nop
800066dc:	afc20018 	sw	v0,24(s8)
800066e0:	8fc20018 	lw	v0,24(s8)
800066e4:	14400018 	bnez	v0,80006748 <fat_lookup+0xb4>
800066e8:	00000000 	nop
800066ec:	27c20028 	addiu	v0,s8,40
800066f0:	8fc40148 	lw	a0,328(s8)
800066f4:	8fc5014c 	lw	a1,332(s8)
800066f8:	00403025 	move	a2,v0
800066fc:	00003825 	move	a3,zero
80006700:	0c0017fb 	jal	80005fec <fat_lookonce>
80006704:	00000000 	nop
80006708:	afc2001c 	sw	v0,28(s8)
8000670c:	8fc2001c 	lw	v0,28(s8)
80006710:	10400004 	beqz	v0,80006724 <fat_lookup+0x90>
80006714:	00000000 	nop
80006718:	8fc2001c 	lw	v0,28(s8)
8000671c:	10000043 	b	8000682c <fat_lookup+0x198>
80006720:	00000000 	nop
80006724:	8fc40148 	lw	a0,328(s8)
80006728:	0c002cf4 	jal	8000b3d0 <vnode_incref>
8000672c:	00000000 	nop
80006730:	8fc30028 	lw	v1,40(s8)
80006734:	8fc20150 	lw	v0,336(s8)
80006738:	ac430000 	sw	v1,0(v0)
8000673c:	00001025 	move	v0,zero
80006740:	1000003a 	b	8000682c <fat_lookup+0x198>
80006744:	00000000 	nop
80006748:	27c2002c 	addiu	v0,s8,44
8000674c:	8fc40010 	lw	a0,16(s8)
80006750:	00402825 	move	a1,v0
80006754:	0c00197c 	jal	800065f0 <fat_parsepath>
80006758:	00000000 	nop
8000675c:	afc20020 	sw	v0,32(s8)
80006760:	8fc20020 	lw	v0,32(s8)
80006764:	8fc30010 	lw	v1,16(s8)
80006768:	00621021 	addu	v0,v1,v0
8000676c:	afc20010 	sw	v0,16(s8)
80006770:	afc00014 	sw	zero,20(s8)
80006774:	27c3002c 	addiu	v1,s8,44
80006778:	27c20028 	addiu	v0,s8,40
8000677c:	8fc40148 	lw	a0,328(s8)
80006780:	00602825 	move	a1,v1
80006784:	00403025 	move	a2,v0
80006788:	00003825 	move	a3,zero
8000678c:	0c0017fb 	jal	80005fec <fat_lookonce>
80006790:	00000000 	nop
80006794:	afc2001c 	sw	v0,28(s8)
80006798:	8fc2001c 	lw	v0,28(s8)
8000679c:	10400004 	beqz	v0,800067b0 <fat_lookup+0x11c>
800067a0:	00000000 	nop
800067a4:	8fc2001c 	lw	v0,28(s8)
800067a8:	10000020 	b	8000682c <fat_lookup+0x198>
800067ac:	00000000 	nop
800067b0:	8fc40148 	lw	a0,328(s8)
800067b4:	0c002d0d 	jal	8000b434 <vnode_decref>
800067b8:	00000000 	nop
800067bc:	8fc20028 	lw	v0,40(s8)
800067c0:	afc20148 	sw	v0,328(s8)
800067c4:	8fc20028 	lw	v0,40(s8)
800067c8:	14400007 	bnez	v0,800067e8 <fat_lookup+0x154>
800067cc:	00000000 	nop
800067d0:	3c028001 	lui	v0,0x8001
800067d4:	24447e80 	addiu	a0,v0,32384
800067d8:	3c028001 	lui	v0,0x8001
800067dc:	24457e90 	addiu	a1,v0,32400
800067e0:	0c005c3f 	jal	800170fc <badassert>
800067e4:	00000000 	nop
800067e8:	8fc40010 	lw	a0,16(s8)
800067ec:	2405002f 	li	a1,47
800067f0:	0c005e87 	jal	80017a1c <kernel_strchr>
800067f4:	00000000 	nop
800067f8:	afc20024 	sw	v0,36(s8)
800067fc:	8fc20024 	lw	v0,36(s8)
80006800:	14400003 	bnez	v0,80006810 <fat_lookup+0x17c>
80006804:	00000000 	nop
80006808:	10000004 	b	8000681c <fat_lookup+0x188>
8000680c:	00000000 	nop
80006810:	8fc20010 	lw	v0,16(s8)
80006814:	1440ffcc 	bnez	v0,80006748 <fat_lookup+0xb4>
80006818:	00000000 	nop
8000681c:	8fc30028 	lw	v1,40(s8)
80006820:	8fc20150 	lw	v0,336(s8)
80006824:	ac430000 	sw	v1,0(v0)
80006828:	00001025 	move	v0,zero
8000682c:	03c0e825 	move	sp,s8
80006830:	8fbf0144 	lw	ra,324(sp)
80006834:	8fbe0140 	lw	s8,320(sp)
80006838:	27bd0148 	addiu	sp,sp,328
8000683c:	03e00008 	jr	ra
80006840:	00000000 	nop

80006844 <fat_lookparent>:
80006844:	27bdffe0 	addiu	sp,sp,-32
80006848:	afbf001c 	sw	ra,28(sp)
8000684c:	afbe0018 	sw	s8,24(sp)
80006850:	03a0f025 	move	s8,sp
80006854:	afc40020 	sw	a0,32(s8)
80006858:	afc50024 	sw	a1,36(s8)
8000685c:	afc60028 	sw	a2,40(s8)
80006860:	afc7002c 	sw	a3,44(s8)
80006864:	8fc40024 	lw	a0,36(s8)
80006868:	0c005e71 	jal	800179c4 <kernel_strlen>
8000686c:	00000000 	nop
80006870:	24430001 	addiu	v1,v0,1
80006874:	8fc20030 	lw	v0,48(s8)
80006878:	0043102b 	sltu	v0,v0,v1
8000687c:	10400004 	beqz	v0,80006890 <fat_lookparent+0x4c>
80006880:	00000000 	nop
80006884:	24020007 	li	v0,7
80006888:	10000024 	b	8000691c <fat_lookparent+0xd8>
8000688c:	00000000 	nop
80006890:	8fc40024 	lw	a0,36(s8)
80006894:	2405002f 	li	a1,47
80006898:	0c005e87 	jal	80017a1c <kernel_strchr>
8000689c:	00000000 	nop
800068a0:	afc20010 	sw	v0,16(s8)
800068a4:	8fc20010 	lw	v0,16(s8)
800068a8:	1440000e 	bnez	v0,800068e4 <fat_lookparent+0xa0>
800068ac:	00000000 	nop
800068b0:	8fc40020 	lw	a0,32(s8)
800068b4:	0c002cf4 	jal	8000b3d0 <vnode_incref>
800068b8:	00000000 	nop
800068bc:	8fc20028 	lw	v0,40(s8)
800068c0:	8fc30020 	lw	v1,32(s8)
800068c4:	ac430000 	sw	v1,0(v0)
800068c8:	8fc4002c 	lw	a0,44(s8)
800068cc:	8fc50024 	lw	a1,36(s8)
800068d0:	0c005ead 	jal	80017ab4 <kernel_strcpy>
800068d4:	00000000 	nop
800068d8:	00001025 	move	v0,zero
800068dc:	1000000f 	b	8000691c <fat_lookparent+0xd8>
800068e0:	00000000 	nop
800068e4:	8fc20010 	lw	v0,16(s8)
800068e8:	a0400000 	sb	zero,0(v0)
800068ec:	8fc20010 	lw	v0,16(s8)
800068f0:	24420001 	addiu	v0,v0,1
800068f4:	afc20010 	sw	v0,16(s8)
800068f8:	8fc4002c 	lw	a0,44(s8)
800068fc:	8fc50010 	lw	a1,16(s8)
80006900:	0c005ead 	jal	80017ab4 <kernel_strcpy>
80006904:	00000000 	nop
80006908:	8fc40020 	lw	a0,32(s8)
8000690c:	8fc50024 	lw	a1,36(s8)
80006910:	8fc60028 	lw	a2,40(s8)
80006914:	0c0019a5 	jal	80006694 <fat_lookup>
80006918:	00000000 	nop
8000691c:	03c0e825 	move	sp,s8
80006920:	8fbf001c 	lw	ra,28(sp)
80006924:	8fbe0018 	lw	s8,24(sp)
80006928:	27bd0020 	addiu	sp,sp,32
8000692c:	03e00008 	jr	ra
80006930:	00000000 	nop

80006934 <fat_notdir>:
80006934:	27bdfff8 	addiu	sp,sp,-8
80006938:	afbe0004 	sw	s8,4(sp)
8000693c:	03a0f025 	move	s8,sp
80006940:	24020011 	li	v0,17
80006944:	03c0e825 	move	sp,s8
80006948:	8fbe0004 	lw	s8,4(sp)
8000694c:	27bd0008 	addiu	sp,sp,8
80006950:	03e00008 	jr	ra
80006954:	00000000 	nop

80006958 <fat_isdir>:
80006958:	27bdfff8 	addiu	sp,sp,-8
8000695c:	afbe0004 	sw	s8,4(sp)
80006960:	03a0f025 	move	s8,sp
80006964:	24020012 	li	v0,18
80006968:	03c0e825 	move	sp,s8
8000696c:	8fbe0004 	lw	s8,4(sp)
80006970:	27bd0008 	addiu	sp,sp,8
80006974:	03e00008 	jr	ra
80006978:	00000000 	nop

8000697c <fat_unimp>:
8000697c:	27bdfff8 	addiu	sp,sp,-8
80006980:	afbe0004 	sw	s8,4(sp)
80006984:	03a0f025 	move	s8,sp
80006988:	24020002 	li	v0,2
8000698c:	03c0e825 	move	sp,s8
80006990:	8fbe0004 	lw	s8,4(sp)
80006994:	27bd0008 	addiu	sp,sp,8
80006998:	03e00008 	jr	ra
8000699c:	00000000 	nop

800069a0 <fat_getroot>:
800069a0:	27bdffd8 	addiu	sp,sp,-40
800069a4:	afbf0024 	sw	ra,36(sp)
800069a8:	afbe0020 	sw	s8,32(sp)
800069ac:	03a0f025 	move	s8,sp
800069b0:	afc40028 	sw	a0,40(s8)
800069b4:	8fc20028 	lw	v0,40(s8)
800069b8:	8c420014 	lw	v0,20(v0)
800069bc:	afc20010 	sw	v0,16(s8)
800069c0:	24040020 	li	a0,32
800069c4:	0c003abb 	jal	8000eaec <kmalloc>
800069c8:	00000000 	nop
800069cc:	afc20014 	sw	v0,20(s8)
800069d0:	8fc40014 	lw	a0,20(s8)
800069d4:	3c028001 	lui	v0,0x8001
800069d8:	24457f0c 	addiu	a1,v0,32524
800069dc:	8fc60028 	lw	a2,40(s8)
800069e0:	00003825 	move	a3,zero
800069e4:	0c002c60 	jal	8000b180 <vnode_init>
800069e8:	00000000 	nop
800069ec:	afc20018 	sw	v0,24(s8)
800069f0:	8fc20018 	lw	v0,24(s8)
800069f4:	10400006 	beqz	v0,80006a10 <fat_getroot+0x70>
800069f8:	00000000 	nop
800069fc:	24040001 	li	a0,1
80006a00:	3c028001 	lui	v0,0x8001
80006a04:	24457f70 	addiu	a1,v0,32624
80006a08:	0c005c6a 	jal	800171a8 <log>
80006a0c:	00000000 	nop
80006a10:	8fc20014 	lw	v0,20(s8)
80006a14:	03c0e825 	move	sp,s8
80006a18:	8fbf0024 	lw	ra,36(sp)
80006a1c:	8fbe0020 	lw	s8,32(sp)
80006a20:	27bd0028 	addiu	sp,sp,40
80006a24:	03e00008 	jr	ra
80006a28:	00000000 	nop

80006a2c <fat_getroot_file>:
80006a2c:	27bdffd8 	addiu	sp,sp,-40
80006a30:	afbf0024 	sw	ra,36(sp)
80006a34:	afbe0020 	sw	s8,32(sp)
80006a38:	03a0f025 	move	s8,sp
80006a3c:	afc40028 	sw	a0,40(s8)
80006a40:	8fc20028 	lw	v0,40(s8)
80006a44:	8c420014 	lw	v0,20(v0)
80006a48:	afc20010 	sw	v0,16(s8)
80006a4c:	24040020 	li	a0,32
80006a50:	0c003abb 	jal	8000eaec <kmalloc>
80006a54:	00000000 	nop
80006a58:	afc20014 	sw	v0,20(s8)
80006a5c:	8fc40014 	lw	a0,20(s8)
80006a60:	3c028001 	lui	v0,0x8001
80006a64:	24457ea8 	addiu	a1,v0,32424
80006a68:	8fc60028 	lw	a2,40(s8)
80006a6c:	00003825 	move	a3,zero
80006a70:	0c002c60 	jal	8000b180 <vnode_init>
80006a74:	00000000 	nop
80006a78:	afc20018 	sw	v0,24(s8)
80006a7c:	8fc20018 	lw	v0,24(s8)
80006a80:	10400006 	beqz	v0,80006a9c <fat_getroot_file+0x70>
80006a84:	00000000 	nop
80006a88:	24040001 	li	a0,1
80006a8c:	3c028001 	lui	v0,0x8001
80006a90:	24457f98 	addiu	a1,v0,32664
80006a94:	0c005c6a 	jal	800171a8 <log>
80006a98:	00000000 	nop
80006a9c:	8fc20014 	lw	v0,20(s8)
80006aa0:	03c0e825 	move	sp,s8
80006aa4:	8fbf0024 	lw	ra,36(sp)
80006aa8:	8fbe0020 	lw	s8,32(sp)
80006aac:	27bd0028 	addiu	sp,sp,40
80006ab0:	03e00008 	jr	ra
80006ab4:	00000000 	nop

80006ab8 <fs_rm>:
80006ab8:	27bdbe90 	addiu	sp,sp,-16752
80006abc:	afbf416c 	sw	ra,16748(sp)
80006ac0:	afbe4168 	sw	s8,16744(sp)
80006ac4:	03a0f025 	move	s8,sp
80006ac8:	afc44170 	sw	a0,16752(s8)
80006acc:	27c20018 	addiu	v0,s8,24
80006ad0:	00402025 	move	a0,v0
80006ad4:	8fc54170 	lw	a1,16752(s8)
80006ad8:	0c001053 	jal	8000414c <fs_open>
80006adc:	00000000 	nop
80006ae0:	00401825 	move	v1,v0
80006ae4:	24020001 	li	v0,1
80006ae8:	14620003 	bne	v1,v0,80006af8 <fs_rm+0x40>
80006aec:	00000000 	nop
80006af0:	10000039 	b	80006bd8 <fs_rm+0x120>
80006af4:	00000000 	nop
80006af8:	2402ffe5 	li	v0,-27
80006afc:	a3c20124 	sb	v0,292(s8)
80006b00:	27c20018 	addiu	v0,s8,24
80006b04:	00402025 	move	a0,v0
80006b08:	0c001dcd 	jal	80007734 <get_start_cluster>
80006b0c:	00000000 	nop
80006b10:	afc20010 	sw	v0,16(s8)
80006b14:	10000018 	b	80006b78 <fs_rm+0xc0>
80006b18:	00000000 	nop
80006b1c:	27c20014 	addiu	v0,s8,20
80006b20:	8fc40010 	lw	a0,16(s8)
80006b24:	00402825 	move	a1,v0
80006b28:	0c001ddc 	jal	80007770 <get_fat_entry_value>
80006b2c:	00000000 	nop
80006b30:	00401825 	move	v1,v0
80006b34:	24020001 	li	v0,1
80006b38:	14620003 	bne	v1,v0,80006b48 <fs_rm+0x90>
80006b3c:	00000000 	nop
80006b40:	10000025 	b	80006bd8 <fs_rm+0x120>
80006b44:	00000000 	nop
80006b48:	8fc40010 	lw	a0,16(s8)
80006b4c:	00002825 	move	a1,zero
80006b50:	0c001e0f 	jal	8000783c <fs_modify_fat>
80006b54:	00000000 	nop
80006b58:	00401825 	move	v1,v0
80006b5c:	24020001 	li	v0,1
80006b60:	14620003 	bne	v1,v0,80006b70 <fs_rm+0xb8>
80006b64:	00000000 	nop
80006b68:	1000001b 	b	80006bd8 <fs_rm+0x120>
80006b6c:	00000000 	nop
80006b70:	8fc20014 	lw	v0,20(s8)
80006b74:	afc20010 	sw	v0,16(s8)
80006b78:	8fc20010 	lw	v0,16(s8)
80006b7c:	10400009 	beqz	v0,80006ba4 <fs_rm+0xec>
80006b80:	00000000 	nop
80006b84:	3c028002 	lui	v0,0x8002
80006b88:	2442f51c 	addiu	v0,v0,-2788
80006b8c:	8c42000c 	lw	v0,12(v0)
80006b90:	24430001 	addiu	v1,v0,1
80006b94:	8fc20010 	lw	v0,16(s8)
80006b98:	0062102b 	sltu	v0,v1,v0
80006b9c:	1040ffdf 	beqz	v0,80006b1c <fs_rm+0x64>
80006ba0:	00000000 	nop
80006ba4:	27c20018 	addiu	v0,s8,24
80006ba8:	00402025 	move	a0,v0
80006bac:	0c001107 	jal	8000441c <fs_close>
80006bb0:	00000000 	nop
80006bb4:	00401825 	move	v1,v0
80006bb8:	24020001 	li	v0,1
80006bbc:	14620003 	bne	v1,v0,80006bcc <fs_rm+0x114>
80006bc0:	00000000 	nop
80006bc4:	10000004 	b	80006bd8 <fs_rm+0x120>
80006bc8:	00000000 	nop
80006bcc:	00001025 	move	v0,zero
80006bd0:	10000002 	b	80006bdc <fs_rm+0x124>
80006bd4:	00000000 	nop
80006bd8:	24020001 	li	v0,1
80006bdc:	03c0e825 	move	sp,s8
80006be0:	8fbf416c 	lw	ra,16748(sp)
80006be4:	8fbe4168 	lw	s8,16744(sp)
80006be8:	27bd4170 	addiu	sp,sp,16752
80006bec:	03e00008 	jr	ra
80006bf0:	00000000 	nop

80006bf4 <fs_mv>:
80006bf4:	27bd8010 	addiu	sp,sp,-32752
80006bf8:	afbf7fec 	sw	ra,32748(sp)
80006bfc:	afbe7fe8 	sw	s8,32744(sp)
80006c00:	27bdfd30 	addiu	sp,sp,-720
80006c04:	03a0f025 	move	s8,sp
80006c08:	340282c0 	li	v0,0x82c0
80006c0c:	005e1021 	addu	v0,v0,s8
80006c10:	ac440000 	sw	a0,0(v0)
80006c14:	340282c4 	li	v0,0x82c4
80006c18:	005e1021 	addu	v0,v0,s8
80006c1c:	ac450000 	sw	a1,0(v0)
80006c20:	27c20018 	addiu	v0,s8,24
80006c24:	00402025 	move	a0,v0
80006c28:	340282c0 	li	v0,0x82c0
80006c2c:	005e1021 	addu	v0,v0,s8
80006c30:	8c450000 	lw	a1,0(v0)
80006c34:	0c001053 	jal	8000414c <fs_open>
80006c38:	00000000 	nop
80006c3c:	00401825 	move	v1,v0
80006c40:	24020001 	li	v0,1
80006c44:	14620003 	bne	v1,v0,80006c54 <fs_mv+0x60>
80006c48:	00000000 	nop
80006c4c:	10000060 	b	80006dd0 <fs_mv+0x1dc>
80006c50:	00000000 	nop
80006c54:	27c20018 	addiu	v0,s8,24
80006c58:	2442010c 	addiu	v0,v0,268
80006c5c:	00402025 	move	a0,v0
80006c60:	0c001db1 	jal	800076c4 <get_entry_filesize>
80006c64:	00000000 	nop
80006c68:	afc20010 	sw	v0,16(s8)
80006c6c:	8fc20010 	lw	v0,16(s8)
80006c70:	24420001 	addiu	v0,v0,1
80006c74:	00402025 	move	a0,v0
80006c78:	0c003abb 	jal	8000eaec <kmalloc>
80006c7c:	00000000 	nop
80006c80:	afc20014 	sw	v0,20(s8)
80006c84:	27c20018 	addiu	v0,s8,24
80006c88:	00402025 	move	a0,v0
80006c8c:	8fc50014 	lw	a1,20(s8)
80006c90:	8fc60010 	lw	a2,16(s8)
80006c94:	0c00116c 	jal	800045b0 <fs_read>
80006c98:	00000000 	nop
80006c9c:	8fc30014 	lw	v1,20(s8)
80006ca0:	8fc20010 	lw	v0,16(s8)
80006ca4:	00621021 	addu	v0,v1,v0
80006ca8:	a0400000 	sb	zero,0(v0)
80006cac:	27c20018 	addiu	v0,s8,24
80006cb0:	00402025 	move	a0,v0
80006cb4:	0c001107 	jal	8000441c <fs_close>
80006cb8:	00000000 	nop
80006cbc:	00401825 	move	v1,v0
80006cc0:	24020001 	li	v0,1
80006cc4:	14620003 	bne	v1,v0,80006cd4 <fs_mv+0xe0>
80006cc8:	00000000 	nop
80006ccc:	10000040 	b	80006dd0 <fs_mv+0x1dc>
80006cd0:	00000000 	nop
80006cd4:	340282c4 	li	v0,0x82c4
80006cd8:	005e1021 	addu	v0,v0,s8
80006cdc:	8c440000 	lw	a0,0(v0)
80006ce0:	0c00167b 	jal	800059ec <fs_create>
80006ce4:	00000000 	nop
80006ce8:	00401825 	move	v1,v0
80006cec:	24020001 	li	v0,1
80006cf0:	14620003 	bne	v1,v0,80006d00 <fs_mv+0x10c>
80006cf4:	00000000 	nop
80006cf8:	10000035 	b	80006dd0 <fs_mv+0x1dc>
80006cfc:	00000000 	nop
80006d00:	27c24168 	addiu	v0,s8,16744
80006d04:	00402025 	move	a0,v0
80006d08:	340282c4 	li	v0,0x82c4
80006d0c:	005e1021 	addu	v0,v0,s8
80006d10:	8c450000 	lw	a1,0(v0)
80006d14:	0c001053 	jal	8000414c <fs_open>
80006d18:	00000000 	nop
80006d1c:	00401825 	move	v1,v0
80006d20:	24020001 	li	v0,1
80006d24:	14620003 	bne	v1,v0,80006d34 <fs_mv+0x140>
80006d28:	00000000 	nop
80006d2c:	10000028 	b	80006dd0 <fs_mv+0x1dc>
80006d30:	00000000 	nop
80006d34:	27c24168 	addiu	v0,s8,16744
80006d38:	00402025 	move	a0,v0
80006d3c:	8fc50014 	lw	a1,20(s8)
80006d40:	8fc60010 	lw	a2,16(s8)
80006d44:	0c001300 	jal	80004c00 <fs_write>
80006d48:	00000000 	nop
80006d4c:	00401825 	move	v1,v0
80006d50:	24020001 	li	v0,1
80006d54:	14620003 	bne	v1,v0,80006d64 <fs_mv+0x170>
80006d58:	00000000 	nop
80006d5c:	1000001c 	b	80006dd0 <fs_mv+0x1dc>
80006d60:	00000000 	nop
80006d64:	27c24168 	addiu	v0,s8,16744
80006d68:	00402025 	move	a0,v0
80006d6c:	0c001107 	jal	8000441c <fs_close>
80006d70:	00000000 	nop
80006d74:	00401825 	move	v1,v0
80006d78:	24020001 	li	v0,1
80006d7c:	14620003 	bne	v1,v0,80006d8c <fs_mv+0x198>
80006d80:	00000000 	nop
80006d84:	10000012 	b	80006dd0 <fs_mv+0x1dc>
80006d88:	00000000 	nop
80006d8c:	340282c0 	li	v0,0x82c0
80006d90:	005e1021 	addu	v0,v0,s8
80006d94:	8c440000 	lw	a0,0(v0)
80006d98:	0c001aae 	jal	80006ab8 <fs_rm>
80006d9c:	00000000 	nop
80006da0:	00401825 	move	v1,v0
80006da4:	24020001 	li	v0,1
80006da8:	14620003 	bne	v1,v0,80006db8 <fs_mv+0x1c4>
80006dac:	00000000 	nop
80006db0:	10000007 	b	80006dd0 <fs_mv+0x1dc>
80006db4:	00000000 	nop
80006db8:	8fc40014 	lw	a0,20(s8)
80006dbc:	0c003b13 	jal	8000ec4c <kfree>
80006dc0:	00000000 	nop
80006dc4:	00001025 	move	v0,zero
80006dc8:	10000002 	b	80006dd4 <fs_mv+0x1e0>
80006dcc:	00000000 	nop
80006dd0:	24020001 	li	v0,1
80006dd4:	27dd02d0 	addiu	sp,s8,720
80006dd8:	8fbf7fec 	lw	ra,32748(sp)
80006ddc:	8fbe7fe8 	lw	s8,32744(sp)
80006de0:	27bd7ff0 	addiu	sp,sp,32752
80006de4:	03e00008 	jr	ra
80006de8:	00000000 	nop

80006dec <fs_cp>:
80006dec:	27bd8010 	addiu	sp,sp,-32752
80006df0:	afbf7fec 	sw	ra,32748(sp)
80006df4:	afbe7fe8 	sw	s8,32744(sp)
80006df8:	27bdfd30 	addiu	sp,sp,-720
80006dfc:	03a0f025 	move	s8,sp
80006e00:	340282c0 	li	v0,0x82c0
80006e04:	005e1021 	addu	v0,v0,s8
80006e08:	ac440000 	sw	a0,0(v0)
80006e0c:	340282c4 	li	v0,0x82c4
80006e10:	005e1021 	addu	v0,v0,s8
80006e14:	ac450000 	sw	a1,0(v0)
80006e18:	27c20018 	addiu	v0,s8,24
80006e1c:	00402025 	move	a0,v0
80006e20:	340282c0 	li	v0,0x82c0
80006e24:	005e1021 	addu	v0,v0,s8
80006e28:	8c450000 	lw	a1,0(v0)
80006e2c:	0c001053 	jal	8000414c <fs_open>
80006e30:	00000000 	nop
80006e34:	00401825 	move	v1,v0
80006e38:	24020001 	li	v0,1
80006e3c:	14620003 	bne	v1,v0,80006e4c <fs_cp+0x60>
80006e40:	00000000 	nop
80006e44:	10000055 	b	80006f9c <fs_cp+0x1b0>
80006e48:	00000000 	nop
80006e4c:	27c20018 	addiu	v0,s8,24
80006e50:	2442010c 	addiu	v0,v0,268
80006e54:	00402025 	move	a0,v0
80006e58:	0c001db1 	jal	800076c4 <get_entry_filesize>
80006e5c:	00000000 	nop
80006e60:	afc20010 	sw	v0,16(s8)
80006e64:	8fc20010 	lw	v0,16(s8)
80006e68:	24420001 	addiu	v0,v0,1
80006e6c:	00402025 	move	a0,v0
80006e70:	0c003abb 	jal	8000eaec <kmalloc>
80006e74:	00000000 	nop
80006e78:	afc20014 	sw	v0,20(s8)
80006e7c:	27c20018 	addiu	v0,s8,24
80006e80:	00402025 	move	a0,v0
80006e84:	8fc50014 	lw	a1,20(s8)
80006e88:	8fc60010 	lw	a2,16(s8)
80006e8c:	0c00116c 	jal	800045b0 <fs_read>
80006e90:	00000000 	nop
80006e94:	8fc30014 	lw	v1,20(s8)
80006e98:	8fc20010 	lw	v0,16(s8)
80006e9c:	00621021 	addu	v0,v1,v0
80006ea0:	a0400000 	sb	zero,0(v0)
80006ea4:	27c20018 	addiu	v0,s8,24
80006ea8:	00402025 	move	a0,v0
80006eac:	0c001107 	jal	8000441c <fs_close>
80006eb0:	00000000 	nop
80006eb4:	00401825 	move	v1,v0
80006eb8:	24020001 	li	v0,1
80006ebc:	14620003 	bne	v1,v0,80006ecc <fs_cp+0xe0>
80006ec0:	00000000 	nop
80006ec4:	10000035 	b	80006f9c <fs_cp+0x1b0>
80006ec8:	00000000 	nop
80006ecc:	340282c4 	li	v0,0x82c4
80006ed0:	005e1021 	addu	v0,v0,s8
80006ed4:	8c440000 	lw	a0,0(v0)
80006ed8:	0c00167b 	jal	800059ec <fs_create>
80006edc:	00000000 	nop
80006ee0:	00401825 	move	v1,v0
80006ee4:	24020001 	li	v0,1
80006ee8:	14620003 	bne	v1,v0,80006ef8 <fs_cp+0x10c>
80006eec:	00000000 	nop
80006ef0:	1000002a 	b	80006f9c <fs_cp+0x1b0>
80006ef4:	00000000 	nop
80006ef8:	27c24168 	addiu	v0,s8,16744
80006efc:	00402025 	move	a0,v0
80006f00:	340282c4 	li	v0,0x82c4
80006f04:	005e1021 	addu	v0,v0,s8
80006f08:	8c450000 	lw	a1,0(v0)
80006f0c:	0c001053 	jal	8000414c <fs_open>
80006f10:	00000000 	nop
80006f14:	00401825 	move	v1,v0
80006f18:	24020001 	li	v0,1
80006f1c:	14620003 	bne	v1,v0,80006f2c <fs_cp+0x140>
80006f20:	00000000 	nop
80006f24:	1000001d 	b	80006f9c <fs_cp+0x1b0>
80006f28:	00000000 	nop
80006f2c:	27c24168 	addiu	v0,s8,16744
80006f30:	00402025 	move	a0,v0
80006f34:	8fc50014 	lw	a1,20(s8)
80006f38:	8fc60010 	lw	a2,16(s8)
80006f3c:	0c001300 	jal	80004c00 <fs_write>
80006f40:	00000000 	nop
80006f44:	00401825 	move	v1,v0
80006f48:	24020001 	li	v0,1
80006f4c:	14620003 	bne	v1,v0,80006f5c <fs_cp+0x170>
80006f50:	00000000 	nop
80006f54:	10000011 	b	80006f9c <fs_cp+0x1b0>
80006f58:	00000000 	nop
80006f5c:	27c24168 	addiu	v0,s8,16744
80006f60:	00402025 	move	a0,v0
80006f64:	0c001107 	jal	8000441c <fs_close>
80006f68:	00000000 	nop
80006f6c:	00401825 	move	v1,v0
80006f70:	24020001 	li	v0,1
80006f74:	14620003 	bne	v1,v0,80006f84 <fs_cp+0x198>
80006f78:	00000000 	nop
80006f7c:	10000007 	b	80006f9c <fs_cp+0x1b0>
80006f80:	00000000 	nop
80006f84:	8fc40014 	lw	a0,20(s8)
80006f88:	0c003b13 	jal	8000ec4c <kfree>
80006f8c:	00000000 	nop
80006f90:	00001025 	move	v0,zero
80006f94:	10000002 	b	80006fa0 <fs_cp+0x1b4>
80006f98:	00000000 	nop
80006f9c:	24020001 	li	v0,1
80006fa0:	27dd02d0 	addiu	sp,s8,720
80006fa4:	8fbf7fec 	lw	ra,32748(sp)
80006fa8:	8fbe7fe8 	lw	s8,32744(sp)
80006fac:	27bd7ff0 	addiu	sp,sp,32752
80006fb0:	03e00008 	jr	ra
80006fb4:	00000000 	nop

80006fb8 <fs_mkdir>:
80006fb8:	27bd8010 	addiu	sp,sp,-32752
80006fbc:	afbf7fec 	sw	ra,32748(sp)
80006fc0:	afbe7fe8 	sw	s8,32744(sp)
80006fc4:	27bdfd30 	addiu	sp,sp,-720
80006fc8:	03a0f025 	move	s8,sp
80006fcc:	340282c0 	li	v0,0x82c0
80006fd0:	005e1021 	addu	v0,v0,s8
80006fd4:	ac440000 	sw	a0,0(v0)
80006fd8:	340282c0 	li	v0,0x82c0
80006fdc:	005e1021 	addu	v0,v0,s8
80006fe0:	8c440000 	lw	a0,0(v0)
80006fe4:	24050030 	li	a1,48
80006fe8:	0c001571 	jal	800055c4 <fs_create_with_attr>
80006fec:	00000000 	nop
80006ff0:	00401825 	move	v1,v0
80006ff4:	24020001 	li	v0,1
80006ff8:	14620003 	bne	v1,v0,80007008 <fs_mkdir+0x50>
80006ffc:	00000000 	nop
80007000:	100000cb 	b	80007330 <fs_mkdir+0x378>
80007004:	00000000 	nop
80007008:	27c20014 	addiu	v0,s8,20
8000700c:	00402025 	move	a0,v0
80007010:	340282c0 	li	v0,0x82c0
80007014:	005e1021 	addu	v0,v0,s8
80007018:	8c450000 	lw	a1,0(v0)
8000701c:	0c001053 	jal	8000414c <fs_open>
80007020:	00000000 	nop
80007024:	00401825 	move	v1,v0
80007028:	24020001 	li	v0,1
8000702c:	14620003 	bne	v1,v0,8000703c <fs_mkdir+0x84>
80007030:	00000000 	nop
80007034:	100000be 	b	80007330 <fs_mkdir+0x378>
80007038:	00000000 	nop
8000703c:	3c028002 	lui	v0,0x8002
80007040:	2403002e 	li	v1,46
80007044:	a0434ea4 	sb	v1,20132(v0)
80007048:	24020001 	li	v0,1
8000704c:	afc20010 	sw	v0,16(s8)
80007050:	1000000a 	b	8000707c <fs_mkdir+0xc4>
80007054:	00000000 	nop
80007058:	3c028002 	lui	v0,0x8002
8000705c:	24434ea4 	addiu	v1,v0,20132
80007060:	8fc20010 	lw	v0,16(s8)
80007064:	00621021 	addu	v0,v1,v0
80007068:	24030020 	li	v1,32
8000706c:	a0430000 	sb	v1,0(v0)
80007070:	8fc20010 	lw	v0,16(s8)
80007074:	24420001 	addiu	v0,v0,1
80007078:	afc20010 	sw	v0,16(s8)
8000707c:	8fc20010 	lw	v0,16(s8)
80007080:	2c42000b 	sltiu	v0,v0,11
80007084:	1440fff4 	bnez	v0,80007058 <fs_mkdir+0xa0>
80007088:	00000000 	nop
8000708c:	3c028002 	lui	v0,0x8002
80007090:	24424ea4 	addiu	v0,v0,20132
80007094:	24030030 	li	v1,48
80007098:	a043000b 	sb	v1,11(v0)
8000709c:	2402000c 	li	v0,12
800070a0:	afc20010 	sw	v0,16(s8)
800070a4:	10000009 	b	800070cc <fs_mkdir+0x114>
800070a8:	00000000 	nop
800070ac:	3c028002 	lui	v0,0x8002
800070b0:	24434ea4 	addiu	v1,v0,20132
800070b4:	8fc20010 	lw	v0,16(s8)
800070b8:	00621021 	addu	v0,v1,v0
800070bc:	a0400000 	sb	zero,0(v0)
800070c0:	8fc20010 	lw	v0,16(s8)
800070c4:	24420001 	addiu	v0,v0,1
800070c8:	afc20010 	sw	v0,16(s8)
800070cc:	8fc20010 	lw	v0,16(s8)
800070d0:	2c420020 	sltiu	v0,v0,32
800070d4:	1440fff5 	bnez	v0,800070ac <fs_mkdir+0xf4>
800070d8:	00000000 	nop
800070dc:	27c20014 	addiu	v0,s8,20
800070e0:	00402025 	move	a0,v0
800070e4:	3c028002 	lui	v0,0x8002
800070e8:	24454ea4 	addiu	a1,v0,20132
800070ec:	24060020 	li	a2,32
800070f0:	0c001300 	jal	80004c00 <fs_write>
800070f4:	00000000 	nop
800070f8:	00401825 	move	v1,v0
800070fc:	24020001 	li	v0,1
80007100:	14620003 	bne	v1,v0,80007110 <fs_mkdir+0x158>
80007104:	00000000 	nop
80007108:	10000089 	b	80007330 <fs_mkdir+0x378>
8000710c:	00000000 	nop
80007110:	27c20014 	addiu	v0,s8,20
80007114:	00402025 	move	a0,v0
80007118:	00002825 	move	a1,zero
8000711c:	0c001482 	jal	80005208 <fs_lseek>
80007120:	00000000 	nop
80007124:	93c30134 	lbu	v1,308(s8)
80007128:	3c028002 	lui	v0,0x8002
8000712c:	24424ea4 	addiu	v0,v0,20132
80007130:	a0430014 	sb	v1,20(v0)
80007134:	93c30135 	lbu	v1,309(s8)
80007138:	3c028002 	lui	v0,0x8002
8000713c:	24424ea4 	addiu	v0,v0,20132
80007140:	a0430015 	sb	v1,21(v0)
80007144:	93c3013a 	lbu	v1,314(s8)
80007148:	3c028002 	lui	v0,0x8002
8000714c:	24424ea4 	addiu	v0,v0,20132
80007150:	a043001a 	sb	v1,26(v0)
80007154:	93c3013b 	lbu	v1,315(s8)
80007158:	3c028002 	lui	v0,0x8002
8000715c:	24424ea4 	addiu	v0,v0,20132
80007160:	a043001b 	sb	v1,27(v0)
80007164:	27c20014 	addiu	v0,s8,20
80007168:	00402025 	move	a0,v0
8000716c:	3c028002 	lui	v0,0x8002
80007170:	24454ea4 	addiu	a1,v0,20132
80007174:	24060020 	li	a2,32
80007178:	0c001300 	jal	80004c00 <fs_write>
8000717c:	00000000 	nop
80007180:	00401825 	move	v1,v0
80007184:	24020001 	li	v0,1
80007188:	14620003 	bne	v1,v0,80007198 <fs_mkdir+0x1e0>
8000718c:	00000000 	nop
80007190:	10000067 	b	80007330 <fs_mkdir+0x378>
80007194:	00000000 	nop
80007198:	3c028002 	lui	v0,0x8002
8000719c:	2403002e 	li	v1,46
800071a0:	a0434ea4 	sb	v1,20132(v0)
800071a4:	3c028002 	lui	v0,0x8002
800071a8:	24424ea4 	addiu	v0,v0,20132
800071ac:	2403002e 	li	v1,46
800071b0:	a0430001 	sb	v1,1(v0)
800071b4:	24020002 	li	v0,2
800071b8:	afc20010 	sw	v0,16(s8)
800071bc:	1000000a 	b	800071e8 <fs_mkdir+0x230>
800071c0:	00000000 	nop
800071c4:	3c028002 	lui	v0,0x8002
800071c8:	24434ea4 	addiu	v1,v0,20132
800071cc:	8fc20010 	lw	v0,16(s8)
800071d0:	00621021 	addu	v0,v1,v0
800071d4:	24030020 	li	v1,32
800071d8:	a0430000 	sb	v1,0(v0)
800071dc:	8fc20010 	lw	v0,16(s8)
800071e0:	24420001 	addiu	v0,v0,1
800071e4:	afc20010 	sw	v0,16(s8)
800071e8:	8fc20010 	lw	v0,16(s8)
800071ec:	2c42000b 	sltiu	v0,v0,11
800071f0:	1440fff4 	bnez	v0,800071c4 <fs_mkdir+0x20c>
800071f4:	00000000 	nop
800071f8:	3c028002 	lui	v0,0x8002
800071fc:	24424ea4 	addiu	v0,v0,20132
80007200:	24030030 	li	v1,48
80007204:	a043000b 	sb	v1,11(v0)
80007208:	2402000c 	li	v0,12
8000720c:	afc20010 	sw	v0,16(s8)
80007210:	10000009 	b	80007238 <fs_mkdir+0x280>
80007214:	00000000 	nop
80007218:	3c028002 	lui	v0,0x8002
8000721c:	24434ea4 	addiu	v1,v0,20132
80007220:	8fc20010 	lw	v0,16(s8)
80007224:	00621021 	addu	v0,v1,v0
80007228:	a0400000 	sb	zero,0(v0)
8000722c:	8fc20010 	lw	v0,16(s8)
80007230:	24420001 	addiu	v0,v0,1
80007234:	afc20010 	sw	v0,16(s8)
80007238:	8fc20010 	lw	v0,16(s8)
8000723c:	2c420020 	sltiu	v0,v0,32
80007240:	1440fff5 	bnez	v0,80007218 <fs_mkdir+0x260>
80007244:	00000000 	nop
80007248:	8fc24268 	lw	v0,17000(s8)
8000724c:	00021402 	srl	v0,v0,0x10
80007250:	3042ffff 	andi	v0,v0,0xffff
80007254:	00401825 	move	v1,v0
80007258:	3c028002 	lui	v0,0x8002
8000725c:	24444eb8 	addiu	a0,v0,20152
80007260:	00602825 	move	a1,v1
80007264:	0c001d64 	jal	80007590 <set_uint16_t>
80007268:	00000000 	nop
8000726c:	8fc24268 	lw	v0,17000(s8)
80007270:	3042ffff 	andi	v0,v0,0xffff
80007274:	00401825 	move	v1,v0
80007278:	3c028002 	lui	v0,0x8002
8000727c:	24444ebe 	addiu	a0,v0,20158
80007280:	00602825 	move	a1,v1
80007284:	0c001d64 	jal	80007590 <set_uint16_t>
80007288:	00000000 	nop
8000728c:	27c20014 	addiu	v0,s8,20
80007290:	00402025 	move	a0,v0
80007294:	3c028002 	lui	v0,0x8002
80007298:	24454ea4 	addiu	a1,v0,20132
8000729c:	24060020 	li	a2,32
800072a0:	0c001300 	jal	80004c00 <fs_write>
800072a4:	00000000 	nop
800072a8:	00401825 	move	v1,v0
800072ac:	24020001 	li	v0,1
800072b0:	14620003 	bne	v1,v0,800072c0 <fs_mkdir+0x308>
800072b4:	00000000 	nop
800072b8:	1000001d 	b	80007330 <fs_mkdir+0x378>
800072bc:	00000000 	nop
800072c0:	2402001c 	li	v0,28
800072c4:	afc20010 	sw	v0,16(s8)
800072c8:	10000008 	b	800072ec <fs_mkdir+0x334>
800072cc:	00000000 	nop
800072d0:	8fc20010 	lw	v0,16(s8)
800072d4:	27c30010 	addiu	v1,s8,16
800072d8:	00621021 	addu	v0,v1,v0
800072dc:	a0400110 	sb	zero,272(v0)
800072e0:	8fc20010 	lw	v0,16(s8)
800072e4:	24420001 	addiu	v0,v0,1
800072e8:	afc20010 	sw	v0,16(s8)
800072ec:	8fc20010 	lw	v0,16(s8)
800072f0:	2c420020 	sltiu	v0,v0,32
800072f4:	1440fff6 	bnez	v0,800072d0 <fs_mkdir+0x318>
800072f8:	00000000 	nop
800072fc:	27c20014 	addiu	v0,s8,20
80007300:	00402025 	move	a0,v0
80007304:	0c001107 	jal	8000441c <fs_close>
80007308:	00000000 	nop
8000730c:	00401825 	move	v1,v0
80007310:	24020001 	li	v0,1
80007314:	14620003 	bne	v1,v0,80007324 <fs_mkdir+0x36c>
80007318:	00000000 	nop
8000731c:	10000004 	b	80007330 <fs_mkdir+0x378>
80007320:	00000000 	nop
80007324:	00001025 	move	v0,zero
80007328:	10000002 	b	80007334 <fs_mkdir+0x37c>
8000732c:	00000000 	nop
80007330:	24020001 	li	v0,1
80007334:	27dd02d0 	addiu	sp,s8,720
80007338:	8fbf7fec 	lw	ra,32748(sp)
8000733c:	8fbe7fe8 	lw	s8,32744(sp)
80007340:	27bd7ff0 	addiu	sp,sp,32752
80007344:	03e00008 	jr	ra
80007348:	00000000 	nop

8000734c <fs_cat>:
8000734c:	27bdbe80 	addiu	sp,sp,-16768
80007350:	afbf417c 	sw	ra,16764(sp)
80007354:	afbe4178 	sw	s8,16760(sp)
80007358:	03a0f025 	move	s8,sp
8000735c:	afc44180 	sw	a0,16768(s8)
80007360:	27c20024 	addiu	v0,s8,36
80007364:	00402025 	move	a0,v0
80007368:	8fc54180 	lw	a1,16768(s8)
8000736c:	0c001053 	jal	8000414c <fs_open>
80007370:	00000000 	nop
80007374:	1040000a 	beqz	v0,800073a0 <fs_cat+0x54>
80007378:	00000000 	nop
8000737c:	24040001 	li	a0,1
80007380:	3c028001 	lui	v0,0x8001
80007384:	24457fc4 	addiu	a1,v0,32708
80007388:	8fc64180 	lw	a2,16768(s8)
8000738c:	0c005c6a 	jal	800171a8 <log>
80007390:	00000000 	nop
80007394:	24020001 	li	v0,1
80007398:	10000024 	b	8000742c <fs_cat+0xe0>
8000739c:	00000000 	nop
800073a0:	27c20024 	addiu	v0,s8,36
800073a4:	2442010c 	addiu	v0,v0,268
800073a8:	00402025 	move	a0,v0
800073ac:	0c001db1 	jal	800076c4 <get_entry_filesize>
800073b0:	00000000 	nop
800073b4:	afc20010 	sw	v0,16(s8)
800073b8:	8fc20010 	lw	v0,16(s8)
800073bc:	24420001 	addiu	v0,v0,1
800073c0:	00402025 	move	a0,v0
800073c4:	0c003abb 	jal	8000eaec <kmalloc>
800073c8:	00000000 	nop
800073cc:	afc20014 	sw	v0,20(s8)
800073d0:	27c20024 	addiu	v0,s8,36
800073d4:	00402025 	move	a0,v0
800073d8:	8fc50014 	lw	a1,20(s8)
800073dc:	8fc60010 	lw	a2,16(s8)
800073e0:	0c00116c 	jal	800045b0 <fs_read>
800073e4:	00000000 	nop
800073e8:	8fc30014 	lw	v1,20(s8)
800073ec:	8fc20010 	lw	v0,16(s8)
800073f0:	00621021 	addu	v0,v1,v0
800073f4:	a0400000 	sb	zero,0(v0)
800073f8:	3c028001 	lui	v0,0x8001
800073fc:	24447fd8 	addiu	a0,v0,32728
80007400:	8fc50014 	lw	a1,20(s8)
80007404:	0c000aaa 	jal	80002aa8 <kernel_printf>
80007408:	00000000 	nop
8000740c:	27c20024 	addiu	v0,s8,36
80007410:	00402025 	move	a0,v0
80007414:	0c001107 	jal	8000441c <fs_close>
80007418:	00000000 	nop
8000741c:	8fc40014 	lw	a0,20(s8)
80007420:	0c003b13 	jal	8000ec4c <kfree>
80007424:	00000000 	nop
80007428:	00001025 	move	v0,zero
8000742c:	03c0e825 	move	sp,s8
80007430:	8fbf417c 	lw	ra,16764(sp)
80007434:	8fbe4178 	lw	s8,16760(sp)
80007438:	27bd4180 	addiu	sp,sp,16768
8000743c:	03e00008 	jr	ra
80007440:	00000000 	nop

80007444 <read_block>:
80007444:	27bdffe8 	addiu	sp,sp,-24
80007448:	afbf0014 	sw	ra,20(sp)
8000744c:	afbe0010 	sw	s8,16(sp)
80007450:	03a0f025 	move	s8,sp
80007454:	afc40018 	sw	a0,24(s8)
80007458:	afc5001c 	sw	a1,28(s8)
8000745c:	afc60020 	sw	a2,32(s8)
80007460:	8fc40018 	lw	a0,24(s8)
80007464:	8fc5001c 	lw	a1,28(s8)
80007468:	8fc60020 	lw	a2,32(s8)
8000746c:	0c000721 	jal	80001c84 <sd_read_block>
80007470:	00000000 	nop
80007474:	03c0e825 	move	sp,s8
80007478:	8fbf0014 	lw	ra,20(sp)
8000747c:	8fbe0010 	lw	s8,16(sp)
80007480:	27bd0018 	addiu	sp,sp,24
80007484:	03e00008 	jr	ra
80007488:	00000000 	nop

8000748c <write_block>:
8000748c:	27bdffe8 	addiu	sp,sp,-24
80007490:	afbf0014 	sw	ra,20(sp)
80007494:	afbe0010 	sw	s8,16(sp)
80007498:	03a0f025 	move	s8,sp
8000749c:	afc40018 	sw	a0,24(s8)
800074a0:	afc5001c 	sw	a1,28(s8)
800074a4:	afc60020 	sw	a2,32(s8)
800074a8:	8fc40018 	lw	a0,24(s8)
800074ac:	8fc5001c 	lw	a1,28(s8)
800074b0:	8fc60020 	lw	a2,32(s8)
800074b4:	0c00074e 	jal	80001d38 <sd_write_block>
800074b8:	00000000 	nop
800074bc:	03c0e825 	move	sp,s8
800074c0:	8fbf0014 	lw	ra,20(sp)
800074c4:	8fbe0010 	lw	s8,16(sp)
800074c8:	27bd0018 	addiu	sp,sp,24
800074cc:	03e00008 	jr	ra
800074d0:	00000000 	nop

800074d4 <get_uint16_t>:
800074d4:	27bdfff8 	addiu	sp,sp,-8
800074d8:	afbe0004 	sw	s8,4(sp)
800074dc:	03a0f025 	move	s8,sp
800074e0:	afc40008 	sw	a0,8(s8)
800074e4:	8fc20008 	lw	v0,8(s8)
800074e8:	90420000 	lbu	v0,0(v0)
800074ec:	3043ffff 	andi	v1,v0,0xffff
800074f0:	8fc20008 	lw	v0,8(s8)
800074f4:	24420001 	addiu	v0,v0,1
800074f8:	90420000 	lbu	v0,0(v0)
800074fc:	3042ffff 	andi	v0,v0,0xffff
80007500:	00021200 	sll	v0,v0,0x8
80007504:	3042ffff 	andi	v0,v0,0xffff
80007508:	00621021 	addu	v0,v1,v0
8000750c:	3042ffff 	andi	v0,v0,0xffff
80007510:	03c0e825 	move	sp,s8
80007514:	8fbe0004 	lw	s8,4(sp)
80007518:	27bd0008 	addiu	sp,sp,8
8000751c:	03e00008 	jr	ra
80007520:	00000000 	nop

80007524 <get_uint32_t>:
80007524:	27bdfff8 	addiu	sp,sp,-8
80007528:	afbe0004 	sw	s8,4(sp)
8000752c:	03a0f025 	move	s8,sp
80007530:	afc40008 	sw	a0,8(s8)
80007534:	8fc20008 	lw	v0,8(s8)
80007538:	90420000 	lbu	v0,0(v0)
8000753c:	00401825 	move	v1,v0
80007540:	8fc20008 	lw	v0,8(s8)
80007544:	24420001 	addiu	v0,v0,1
80007548:	90420000 	lbu	v0,0(v0)
8000754c:	00021200 	sll	v0,v0,0x8
80007550:	00621821 	addu	v1,v1,v0
80007554:	8fc20008 	lw	v0,8(s8)
80007558:	24420002 	addiu	v0,v0,2
8000755c:	90420000 	lbu	v0,0(v0)
80007560:	00021400 	sll	v0,v0,0x10
80007564:	00621821 	addu	v1,v1,v0
80007568:	8fc20008 	lw	v0,8(s8)
8000756c:	24420003 	addiu	v0,v0,3
80007570:	90420000 	lbu	v0,0(v0)
80007574:	00021600 	sll	v0,v0,0x18
80007578:	00621021 	addu	v0,v1,v0
8000757c:	03c0e825 	move	sp,s8
80007580:	8fbe0004 	lw	s8,4(sp)
80007584:	27bd0008 	addiu	sp,sp,8
80007588:	03e00008 	jr	ra
8000758c:	00000000 	nop

80007590 <set_uint16_t>:
80007590:	27bdfff8 	addiu	sp,sp,-8
80007594:	afbe0004 	sw	s8,4(sp)
80007598:	03a0f025 	move	s8,sp
8000759c:	afc40008 	sw	a0,8(s8)
800075a0:	00a01025 	move	v0,a1
800075a4:	a7c2000c 	sh	v0,12(s8)
800075a8:	97c2000c 	lhu	v0,12(s8)
800075ac:	304300ff 	andi	v1,v0,0xff
800075b0:	8fc20008 	lw	v0,8(s8)
800075b4:	a0430000 	sb	v1,0(v0)
800075b8:	8fc20008 	lw	v0,8(s8)
800075bc:	24420001 	addiu	v0,v0,1
800075c0:	97c3000c 	lhu	v1,12(s8)
800075c4:	00031a02 	srl	v1,v1,0x8
800075c8:	3063ffff 	andi	v1,v1,0xffff
800075cc:	306300ff 	andi	v1,v1,0xff
800075d0:	a0430000 	sb	v1,0(v0)
800075d4:	03c0e825 	move	sp,s8
800075d8:	8fbe0004 	lw	s8,4(sp)
800075dc:	27bd0008 	addiu	sp,sp,8
800075e0:	03e00008 	jr	ra
800075e4:	00000000 	nop

800075e8 <set_uint32_t>:
800075e8:	27bdfff8 	addiu	sp,sp,-8
800075ec:	afbe0004 	sw	s8,4(sp)
800075f0:	03a0f025 	move	s8,sp
800075f4:	afc40008 	sw	a0,8(s8)
800075f8:	afc5000c 	sw	a1,12(s8)
800075fc:	8fc2000c 	lw	v0,12(s8)
80007600:	304300ff 	andi	v1,v0,0xff
80007604:	8fc20008 	lw	v0,8(s8)
80007608:	a0430000 	sb	v1,0(v0)
8000760c:	8fc20008 	lw	v0,8(s8)
80007610:	24420001 	addiu	v0,v0,1
80007614:	8fc3000c 	lw	v1,12(s8)
80007618:	00031a02 	srl	v1,v1,0x8
8000761c:	306300ff 	andi	v1,v1,0xff
80007620:	a0430000 	sb	v1,0(v0)
80007624:	8fc20008 	lw	v0,8(s8)
80007628:	24420002 	addiu	v0,v0,2
8000762c:	8fc3000c 	lw	v1,12(s8)
80007630:	00031c02 	srl	v1,v1,0x10
80007634:	306300ff 	andi	v1,v1,0xff
80007638:	a0430000 	sb	v1,0(v0)
8000763c:	8fc20008 	lw	v0,8(s8)
80007640:	24420003 	addiu	v0,v0,3
80007644:	8fc3000c 	lw	v1,12(s8)
80007648:	00031e02 	srl	v1,v1,0x18
8000764c:	306300ff 	andi	v1,v1,0xff
80007650:	a0430000 	sb	v1,0(v0)
80007654:	03c0e825 	move	sp,s8
80007658:	8fbe0004 	lw	s8,4(sp)
8000765c:	27bd0008 	addiu	sp,sp,8
80007660:	03e00008 	jr	ra
80007664:	00000000 	nop

80007668 <fs_wa>:
80007668:	27bdfff0 	addiu	sp,sp,-16
8000766c:	afbe000c 	sw	s8,12(sp)
80007670:	03a0f025 	move	s8,sp
80007674:	afc40010 	sw	a0,16(s8)
80007678:	afc00000 	sw	zero,0(s8)
8000767c:	10000007 	b	8000769c <fs_wa+0x34>
80007680:	00000000 	nop
80007684:	8fc20010 	lw	v0,16(s8)
80007688:	00021042 	srl	v0,v0,0x1
8000768c:	afc20010 	sw	v0,16(s8)
80007690:	8fc20000 	lw	v0,0(s8)
80007694:	24420001 	addiu	v0,v0,1
80007698:	afc20000 	sw	v0,0(s8)
8000769c:	8fc20010 	lw	v0,16(s8)
800076a0:	2c420002 	sltiu	v0,v0,2
800076a4:	1040fff7 	beqz	v0,80007684 <fs_wa+0x1c>
800076a8:	00000000 	nop
800076ac:	8fc20000 	lw	v0,0(s8)
800076b0:	03c0e825 	move	sp,s8
800076b4:	8fbe000c 	lw	s8,12(sp)
800076b8:	27bd0010 	addiu	sp,sp,16
800076bc:	03e00008 	jr	ra
800076c0:	00000000 	nop

800076c4 <get_entry_filesize>:
800076c4:	27bdffe8 	addiu	sp,sp,-24
800076c8:	afbf0014 	sw	ra,20(sp)
800076cc:	afbe0010 	sw	s8,16(sp)
800076d0:	03a0f025 	move	s8,sp
800076d4:	afc40018 	sw	a0,24(s8)
800076d8:	8fc20018 	lw	v0,24(s8)
800076dc:	2442001c 	addiu	v0,v0,28
800076e0:	00402025 	move	a0,v0
800076e4:	0c001d49 	jal	80007524 <get_uint32_t>
800076e8:	00000000 	nop
800076ec:	03c0e825 	move	sp,s8
800076f0:	8fbf0014 	lw	ra,20(sp)
800076f4:	8fbe0010 	lw	s8,16(sp)
800076f8:	27bd0018 	addiu	sp,sp,24
800076fc:	03e00008 	jr	ra
80007700:	00000000 	nop

80007704 <get_entry_attr>:
80007704:	27bdfff8 	addiu	sp,sp,-8
80007708:	afbe0004 	sw	s8,4(sp)
8000770c:	03a0f025 	move	s8,sp
80007710:	afc40008 	sw	a0,8(s8)
80007714:	8fc20008 	lw	v0,8(s8)
80007718:	2442000b 	addiu	v0,v0,11
8000771c:	90420000 	lbu	v0,0(v0)
80007720:	03c0e825 	move	sp,s8
80007724:	8fbe0004 	lw	s8,4(sp)
80007728:	27bd0008 	addiu	sp,sp,8
8000772c:	03e00008 	jr	ra
80007730:	00000000 	nop

80007734 <get_start_cluster>:
80007734:	27bdfff8 	addiu	sp,sp,-8
80007738:	afbe0004 	sw	s8,4(sp)
8000773c:	03a0f025 	move	s8,sp
80007740:	afc40008 	sw	a0,8(s8)
80007744:	8fc20008 	lw	v0,8(s8)
80007748:	94420120 	lhu	v0,288(v0)
8000774c:	00021400 	sll	v0,v0,0x10
80007750:	8fc30008 	lw	v1,8(s8)
80007754:	94630126 	lhu	v1,294(v1)
80007758:	00431021 	addu	v0,v0,v1
8000775c:	03c0e825 	move	sp,s8
80007760:	8fbe0004 	lw	s8,4(sp)
80007764:	27bd0008 	addiu	sp,sp,8
80007768:	03e00008 	jr	ra
8000776c:	00000000 	nop

80007770 <get_fat_entry_value>:
80007770:	27bdffd8 	addiu	sp,sp,-40
80007774:	afbf0024 	sw	ra,36(sp)
80007778:	afbe0020 	sw	s8,32(sp)
8000777c:	03a0f025 	move	s8,sp
80007780:	afc40028 	sw	a0,40(s8)
80007784:	afc5002c 	sw	a1,44(s8)
80007788:	27c30014 	addiu	v1,s8,20
8000778c:	27c20018 	addiu	v0,s8,24
80007790:	8fc40028 	lw	a0,40(s8)
80007794:	00602825 	move	a1,v1
80007798:	00403025 	move	a2,v0
8000779c:	0c001e5d 	jal	80007974 <cluster_to_fat_entry>
800077a0:	00000000 	nop
800077a4:	8fc20014 	lw	v0,20(s8)
800077a8:	00402025 	move	a0,v0
800077ac:	0c000de6 	jal	80003798 <read_fat_sector>
800077b0:	00000000 	nop
800077b4:	afc20010 	sw	v0,16(s8)
800077b8:	8fc30010 	lw	v1,16(s8)
800077bc:	2402ffff 	li	v0,-1
800077c0:	14620005 	bne	v1,v0,800077d8 <get_fat_entry_value+0x68>
800077c4:	00000000 	nop
800077c8:	00000000 	nop
800077cc:	24020001 	li	v0,1
800077d0:	10000014 	b	80007824 <get_fat_entry_value+0xb4>
800077d4:	00000000 	nop
800077d8:	8fc20010 	lw	v0,16(s8)
800077dc:	000210c0 	sll	v0,v0,0x3
800077e0:	00021980 	sll	v1,v0,0x6
800077e4:	00431021 	addu	v0,v0,v1
800077e8:	3c038002 	lui	v1,0x8002
800077ec:	24630944 	addiu	v1,v1,2372
800077f0:	00431821 	addu	v1,v0,v1
800077f4:	8fc20018 	lw	v0,24(s8)
800077f8:	00621021 	addu	v0,v1,v0
800077fc:	00402025 	move	a0,v0
80007800:	0c001d49 	jal	80007524 <get_uint32_t>
80007804:	00000000 	nop
80007808:	00401825 	move	v1,v0
8000780c:	3c020fff 	lui	v0,0xfff
80007810:	3442ffff 	ori	v0,v0,0xffff
80007814:	00621824 	and	v1,v1,v0
80007818:	8fc2002c 	lw	v0,44(s8)
8000781c:	ac430000 	sw	v1,0(v0)
80007820:	00001025 	move	v0,zero
80007824:	03c0e825 	move	sp,s8
80007828:	8fbf0024 	lw	ra,36(sp)
8000782c:	8fbe0020 	lw	s8,32(sp)
80007830:	27bd0028 	addiu	sp,sp,40
80007834:	03e00008 	jr	ra
80007838:	00000000 	nop

8000783c <fs_modify_fat>:
8000783c:	27bdffd8 	addiu	sp,sp,-40
80007840:	afbf0024 	sw	ra,36(sp)
80007844:	afbe0020 	sw	s8,32(sp)
80007848:	03a0f025 	move	s8,sp
8000784c:	afc40028 	sw	a0,40(s8)
80007850:	afc5002c 	sw	a1,44(s8)
80007854:	27c30018 	addiu	v1,s8,24
80007858:	27c2001c 	addiu	v0,s8,28
8000785c:	8fc40028 	lw	a0,40(s8)
80007860:	00602825 	move	a1,v1
80007864:	00403025 	move	a2,v0
80007868:	0c001e5d 	jal	80007974 <cluster_to_fat_entry>
8000786c:	00000000 	nop
80007870:	8fc20018 	lw	v0,24(s8)
80007874:	00402025 	move	a0,v0
80007878:	0c000de6 	jal	80003798 <read_fat_sector>
8000787c:	00000000 	nop
80007880:	afc20010 	sw	v0,16(s8)
80007884:	8fc30010 	lw	v1,16(s8)
80007888:	2402ffff 	li	v0,-1
8000788c:	14620005 	bne	v1,v0,800078a4 <fs_modify_fat+0x68>
80007890:	00000000 	nop
80007894:	00000000 	nop
80007898:	24020001 	li	v0,1
8000789c:	1000002f 	b	8000795c <fs_modify_fat+0x120>
800078a0:	00000000 	nop
800078a4:	3c038002 	lui	v1,0x8002
800078a8:	8fc20010 	lw	v0,16(s8)
800078ac:	000210c0 	sll	v0,v0,0x3
800078b0:	00022180 	sll	a0,v0,0x6
800078b4:	00441021 	addu	v0,v0,a0
800078b8:	24630944 	addiu	v1,v1,2372
800078bc:	00431021 	addu	v0,v0,v1
800078c0:	24030003 	li	v1,3
800078c4:	ac430204 	sw	v1,516(v0)
800078c8:	8fc3002c 	lw	v1,44(s8)
800078cc:	3c020fff 	lui	v0,0xfff
800078d0:	3442ffff 	ori	v0,v0,0xffff
800078d4:	00621024 	and	v0,v1,v0
800078d8:	afc2002c 	sw	v0,44(s8)
800078dc:	8fc20010 	lw	v0,16(s8)
800078e0:	000210c0 	sll	v0,v0,0x3
800078e4:	00021980 	sll	v1,v0,0x6
800078e8:	00431021 	addu	v0,v0,v1
800078ec:	3c038002 	lui	v1,0x8002
800078f0:	24630944 	addiu	v1,v1,2372
800078f4:	00431821 	addu	v1,v0,v1
800078f8:	8fc2001c 	lw	v0,28(s8)
800078fc:	00621021 	addu	v0,v1,v0
80007900:	00402025 	move	a0,v0
80007904:	0c001d49 	jal	80007524 <get_uint32_t>
80007908:	00000000 	nop
8000790c:	00401825 	move	v1,v0
80007910:	3c02f000 	lui	v0,0xf000
80007914:	00621824 	and	v1,v1,v0
80007918:	8fc2002c 	lw	v0,44(s8)
8000791c:	00621025 	or	v0,v1,v0
80007920:	afc20014 	sw	v0,20(s8)
80007924:	8fc20010 	lw	v0,16(s8)
80007928:	000210c0 	sll	v0,v0,0x3
8000792c:	00021980 	sll	v1,v0,0x6
80007930:	00431021 	addu	v0,v0,v1
80007934:	3c038002 	lui	v1,0x8002
80007938:	24630944 	addiu	v1,v1,2372
8000793c:	00431821 	addu	v1,v0,v1
80007940:	8fc2001c 	lw	v0,28(s8)
80007944:	00621021 	addu	v0,v1,v0
80007948:	00402025 	move	a0,v0
8000794c:	8fc50014 	lw	a1,20(s8)
80007950:	0c001d7a 	jal	800075e8 <set_uint32_t>
80007954:	00000000 	nop
80007958:	00001025 	move	v0,zero
8000795c:	03c0e825 	move	sp,s8
80007960:	8fbf0024 	lw	ra,36(sp)
80007964:	8fbe0020 	lw	s8,32(sp)
80007968:	27bd0028 	addiu	sp,sp,40
8000796c:	03e00008 	jr	ra
80007970:	00000000 	nop

80007974 <cluster_to_fat_entry>:
80007974:	27bdfff0 	addiu	sp,sp,-16
80007978:	afbe000c 	sw	s8,12(sp)
8000797c:	03a0f025 	move	s8,sp
80007980:	afc40010 	sw	a0,16(s8)
80007984:	afc50014 	sw	a1,20(s8)
80007988:	afc60018 	sw	a2,24(s8)
8000798c:	8fc20010 	lw	v0,16(s8)
80007990:	00021080 	sll	v0,v0,0x2
80007994:	afc20000 	sw	v0,0(s8)
80007998:	3c028002 	lui	v0,0x8002
8000799c:	2442f51c 	addiu	v0,v0,-2788
800079a0:	94420026 	lhu	v0,38(v0)
800079a4:	00401825 	move	v1,v0
800079a8:	8fc20000 	lw	v0,0(s8)
800079ac:	00021242 	srl	v0,v0,0x9
800079b0:	00621821 	addu	v1,v1,v0
800079b4:	3c028002 	lui	v0,0x8002
800079b8:	8c42f51c 	lw	v0,-2788(v0)
800079bc:	00621821 	addu	v1,v1,v0
800079c0:	8fc20014 	lw	v0,20(s8)
800079c4:	ac430000 	sw	v1,0(v0)
800079c8:	8fc20000 	lw	v0,0(s8)
800079cc:	304301ff 	andi	v1,v0,0x1ff
800079d0:	8fc20018 	lw	v0,24(s8)
800079d4:	ac430000 	sw	v1,0(v0)
800079d8:	03c0e825 	move	sp,s8
800079dc:	8fbe000c 	lw	s8,12(sp)
800079e0:	27bd0010 	addiu	sp,sp,16
800079e4:	03e00008 	jr	ra
800079e8:	00000000 	nop

800079ec <fs_dataclus2sec>:
800079ec:	27bdffe0 	addiu	sp,sp,-32
800079f0:	afbf001c 	sw	ra,28(sp)
800079f4:	afbe0018 	sw	s8,24(sp)
800079f8:	afb00014 	sw	s0,20(sp)
800079fc:	03a0f025 	move	s8,sp
80007a00:	afc40020 	sw	a0,32(s8)
80007a04:	8fc20020 	lw	v0,32(s8)
80007a08:	2450fffe 	addiu	s0,v0,-2
80007a0c:	3c028002 	lui	v0,0x8002
80007a10:	2442f51c 	addiu	v0,v0,-2788
80007a14:	90420025 	lbu	v0,37(v0)
80007a18:	00402025 	move	a0,v0
80007a1c:	0c001d9a 	jal	80007668 <fs_wa>
80007a20:	00000000 	nop
80007a24:	00501804 	sllv	v1,s0,v0
80007a28:	3c028002 	lui	v0,0x8002
80007a2c:	2442f51c 	addiu	v0,v0,-2788
80007a30:	8c420014 	lw	v0,20(v0)
80007a34:	00621021 	addu	v0,v1,v0
80007a38:	03c0e825 	move	sp,s8
80007a3c:	8fbf001c 	lw	ra,28(sp)
80007a40:	8fbe0018 	lw	s8,24(sp)
80007a44:	8fb00014 	lw	s0,20(sp)
80007a48:	27bd0020 	addiu	sp,sp,32
80007a4c:	03e00008 	jr	ra
80007a50:	00000000 	nop

80007a54 <fs_sec2dataclus>:
80007a54:	27bdffe0 	addiu	sp,sp,-32
80007a58:	afbf001c 	sw	ra,28(sp)
80007a5c:	afbe0018 	sw	s8,24(sp)
80007a60:	afb00014 	sw	s0,20(sp)
80007a64:	03a0f025 	move	s8,sp
80007a68:	afc40020 	sw	a0,32(s8)
80007a6c:	3c028002 	lui	v0,0x8002
80007a70:	2442f51c 	addiu	v0,v0,-2788
80007a74:	8c420014 	lw	v0,20(v0)
80007a78:	8fc30020 	lw	v1,32(s8)
80007a7c:	00628023 	subu	s0,v1,v0
80007a80:	3c028002 	lui	v0,0x8002
80007a84:	2442f51c 	addiu	v0,v0,-2788
80007a88:	90420025 	lbu	v0,37(v0)
80007a8c:	00402025 	move	a0,v0
80007a90:	0c001d9a 	jal	80007668 <fs_wa>
80007a94:	00000000 	nop
80007a98:	00501006 	srlv	v0,s0,v0
80007a9c:	24420002 	addiu	v0,v0,2
80007aa0:	03c0e825 	move	sp,s8
80007aa4:	8fbf001c 	lw	ra,28(sp)
80007aa8:	8fbe0018 	lw	s8,24(sp)
80007aac:	8fb00014 	lw	s0,20(sp)
80007ab0:	27bd0020 	addiu	sp,sp,32
80007ab4:	03e00008 	jr	ra
80007ab8:	00000000 	nop

80007abc <fs_victim_4k>:
80007abc:	27bdfff0 	addiu	sp,sp,-16
80007ac0:	afbe000c 	sw	s8,12(sp)
80007ac4:	03a0f025 	move	s8,sp
80007ac8:	afc40010 	sw	a0,16(s8)
80007acc:	afc50014 	sw	a1,20(s8)
80007ad0:	afc60018 	sw	a2,24(s8)
80007ad4:	8fc20014 	lw	v0,20(s8)
80007ad8:	8c420000 	lw	v0,0(v0)
80007adc:	afc20004 	sw	v0,4(s8)
80007ae0:	afc00000 	sw	zero,0(s8)
80007ae4:	1000003d 	b	80007bdc <fs_victim_4k+0x120>
80007ae8:	00000000 	nop
80007aec:	8fc20014 	lw	v0,20(s8)
80007af0:	8c420000 	lw	v0,0(v0)
80007af4:	000210c0 	sll	v0,v0,0x3
80007af8:	00021a40 	sll	v1,v0,0x9
80007afc:	00431021 	addu	v0,v0,v1
80007b00:	8fc30010 	lw	v1,16(s8)
80007b04:	00621021 	addu	v0,v1,v0
80007b08:	8c421004 	lw	v0,4100(v0)
80007b0c:	30420001 	andi	v0,v0,0x1
80007b10:	14400011 	bnez	v0,80007b58 <fs_victim_4k+0x9c>
80007b14:	00000000 	nop
80007b18:	8fc20014 	lw	v0,20(s8)
80007b1c:	8c420000 	lw	v0,0(v0)
80007b20:	000210c0 	sll	v0,v0,0x3
80007b24:	00021a40 	sll	v1,v0,0x9
80007b28:	00431021 	addu	v0,v0,v1
80007b2c:	8fc30010 	lw	v1,16(s8)
80007b30:	00621021 	addu	v0,v1,v0
80007b34:	8c421004 	lw	v0,4100(v0)
80007b38:	30420002 	andi	v0,v0,0x2
80007b3c:	14400017 	bnez	v0,80007b9c <fs_victim_4k+0xe0>
80007b40:	00000000 	nop
80007b44:	8fc20014 	lw	v0,20(s8)
80007b48:	8c420000 	lw	v0,0(v0)
80007b4c:	afc20004 	sw	v0,4(s8)
80007b50:	10000052 	b	80007c9c <fs_victim_4k+0x1e0>
80007b54:	00000000 	nop
80007b58:	8fc20014 	lw	v0,20(s8)
80007b5c:	8c420000 	lw	v0,0(v0)
80007b60:	000210c0 	sll	v0,v0,0x3
80007b64:	00021a40 	sll	v1,v0,0x9
80007b68:	00431021 	addu	v0,v0,v1
80007b6c:	8fc30010 	lw	v1,16(s8)
80007b70:	00621821 	addu	v1,v1,v0
80007b74:	8fc20014 	lw	v0,20(s8)
80007b78:	8c420000 	lw	v0,0(v0)
80007b7c:	000210c0 	sll	v0,v0,0x3
80007b80:	00022240 	sll	a0,v0,0x9
80007b84:	00441021 	addu	v0,v0,a0
80007b88:	8fc40010 	lw	a0,16(s8)
80007b8c:	00821021 	addu	v0,a0,v0
80007b90:	8c421004 	lw	v0,4100(v0)
80007b94:	304200fe 	andi	v0,v0,0xfe
80007b98:	ac621004 	sw	v0,4100(v1)
80007b9c:	8fc20014 	lw	v0,20(s8)
80007ba0:	8c420000 	lw	v0,0(v0)
80007ba4:	24430001 	addiu	v1,v0,1
80007ba8:	8fc20014 	lw	v0,20(s8)
80007bac:	ac430000 	sw	v1,0(v0)
80007bb0:	8fc20014 	lw	v0,20(s8)
80007bb4:	8c430000 	lw	v1,0(v0)
80007bb8:	8fc20018 	lw	v0,24(s8)
80007bbc:	0062102b 	sltu	v0,v1,v0
80007bc0:	14400003 	bnez	v0,80007bd0 <fs_victim_4k+0x114>
80007bc4:	00000000 	nop
80007bc8:	8fc20014 	lw	v0,20(s8)
80007bcc:	ac400000 	sw	zero,0(v0)
80007bd0:	8fc20000 	lw	v0,0(s8)
80007bd4:	24420001 	addiu	v0,v0,1
80007bd8:	afc20000 	sw	v0,0(s8)
80007bdc:	8fc30000 	lw	v1,0(s8)
80007be0:	8fc20018 	lw	v0,24(s8)
80007be4:	0062102b 	sltu	v0,v1,v0
80007be8:	1440ffc0 	bnez	v0,80007aec <fs_victim_4k+0x30>
80007bec:	00000000 	nop
80007bf0:	afc00000 	sw	zero,0(s8)
80007bf4:	10000021 	b	80007c7c <fs_victim_4k+0x1c0>
80007bf8:	00000000 	nop
80007bfc:	8fc20014 	lw	v0,20(s8)
80007c00:	8c420000 	lw	v0,0(v0)
80007c04:	000210c0 	sll	v0,v0,0x3
80007c08:	00021a40 	sll	v1,v0,0x9
80007c0c:	00431021 	addu	v0,v0,v1
80007c10:	8fc30010 	lw	v1,16(s8)
80007c14:	00621021 	addu	v0,v1,v0
80007c18:	8c421004 	lw	v0,4100(v0)
80007c1c:	30420002 	andi	v0,v0,0x2
80007c20:	14400006 	bnez	v0,80007c3c <fs_victim_4k+0x180>
80007c24:	00000000 	nop
80007c28:	8fc20014 	lw	v0,20(s8)
80007c2c:	8c420000 	lw	v0,0(v0)
80007c30:	afc20004 	sw	v0,4(s8)
80007c34:	10000019 	b	80007c9c <fs_victim_4k+0x1e0>
80007c38:	00000000 	nop
80007c3c:	8fc20014 	lw	v0,20(s8)
80007c40:	8c420000 	lw	v0,0(v0)
80007c44:	24430001 	addiu	v1,v0,1
80007c48:	8fc20014 	lw	v0,20(s8)
80007c4c:	ac430000 	sw	v1,0(v0)
80007c50:	8fc20014 	lw	v0,20(s8)
80007c54:	8c430000 	lw	v1,0(v0)
80007c58:	8fc20018 	lw	v0,24(s8)
80007c5c:	0062102b 	sltu	v0,v1,v0
80007c60:	14400003 	bnez	v0,80007c70 <fs_victim_4k+0x1b4>
80007c64:	00000000 	nop
80007c68:	8fc20014 	lw	v0,20(s8)
80007c6c:	ac400000 	sw	zero,0(v0)
80007c70:	8fc20000 	lw	v0,0(s8)
80007c74:	24420001 	addiu	v0,v0,1
80007c78:	afc20000 	sw	v0,0(s8)
80007c7c:	8fc30000 	lw	v1,0(s8)
80007c80:	8fc20018 	lw	v0,24(s8)
80007c84:	0062102b 	sltu	v0,v1,v0
80007c88:	1440ffdc 	bnez	v0,80007bfc <fs_victim_4k+0x140>
80007c8c:	00000000 	nop
80007c90:	8fc20014 	lw	v0,20(s8)
80007c94:	8c420000 	lw	v0,0(v0)
80007c98:	afc20004 	sw	v0,4(s8)
80007c9c:	8fc20014 	lw	v0,20(s8)
80007ca0:	8c420000 	lw	v0,0(v0)
80007ca4:	24430001 	addiu	v1,v0,1
80007ca8:	8fc20014 	lw	v0,20(s8)
80007cac:	ac430000 	sw	v1,0(v0)
80007cb0:	8fc20014 	lw	v0,20(s8)
80007cb4:	8c430000 	lw	v1,0(v0)
80007cb8:	8fc20018 	lw	v0,24(s8)
80007cbc:	0062102b 	sltu	v0,v1,v0
80007cc0:	14400003 	bnez	v0,80007cd0 <fs_victim_4k+0x214>
80007cc4:	00000000 	nop
80007cc8:	8fc20014 	lw	v0,20(s8)
80007ccc:	ac400000 	sw	zero,0(v0)
80007cd0:	8fc20004 	lw	v0,4(s8)
80007cd4:	03c0e825 	move	sp,s8
80007cd8:	8fbe000c 	lw	s8,12(sp)
80007cdc:	27bd0010 	addiu	sp,sp,16
80007ce0:	03e00008 	jr	ra
80007ce4:	00000000 	nop

80007ce8 <fs_write_4k>:
80007ce8:	27bdffe8 	addiu	sp,sp,-24
80007cec:	afbf0014 	sw	ra,20(sp)
80007cf0:	afbe0010 	sw	s8,16(sp)
80007cf4:	03a0f025 	move	s8,sp
80007cf8:	afc40018 	sw	a0,24(s8)
80007cfc:	8fc20018 	lw	v0,24(s8)
80007d00:	8c431000 	lw	v1,4096(v0)
80007d04:	2402ffff 	li	v0,-1
80007d08:	1062001d 	beq	v1,v0,80007d80 <fs_write_4k+0x98>
80007d0c:	00000000 	nop
80007d10:	8fc20018 	lw	v0,24(s8)
80007d14:	8c421004 	lw	v0,4100(v0)
80007d18:	30420002 	andi	v0,v0,0x2
80007d1c:	10400018 	beqz	v0,80007d80 <fs_write_4k+0x98>
80007d20:	00000000 	nop
80007d24:	8fc40018 	lw	a0,24(s8)
80007d28:	8fc20018 	lw	v0,24(s8)
80007d2c:	8c431000 	lw	v1,4096(v0)
80007d30:	3c028002 	lui	v0,0x8002
80007d34:	2442f51c 	addiu	v0,v0,-2788
80007d38:	90420025 	lbu	v0,37(v0)
80007d3c:	00602825 	move	a1,v1
80007d40:	00403025 	move	a2,v0
80007d44:	0c001d23 	jal	8000748c <write_block>
80007d48:	00000000 	nop
80007d4c:	00401825 	move	v1,v0
80007d50:	24020001 	li	v0,1
80007d54:	14620005 	bne	v1,v0,80007d6c <fs_write_4k+0x84>
80007d58:	00000000 	nop
80007d5c:	00000000 	nop
80007d60:	24020001 	li	v0,1
80007d64:	10000007 	b	80007d84 <fs_write_4k+0x9c>
80007d68:	00000000 	nop
80007d6c:	8fc20018 	lw	v0,24(s8)
80007d70:	8c421004 	lw	v0,4100(v0)
80007d74:	30430001 	andi	v1,v0,0x1
80007d78:	8fc20018 	lw	v0,24(s8)
80007d7c:	ac431004 	sw	v1,4100(v0)
80007d80:	00001025 	move	v0,zero
80007d84:	03c0e825 	move	sp,s8
80007d88:	8fbf0014 	lw	ra,20(sp)
80007d8c:	8fbe0010 	lw	s8,16(sp)
80007d90:	27bd0018 	addiu	sp,sp,24
80007d94:	03e00008 	jr	ra
80007d98:	00000000 	nop

80007d9c <fs_read_4k>:
80007d9c:	27bdffe0 	addiu	sp,sp,-32
80007da0:	afbf001c 	sw	ra,28(sp)
80007da4:	afbe0018 	sw	s8,24(sp)
80007da8:	03a0f025 	move	s8,sp
80007dac:	afc40020 	sw	a0,32(s8)
80007db0:	afc50024 	sw	a1,36(s8)
80007db4:	afc60028 	sw	a2,40(s8)
80007db8:	afc7002c 	sw	a3,44(s8)
80007dbc:	3c028002 	lui	v0,0x8002
80007dc0:	8c43f51c 	lw	v1,-2788(v0)
80007dc4:	8fc20024 	lw	v0,36(s8)
80007dc8:	00621021 	addu	v0,v1,v0
80007dcc:	afc20014 	sw	v0,20(s8)
80007dd0:	afc00010 	sw	zero,16(s8)
80007dd4:	10000004 	b	80007de8 <fs_read_4k+0x4c>
80007dd8:	00000000 	nop
80007ddc:	8fc20010 	lw	v0,16(s8)
80007de0:	24420001 	addiu	v0,v0,1
80007de4:	afc20010 	sw	v0,16(s8)
80007de8:	8fc30010 	lw	v1,16(s8)
80007dec:	8fc2002c 	lw	v0,44(s8)
80007df0:	0062102b 	sltu	v0,v1,v0
80007df4:	1040000b 	beqz	v0,80007e24 <fs_read_4k+0x88>
80007df8:	00000000 	nop
80007dfc:	8fc20010 	lw	v0,16(s8)
80007e00:	000210c0 	sll	v0,v0,0x3
80007e04:	00021a40 	sll	v1,v0,0x9
80007e08:	00431021 	addu	v0,v0,v1
80007e0c:	8fc30020 	lw	v1,32(s8)
80007e10:	00621021 	addu	v0,v1,v0
80007e14:	8c431000 	lw	v1,4096(v0)
80007e18:	8fc20014 	lw	v0,20(s8)
80007e1c:	1462ffef 	bne	v1,v0,80007ddc <fs_read_4k+0x40>
80007e20:	00000000 	nop
80007e24:	8fc30010 	lw	v1,16(s8)
80007e28:	8fc2002c 	lw	v0,44(s8)
80007e2c:	1462003d 	bne	v1,v0,80007f24 <fs_read_4k+0x188>
80007e30:	00000000 	nop
80007e34:	8fc40020 	lw	a0,32(s8)
80007e38:	8fc50028 	lw	a1,40(s8)
80007e3c:	8fc6002c 	lw	a2,44(s8)
80007e40:	0c001eaf 	jal	80007abc <fs_victim_4k>
80007e44:	00000000 	nop
80007e48:	afc20010 	sw	v0,16(s8)
80007e4c:	8fc20010 	lw	v0,16(s8)
80007e50:	000210c0 	sll	v0,v0,0x3
80007e54:	00021a40 	sll	v1,v0,0x9
80007e58:	00431021 	addu	v0,v0,v1
80007e5c:	8fc30020 	lw	v1,32(s8)
80007e60:	00621021 	addu	v0,v1,v0
80007e64:	00402025 	move	a0,v0
80007e68:	0c001f3a 	jal	80007ce8 <fs_write_4k>
80007e6c:	00000000 	nop
80007e70:	00401825 	move	v1,v0
80007e74:	24020001 	li	v0,1
80007e78:	14620003 	bne	v1,v0,80007e88 <fs_read_4k+0xec>
80007e7c:	00000000 	nop
80007e80:	1000003a 	b	80007f6c <fs_read_4k+0x1d0>
80007e84:	00000000 	nop
80007e88:	8fc20010 	lw	v0,16(s8)
80007e8c:	000210c0 	sll	v0,v0,0x3
80007e90:	00021a40 	sll	v1,v0,0x9
80007e94:	00431021 	addu	v0,v0,v1
80007e98:	8fc30020 	lw	v1,32(s8)
80007e9c:	00621021 	addu	v0,v1,v0
80007ea0:	00401825 	move	v1,v0
80007ea4:	3c028002 	lui	v0,0x8002
80007ea8:	2442f51c 	addiu	v0,v0,-2788
80007eac:	90420025 	lbu	v0,37(v0)
80007eb0:	00602025 	move	a0,v1
80007eb4:	8fc50014 	lw	a1,20(s8)
80007eb8:	00403025 	move	a2,v0
80007ebc:	0c001d11 	jal	80007444 <read_block>
80007ec0:	00000000 	nop
80007ec4:	00401825 	move	v1,v0
80007ec8:	24020001 	li	v0,1
80007ecc:	14620003 	bne	v1,v0,80007edc <fs_read_4k+0x140>
80007ed0:	00000000 	nop
80007ed4:	10000025 	b	80007f6c <fs_read_4k+0x1d0>
80007ed8:	00000000 	nop
80007edc:	8fc20010 	lw	v0,16(s8)
80007ee0:	000210c0 	sll	v0,v0,0x3
80007ee4:	00021a40 	sll	v1,v0,0x9
80007ee8:	00431021 	addu	v0,v0,v1
80007eec:	8fc30020 	lw	v1,32(s8)
80007ef0:	00621021 	addu	v0,v1,v0
80007ef4:	8fc30014 	lw	v1,20(s8)
80007ef8:	ac431000 	sw	v1,4096(v0)
80007efc:	8fc20010 	lw	v0,16(s8)
80007f00:	000210c0 	sll	v0,v0,0x3
80007f04:	00021a40 	sll	v1,v0,0x9
80007f08:	00431021 	addu	v0,v0,v1
80007f0c:	8fc30020 	lw	v1,32(s8)
80007f10:	00621021 	addu	v0,v1,v0
80007f14:	24030001 	li	v1,1
80007f18:	ac431004 	sw	v1,4100(v0)
80007f1c:	10000010 	b	80007f60 <fs_read_4k+0x1c4>
80007f20:	00000000 	nop
80007f24:	8fc20010 	lw	v0,16(s8)
80007f28:	000210c0 	sll	v0,v0,0x3
80007f2c:	00021a40 	sll	v1,v0,0x9
80007f30:	00431021 	addu	v0,v0,v1
80007f34:	8fc30020 	lw	v1,32(s8)
80007f38:	00621821 	addu	v1,v1,v0
80007f3c:	8fc20010 	lw	v0,16(s8)
80007f40:	000210c0 	sll	v0,v0,0x3
80007f44:	00022240 	sll	a0,v0,0x9
80007f48:	00441021 	addu	v0,v0,a0
80007f4c:	8fc40020 	lw	a0,32(s8)
80007f50:	00821021 	addu	v0,a0,v0
80007f54:	8c421004 	lw	v0,4100(v0)
80007f58:	34420001 	ori	v0,v0,0x1
80007f5c:	ac621004 	sw	v0,4100(v1)
80007f60:	8fc20010 	lw	v0,16(s8)
80007f64:	10000002 	b	80007f70 <fs_read_4k+0x1d4>
80007f68:	00000000 	nop
80007f6c:	2402ffff 	li	v0,-1
80007f70:	03c0e825 	move	sp,s8
80007f74:	8fbf001c 	lw	ra,28(sp)
80007f78:	8fbe0018 	lw	s8,24(sp)
80007f7c:	27bd0020 	addiu	sp,sp,32
80007f80:	03e00008 	jr	ra
80007f84:	00000000 	nop

80007f88 <fs_clr_4k>:
80007f88:	27bdffe0 	addiu	sp,sp,-32
80007f8c:	afbf001c 	sw	ra,28(sp)
80007f90:	afbe0018 	sw	s8,24(sp)
80007f94:	03a0f025 	move	s8,sp
80007f98:	afc40020 	sw	a0,32(s8)
80007f9c:	afc50024 	sw	a1,36(s8)
80007fa0:	afc60028 	sw	a2,40(s8)
80007fa4:	afc7002c 	sw	a3,44(s8)
80007fa8:	8fc40020 	lw	a0,32(s8)
80007fac:	8fc50024 	lw	a1,36(s8)
80007fb0:	8fc60028 	lw	a2,40(s8)
80007fb4:	0c001eaf 	jal	80007abc <fs_victim_4k>
80007fb8:	00000000 	nop
80007fbc:	afc20014 	sw	v0,20(s8)
80007fc0:	8fc20014 	lw	v0,20(s8)
80007fc4:	000210c0 	sll	v0,v0,0x3
80007fc8:	00021a40 	sll	v1,v0,0x9
80007fcc:	00431021 	addu	v0,v0,v1
80007fd0:	8fc30020 	lw	v1,32(s8)
80007fd4:	00621021 	addu	v0,v1,v0
80007fd8:	00402025 	move	a0,v0
80007fdc:	0c001f3a 	jal	80007ce8 <fs_write_4k>
80007fe0:	00000000 	nop
80007fe4:	00401825 	move	v1,v0
80007fe8:	24020001 	li	v0,1
80007fec:	14620005 	bne	v1,v0,80008004 <fs_clr_4k+0x7c>
80007ff0:	00000000 	nop
80007ff4:	00000000 	nop
80007ff8:	24020001 	li	v0,1
80007ffc:	10000029 	b	800080a4 <fs_clr_4k+0x11c>
80008000:	00000000 	nop
80008004:	afc00010 	sw	zero,16(s8)
80008008:	1000000d 	b	80008040 <fs_clr_4k+0xb8>
8000800c:	00000000 	nop
80008010:	8fc20014 	lw	v0,20(s8)
80008014:	000210c0 	sll	v0,v0,0x3
80008018:	00021a40 	sll	v1,v0,0x9
8000801c:	00431021 	addu	v0,v0,v1
80008020:	8fc30020 	lw	v1,32(s8)
80008024:	00621821 	addu	v1,v1,v0
80008028:	8fc20010 	lw	v0,16(s8)
8000802c:	00621021 	addu	v0,v1,v0
80008030:	a0400000 	sb	zero,0(v0)
80008034:	8fc20010 	lw	v0,16(s8)
80008038:	24420001 	addiu	v0,v0,1
8000803c:	afc20010 	sw	v0,16(s8)
80008040:	3c028002 	lui	v0,0x8002
80008044:	2442f51c 	addiu	v0,v0,-2788
80008048:	90420025 	lbu	v0,37(v0)
8000804c:	00021240 	sll	v0,v0,0x9
80008050:	00401825 	move	v1,v0
80008054:	8fc20010 	lw	v0,16(s8)
80008058:	0043102b 	sltu	v0,v0,v1
8000805c:	1440ffec 	bnez	v0,80008010 <fs_clr_4k+0x88>
80008060:	00000000 	nop
80008064:	8fc20014 	lw	v0,20(s8)
80008068:	000210c0 	sll	v0,v0,0x3
8000806c:	00021a40 	sll	v1,v0,0x9
80008070:	00431021 	addu	v0,v0,v1
80008074:	8fc30020 	lw	v1,32(s8)
80008078:	00621021 	addu	v0,v1,v0
8000807c:	8fc3002c 	lw	v1,44(s8)
80008080:	ac431000 	sw	v1,4096(v0)
80008084:	8fc20014 	lw	v0,20(s8)
80008088:	000210c0 	sll	v0,v0,0x3
8000808c:	00021a40 	sll	v1,v0,0x9
80008090:	00431021 	addu	v0,v0,v1
80008094:	8fc30020 	lw	v1,32(s8)
80008098:	00621021 	addu	v0,v1,v0
8000809c:	ac401004 	sw	zero,4100(v0)
800080a0:	00001025 	move	v0,zero
800080a4:	03c0e825 	move	sp,s8
800080a8:	8fbf001c 	lw	ra,28(sp)
800080ac:	8fbe0018 	lw	s8,24(sp)
800080b0:	27bd0020 	addiu	sp,sp,32
800080b4:	03e00008 	jr	ra
800080b8:	00000000 	nop

800080bc <fs_victim_512>:
800080bc:	27bdfff0 	addiu	sp,sp,-16
800080c0:	afbe000c 	sw	s8,12(sp)
800080c4:	03a0f025 	move	s8,sp
800080c8:	afc40010 	sw	a0,16(s8)
800080cc:	afc50014 	sw	a1,20(s8)
800080d0:	afc60018 	sw	a2,24(s8)
800080d4:	8fc20014 	lw	v0,20(s8)
800080d8:	8c420000 	lw	v0,0(v0)
800080dc:	afc20004 	sw	v0,4(s8)
800080e0:	afc00000 	sw	zero,0(s8)
800080e4:	1000003d 	b	800081dc <fs_victim_512+0x120>
800080e8:	00000000 	nop
800080ec:	8fc20014 	lw	v0,20(s8)
800080f0:	8c420000 	lw	v0,0(v0)
800080f4:	000210c0 	sll	v0,v0,0x3
800080f8:	00021980 	sll	v1,v0,0x6
800080fc:	00431021 	addu	v0,v0,v1
80008100:	8fc30010 	lw	v1,16(s8)
80008104:	00621021 	addu	v0,v1,v0
80008108:	8c420204 	lw	v0,516(v0)
8000810c:	30420001 	andi	v0,v0,0x1
80008110:	14400011 	bnez	v0,80008158 <fs_victim_512+0x9c>
80008114:	00000000 	nop
80008118:	8fc20014 	lw	v0,20(s8)
8000811c:	8c420000 	lw	v0,0(v0)
80008120:	000210c0 	sll	v0,v0,0x3
80008124:	00021980 	sll	v1,v0,0x6
80008128:	00431021 	addu	v0,v0,v1
8000812c:	8fc30010 	lw	v1,16(s8)
80008130:	00621021 	addu	v0,v1,v0
80008134:	8c420204 	lw	v0,516(v0)
80008138:	30420002 	andi	v0,v0,0x2
8000813c:	14400017 	bnez	v0,8000819c <fs_victim_512+0xe0>
80008140:	00000000 	nop
80008144:	8fc20014 	lw	v0,20(s8)
80008148:	8c420000 	lw	v0,0(v0)
8000814c:	afc20004 	sw	v0,4(s8)
80008150:	10000052 	b	8000829c <fs_victim_512+0x1e0>
80008154:	00000000 	nop
80008158:	8fc20014 	lw	v0,20(s8)
8000815c:	8c420000 	lw	v0,0(v0)
80008160:	000210c0 	sll	v0,v0,0x3
80008164:	00021980 	sll	v1,v0,0x6
80008168:	00431021 	addu	v0,v0,v1
8000816c:	8fc30010 	lw	v1,16(s8)
80008170:	00621821 	addu	v1,v1,v0
80008174:	8fc20014 	lw	v0,20(s8)
80008178:	8c420000 	lw	v0,0(v0)
8000817c:	000210c0 	sll	v0,v0,0x3
80008180:	00022180 	sll	a0,v0,0x6
80008184:	00441021 	addu	v0,v0,a0
80008188:	8fc40010 	lw	a0,16(s8)
8000818c:	00821021 	addu	v0,a0,v0
80008190:	8c420204 	lw	v0,516(v0)
80008194:	304200fe 	andi	v0,v0,0xfe
80008198:	ac620204 	sw	v0,516(v1)
8000819c:	8fc20014 	lw	v0,20(s8)
800081a0:	8c420000 	lw	v0,0(v0)
800081a4:	24430001 	addiu	v1,v0,1
800081a8:	8fc20014 	lw	v0,20(s8)
800081ac:	ac430000 	sw	v1,0(v0)
800081b0:	8fc20014 	lw	v0,20(s8)
800081b4:	8c430000 	lw	v1,0(v0)
800081b8:	8fc20018 	lw	v0,24(s8)
800081bc:	0062102b 	sltu	v0,v1,v0
800081c0:	14400003 	bnez	v0,800081d0 <fs_victim_512+0x114>
800081c4:	00000000 	nop
800081c8:	8fc20014 	lw	v0,20(s8)
800081cc:	ac400000 	sw	zero,0(v0)
800081d0:	8fc20000 	lw	v0,0(s8)
800081d4:	24420001 	addiu	v0,v0,1
800081d8:	afc20000 	sw	v0,0(s8)
800081dc:	8fc30000 	lw	v1,0(s8)
800081e0:	8fc20018 	lw	v0,24(s8)
800081e4:	0062102b 	sltu	v0,v1,v0
800081e8:	1440ffc0 	bnez	v0,800080ec <fs_victim_512+0x30>
800081ec:	00000000 	nop
800081f0:	afc00000 	sw	zero,0(s8)
800081f4:	10000021 	b	8000827c <fs_victim_512+0x1c0>
800081f8:	00000000 	nop
800081fc:	8fc20014 	lw	v0,20(s8)
80008200:	8c420000 	lw	v0,0(v0)
80008204:	000210c0 	sll	v0,v0,0x3
80008208:	00021980 	sll	v1,v0,0x6
8000820c:	00431021 	addu	v0,v0,v1
80008210:	8fc30010 	lw	v1,16(s8)
80008214:	00621021 	addu	v0,v1,v0
80008218:	8c420204 	lw	v0,516(v0)
8000821c:	30420002 	andi	v0,v0,0x2
80008220:	14400006 	bnez	v0,8000823c <fs_victim_512+0x180>
80008224:	00000000 	nop
80008228:	8fc20014 	lw	v0,20(s8)
8000822c:	8c420000 	lw	v0,0(v0)
80008230:	afc20004 	sw	v0,4(s8)
80008234:	10000019 	b	8000829c <fs_victim_512+0x1e0>
80008238:	00000000 	nop
8000823c:	8fc20014 	lw	v0,20(s8)
80008240:	8c420000 	lw	v0,0(v0)
80008244:	24430001 	addiu	v1,v0,1
80008248:	8fc20014 	lw	v0,20(s8)
8000824c:	ac430000 	sw	v1,0(v0)
80008250:	8fc20014 	lw	v0,20(s8)
80008254:	8c430000 	lw	v1,0(v0)
80008258:	8fc20018 	lw	v0,24(s8)
8000825c:	0062102b 	sltu	v0,v1,v0
80008260:	14400003 	bnez	v0,80008270 <fs_victim_512+0x1b4>
80008264:	00000000 	nop
80008268:	8fc20014 	lw	v0,20(s8)
8000826c:	ac400000 	sw	zero,0(v0)
80008270:	8fc20000 	lw	v0,0(s8)
80008274:	24420001 	addiu	v0,v0,1
80008278:	afc20000 	sw	v0,0(s8)
8000827c:	8fc30000 	lw	v1,0(s8)
80008280:	8fc20018 	lw	v0,24(s8)
80008284:	0062102b 	sltu	v0,v1,v0
80008288:	1440ffdc 	bnez	v0,800081fc <fs_victim_512+0x140>
8000828c:	00000000 	nop
80008290:	8fc20014 	lw	v0,20(s8)
80008294:	8c420000 	lw	v0,0(v0)
80008298:	afc20004 	sw	v0,4(s8)
8000829c:	8fc20014 	lw	v0,20(s8)
800082a0:	8c420000 	lw	v0,0(v0)
800082a4:	24430001 	addiu	v1,v0,1
800082a8:	8fc20014 	lw	v0,20(s8)
800082ac:	ac430000 	sw	v1,0(v0)
800082b0:	8fc20014 	lw	v0,20(s8)
800082b4:	8c430000 	lw	v1,0(v0)
800082b8:	8fc20018 	lw	v0,24(s8)
800082bc:	0062102b 	sltu	v0,v1,v0
800082c0:	14400003 	bnez	v0,800082d0 <fs_victim_512+0x214>
800082c4:	00000000 	nop
800082c8:	8fc20014 	lw	v0,20(s8)
800082cc:	ac400000 	sw	zero,0(v0)
800082d0:	8fc20004 	lw	v0,4(s8)
800082d4:	03c0e825 	move	sp,s8
800082d8:	8fbe000c 	lw	s8,12(sp)
800082dc:	27bd0010 	addiu	sp,sp,16
800082e0:	03e00008 	jr	ra
800082e4:	00000000 	nop

800082e8 <fs_write_512>:
800082e8:	27bdffe8 	addiu	sp,sp,-24
800082ec:	afbf0014 	sw	ra,20(sp)
800082f0:	afbe0010 	sw	s8,16(sp)
800082f4:	03a0f025 	move	s8,sp
800082f8:	afc40018 	sw	a0,24(s8)
800082fc:	8fc20018 	lw	v0,24(s8)
80008300:	8c430200 	lw	v1,512(v0)
80008304:	2402ffff 	li	v0,-1
80008308:	1062001b 	beq	v1,v0,80008378 <fs_write_512+0x90>
8000830c:	00000000 	nop
80008310:	8fc20018 	lw	v0,24(s8)
80008314:	8c420204 	lw	v0,516(v0)
80008318:	30420002 	andi	v0,v0,0x2
8000831c:	10400016 	beqz	v0,80008378 <fs_write_512+0x90>
80008320:	00000000 	nop
80008324:	8fc30018 	lw	v1,24(s8)
80008328:	8fc20018 	lw	v0,24(s8)
8000832c:	8c420200 	lw	v0,512(v0)
80008330:	00602025 	move	a0,v1
80008334:	00402825 	move	a1,v0
80008338:	24060001 	li	a2,1
8000833c:	0c001d23 	jal	8000748c <write_block>
80008340:	00000000 	nop
80008344:	00401825 	move	v1,v0
80008348:	24020001 	li	v0,1
8000834c:	14620005 	bne	v1,v0,80008364 <fs_write_512+0x7c>
80008350:	00000000 	nop
80008354:	00000000 	nop
80008358:	24020001 	li	v0,1
8000835c:	10000007 	b	8000837c <fs_write_512+0x94>
80008360:	00000000 	nop
80008364:	8fc20018 	lw	v0,24(s8)
80008368:	8c420204 	lw	v0,516(v0)
8000836c:	30430001 	andi	v1,v0,0x1
80008370:	8fc20018 	lw	v0,24(s8)
80008374:	ac430204 	sw	v1,516(v0)
80008378:	00001025 	move	v0,zero
8000837c:	03c0e825 	move	sp,s8
80008380:	8fbf0014 	lw	ra,20(sp)
80008384:	8fbe0010 	lw	s8,16(sp)
80008388:	27bd0018 	addiu	sp,sp,24
8000838c:	03e00008 	jr	ra
80008390:	00000000 	nop

80008394 <fs_read_512>:
80008394:	27bdffe0 	addiu	sp,sp,-32
80008398:	afbf001c 	sw	ra,28(sp)
8000839c:	afbe0018 	sw	s8,24(sp)
800083a0:	03a0f025 	move	s8,sp
800083a4:	afc40020 	sw	a0,32(s8)
800083a8:	afc50024 	sw	a1,36(s8)
800083ac:	afc60028 	sw	a2,40(s8)
800083b0:	afc7002c 	sw	a3,44(s8)
800083b4:	3c028002 	lui	v0,0x8002
800083b8:	8c43f51c 	lw	v1,-2788(v0)
800083bc:	8fc20024 	lw	v0,36(s8)
800083c0:	00621021 	addu	v0,v1,v0
800083c4:	afc20014 	sw	v0,20(s8)
800083c8:	afc00010 	sw	zero,16(s8)
800083cc:	10000004 	b	800083e0 <fs_read_512+0x4c>
800083d0:	00000000 	nop
800083d4:	8fc20010 	lw	v0,16(s8)
800083d8:	24420001 	addiu	v0,v0,1
800083dc:	afc20010 	sw	v0,16(s8)
800083e0:	8fc30010 	lw	v1,16(s8)
800083e4:	8fc2002c 	lw	v0,44(s8)
800083e8:	0062102b 	sltu	v0,v1,v0
800083ec:	1040000b 	beqz	v0,8000841c <fs_read_512+0x88>
800083f0:	00000000 	nop
800083f4:	8fc20010 	lw	v0,16(s8)
800083f8:	000210c0 	sll	v0,v0,0x3
800083fc:	00021980 	sll	v1,v0,0x6
80008400:	00431021 	addu	v0,v0,v1
80008404:	8fc30020 	lw	v1,32(s8)
80008408:	00621021 	addu	v0,v1,v0
8000840c:	8c430200 	lw	v1,512(v0)
80008410:	8fc20014 	lw	v0,20(s8)
80008414:	1462ffef 	bne	v1,v0,800083d4 <fs_read_512+0x40>
80008418:	00000000 	nop
8000841c:	8fc30010 	lw	v1,16(s8)
80008420:	8fc2002c 	lw	v0,44(s8)
80008424:	14620039 	bne	v1,v0,8000850c <fs_read_512+0x178>
80008428:	00000000 	nop
8000842c:	8fc40020 	lw	a0,32(s8)
80008430:	8fc50028 	lw	a1,40(s8)
80008434:	8fc6002c 	lw	a2,44(s8)
80008438:	0c00202f 	jal	800080bc <fs_victim_512>
8000843c:	00000000 	nop
80008440:	afc20010 	sw	v0,16(s8)
80008444:	8fc20010 	lw	v0,16(s8)
80008448:	000210c0 	sll	v0,v0,0x3
8000844c:	00021980 	sll	v1,v0,0x6
80008450:	00431021 	addu	v0,v0,v1
80008454:	8fc30020 	lw	v1,32(s8)
80008458:	00621021 	addu	v0,v1,v0
8000845c:	00402025 	move	a0,v0
80008460:	0c0020ba 	jal	800082e8 <fs_write_512>
80008464:	00000000 	nop
80008468:	00401825 	move	v1,v0
8000846c:	24020001 	li	v0,1
80008470:	14620003 	bne	v1,v0,80008480 <fs_read_512+0xec>
80008474:	00000000 	nop
80008478:	10000036 	b	80008554 <fs_read_512+0x1c0>
8000847c:	00000000 	nop
80008480:	8fc20010 	lw	v0,16(s8)
80008484:	000210c0 	sll	v0,v0,0x3
80008488:	00021980 	sll	v1,v0,0x6
8000848c:	00431021 	addu	v0,v0,v1
80008490:	8fc30020 	lw	v1,32(s8)
80008494:	00621021 	addu	v0,v1,v0
80008498:	00402025 	move	a0,v0
8000849c:	8fc50014 	lw	a1,20(s8)
800084a0:	24060001 	li	a2,1
800084a4:	0c001d11 	jal	80007444 <read_block>
800084a8:	00000000 	nop
800084ac:	00401825 	move	v1,v0
800084b0:	24020001 	li	v0,1
800084b4:	14620003 	bne	v1,v0,800084c4 <fs_read_512+0x130>
800084b8:	00000000 	nop
800084bc:	10000025 	b	80008554 <fs_read_512+0x1c0>
800084c0:	00000000 	nop
800084c4:	8fc20010 	lw	v0,16(s8)
800084c8:	000210c0 	sll	v0,v0,0x3
800084cc:	00021980 	sll	v1,v0,0x6
800084d0:	00431021 	addu	v0,v0,v1
800084d4:	8fc30020 	lw	v1,32(s8)
800084d8:	00621021 	addu	v0,v1,v0
800084dc:	8fc30014 	lw	v1,20(s8)
800084e0:	ac430200 	sw	v1,512(v0)
800084e4:	8fc20010 	lw	v0,16(s8)
800084e8:	000210c0 	sll	v0,v0,0x3
800084ec:	00021980 	sll	v1,v0,0x6
800084f0:	00431021 	addu	v0,v0,v1
800084f4:	8fc30020 	lw	v1,32(s8)
800084f8:	00621021 	addu	v0,v1,v0
800084fc:	24030001 	li	v1,1
80008500:	ac430204 	sw	v1,516(v0)
80008504:	10000010 	b	80008548 <fs_read_512+0x1b4>
80008508:	00000000 	nop
8000850c:	8fc20010 	lw	v0,16(s8)
80008510:	000210c0 	sll	v0,v0,0x3
80008514:	00021980 	sll	v1,v0,0x6
80008518:	00431021 	addu	v0,v0,v1
8000851c:	8fc30020 	lw	v1,32(s8)
80008520:	00621821 	addu	v1,v1,v0
80008524:	8fc20010 	lw	v0,16(s8)
80008528:	000210c0 	sll	v0,v0,0x3
8000852c:	00022180 	sll	a0,v0,0x6
80008530:	00441021 	addu	v0,v0,a0
80008534:	8fc40020 	lw	a0,32(s8)
80008538:	00821021 	addu	v0,a0,v0
8000853c:	8c420204 	lw	v0,516(v0)
80008540:	34420001 	ori	v0,v0,0x1
80008544:	ac620204 	sw	v0,516(v1)
80008548:	8fc20010 	lw	v0,16(s8)
8000854c:	10000002 	b	80008558 <fs_read_512+0x1c4>
80008550:	00000000 	nop
80008554:	2402ffff 	li	v0,-1
80008558:	03c0e825 	move	sp,s8
8000855c:	8fbf001c 	lw	ra,28(sp)
80008560:	8fbe0018 	lw	s8,24(sp)
80008564:	27bd0020 	addiu	sp,sp,32
80008568:	03e00008 	jr	ra
8000856c:	00000000 	nop

80008570 <fs_clr_512>:
80008570:	27bdffe0 	addiu	sp,sp,-32
80008574:	afbf001c 	sw	ra,28(sp)
80008578:	afbe0018 	sw	s8,24(sp)
8000857c:	03a0f025 	move	s8,sp
80008580:	afc40020 	sw	a0,32(s8)
80008584:	afc50024 	sw	a1,36(s8)
80008588:	afc60028 	sw	a2,40(s8)
8000858c:	afc7002c 	sw	a3,44(s8)
80008590:	8fc40020 	lw	a0,32(s8)
80008594:	8fc50024 	lw	a1,36(s8)
80008598:	8fc60028 	lw	a2,40(s8)
8000859c:	0c00202f 	jal	800080bc <fs_victim_512>
800085a0:	00000000 	nop
800085a4:	afc20014 	sw	v0,20(s8)
800085a8:	8fc20014 	lw	v0,20(s8)
800085ac:	000210c0 	sll	v0,v0,0x3
800085b0:	00021980 	sll	v1,v0,0x6
800085b4:	00431021 	addu	v0,v0,v1
800085b8:	8fc30020 	lw	v1,32(s8)
800085bc:	00621021 	addu	v0,v1,v0
800085c0:	00402025 	move	a0,v0
800085c4:	0c0020ba 	jal	800082e8 <fs_write_512>
800085c8:	00000000 	nop
800085cc:	00401825 	move	v1,v0
800085d0:	24020001 	li	v0,1
800085d4:	14620005 	bne	v1,v0,800085ec <fs_clr_512+0x7c>
800085d8:	00000000 	nop
800085dc:	00000000 	nop
800085e0:	24020001 	li	v0,1
800085e4:	10000024 	b	80008678 <fs_clr_512+0x108>
800085e8:	00000000 	nop
800085ec:	afc00010 	sw	zero,16(s8)
800085f0:	1000000d 	b	80008628 <fs_clr_512+0xb8>
800085f4:	00000000 	nop
800085f8:	8fc20014 	lw	v0,20(s8)
800085fc:	000210c0 	sll	v0,v0,0x3
80008600:	00021980 	sll	v1,v0,0x6
80008604:	00431021 	addu	v0,v0,v1
80008608:	8fc30020 	lw	v1,32(s8)
8000860c:	00621821 	addu	v1,v1,v0
80008610:	8fc20010 	lw	v0,16(s8)
80008614:	00621021 	addu	v0,v1,v0
80008618:	a0400000 	sb	zero,0(v0)
8000861c:	8fc20010 	lw	v0,16(s8)
80008620:	24420001 	addiu	v0,v0,1
80008624:	afc20010 	sw	v0,16(s8)
80008628:	8fc20010 	lw	v0,16(s8)
8000862c:	2c420200 	sltiu	v0,v0,512
80008630:	1440fff1 	bnez	v0,800085f8 <fs_clr_512+0x88>
80008634:	00000000 	nop
80008638:	8fc20014 	lw	v0,20(s8)
8000863c:	000210c0 	sll	v0,v0,0x3
80008640:	00021980 	sll	v1,v0,0x6
80008644:	00431021 	addu	v0,v0,v1
80008648:	8fc30020 	lw	v1,32(s8)
8000864c:	00621021 	addu	v0,v1,v0
80008650:	8fc3002c 	lw	v1,44(s8)
80008654:	ac430200 	sw	v1,512(v0)
80008658:	8fc20014 	lw	v0,20(s8)
8000865c:	000210c0 	sll	v0,v0,0x3
80008660:	00021980 	sll	v1,v0,0x6
80008664:	00431021 	addu	v0,v0,v1
80008668:	8fc30020 	lw	v1,32(s8)
8000866c:	00621021 	addu	v0,v1,v0
80008670:	ac400204 	sw	zero,516(v0)
80008674:	00001025 	move	v0,zero
80008678:	03c0e825 	move	sp,s8
8000867c:	8fbf001c 	lw	ra,28(sp)
80008680:	8fbe0018 	lw	s8,24(sp)
80008684:	27bd0020 	addiu	sp,sp,32
80008688:	03e00008 	jr	ra
8000868c:	00000000 	nop

80008690 <dev_open>:
80008690:	27bdffe0 	addiu	sp,sp,-32
80008694:	afbf001c 	sw	ra,28(sp)
80008698:	afbe0018 	sw	s8,24(sp)
8000869c:	03a0f025 	move	s8,sp
800086a0:	afc40020 	sw	a0,32(s8)
800086a4:	afc50024 	sw	a1,36(s8)
800086a8:	8fc20020 	lw	v0,32(s8)
800086ac:	8c42000c 	lw	v0,12(v0)
800086b0:	afc20010 	sw	v0,16(s8)
800086b4:	8fc20024 	lw	v0,36(s8)
800086b8:	3042003c 	andi	v0,v0,0x3c
800086bc:	10400004 	beqz	v0,800086d0 <dev_open+0x40>
800086c0:	00000000 	nop
800086c4:	24020008 	li	v0,8
800086c8:	10000008 	b	800086ec <dev_open+0x5c>
800086cc:	00000000 	nop
800086d0:	8fc20010 	lw	v0,16(s8)
800086d4:	8c420000 	lw	v0,0(v0)
800086d8:	8c420000 	lw	v0,0(v0)
800086dc:	8fc40010 	lw	a0,16(s8)
800086e0:	8fc50024 	lw	a1,36(s8)
800086e4:	0040f809 	jalr	v0
800086e8:	00000000 	nop
800086ec:	03c0e825 	move	sp,s8
800086f0:	8fbf001c 	lw	ra,28(sp)
800086f4:	8fbe0018 	lw	s8,24(sp)
800086f8:	27bd0020 	addiu	sp,sp,32
800086fc:	03e00008 	jr	ra
80008700:	00000000 	nop

80008704 <dev_close>:
80008704:	27bdffe0 	addiu	sp,sp,-32
80008708:	afbf001c 	sw	ra,28(sp)
8000870c:	afbe0018 	sw	s8,24(sp)
80008710:	03a0f025 	move	s8,sp
80008714:	afc40020 	sw	a0,32(s8)
80008718:	8fc20020 	lw	v0,32(s8)
8000871c:	8c42000c 	lw	v0,12(v0)
80008720:	afc20010 	sw	v0,16(s8)
80008724:	8fc20010 	lw	v0,16(s8)
80008728:	8c420000 	lw	v0,0(v0)
8000872c:	8c420004 	lw	v0,4(v0)
80008730:	8fc40010 	lw	a0,16(s8)
80008734:	0040f809 	jalr	v0
80008738:	00000000 	nop
8000873c:	03c0e825 	move	sp,s8
80008740:	8fbf001c 	lw	ra,28(sp)
80008744:	8fbe0018 	lw	s8,24(sp)
80008748:	27bd0020 	addiu	sp,sp,32
8000874c:	03e00008 	jr	ra
80008750:	00000000 	nop

80008754 <dev_reclaim>:
80008754:	27bdfff8 	addiu	sp,sp,-8
80008758:	afbe0004 	sw	s8,4(sp)
8000875c:	03a0f025 	move	s8,sp
80008760:	afc40008 	sw	a0,8(s8)
80008764:	00001025 	move	v0,zero
80008768:	03c0e825 	move	sp,s8
8000876c:	8fbe0004 	lw	s8,4(sp)
80008770:	27bd0008 	addiu	sp,sp,8
80008774:	03e00008 	jr	ra
80008778:	00000000 	nop

8000877c <dev_read>:
8000877c:	27bdffe0 	addiu	sp,sp,-32
80008780:	afbf001c 	sw	ra,28(sp)
80008784:	afbe0018 	sw	s8,24(sp)
80008788:	03a0f025 	move	s8,sp
8000878c:	afc40020 	sw	a0,32(s8)
80008790:	afc50024 	sw	a1,36(s8)
80008794:	8fc20020 	lw	v0,32(s8)
80008798:	8c42000c 	lw	v0,12(v0)
8000879c:	afc20010 	sw	v0,16(s8)
800087a0:	8fc20024 	lw	v0,36(s8)
800087a4:	8c420004 	lw	v0,4(v0)
800087a8:	10400007 	beqz	v0,800087c8 <dev_read+0x4c>
800087ac:	00000000 	nop
800087b0:	3c028001 	lui	v0,0x8001
800087b4:	24447fdc 	addiu	a0,v0,32732
800087b8:	3c028001 	lui	v0,0x8001
800087bc:	24457ff4 	addiu	a1,v0,32756
800087c0:	0c005c3f 	jal	800170fc <badassert>
800087c4:	00000000 	nop
800087c8:	8fc20010 	lw	v0,16(s8)
800087cc:	8c420000 	lw	v0,0(v0)
800087d0:	8c420008 	lw	v0,8(v0)
800087d4:	8fc40010 	lw	a0,16(s8)
800087d8:	8fc50024 	lw	a1,36(s8)
800087dc:	0040f809 	jalr	v0
800087e0:	00000000 	nop
800087e4:	03c0e825 	move	sp,s8
800087e8:	8fbf001c 	lw	ra,28(sp)
800087ec:	8fbe0018 	lw	s8,24(sp)
800087f0:	27bd0020 	addiu	sp,sp,32
800087f4:	03e00008 	jr	ra
800087f8:	00000000 	nop

800087fc <null_io>:
800087fc:	27bdfff8 	addiu	sp,sp,-8
80008800:	afbe0004 	sw	s8,4(sp)
80008804:	03a0f025 	move	s8,sp
80008808:	afc40008 	sw	a0,8(s8)
8000880c:	afc5000c 	sw	a1,12(s8)
80008810:	24020008 	li	v0,8
80008814:	03c0e825 	move	sp,s8
80008818:	8fbe0004 	lw	s8,4(sp)
8000881c:	27bd0008 	addiu	sp,sp,8
80008820:	03e00008 	jr	ra
80008824:	00000000 	nop

80008828 <dev_write>:
80008828:	27bdffe0 	addiu	sp,sp,-32
8000882c:	afbf001c 	sw	ra,28(sp)
80008830:	afbe0018 	sw	s8,24(sp)
80008834:	03a0f025 	move	s8,sp
80008838:	afc40020 	sw	a0,32(s8)
8000883c:	afc50024 	sw	a1,36(s8)
80008840:	8fc20020 	lw	v0,32(s8)
80008844:	8c42000c 	lw	v0,12(v0)
80008848:	afc20010 	sw	v0,16(s8)
8000884c:	8fc20024 	lw	v0,36(s8)
80008850:	8c430004 	lw	v1,4(v0)
80008854:	24020001 	li	v0,1
80008858:	10620007 	beq	v1,v0,80008878 <dev_write+0x50>
8000885c:	00000000 	nop
80008860:	3c028002 	lui	v0,0x8002
80008864:	2444800c 	addiu	a0,v0,-32756
80008868:	3c028002 	lui	v0,0x8002
8000886c:	24458028 	addiu	a1,v0,-32728
80008870:	0c005c3f 	jal	800170fc <badassert>
80008874:	00000000 	nop
80008878:	8fc20010 	lw	v0,16(s8)
8000887c:	8c420000 	lw	v0,0(v0)
80008880:	8c420008 	lw	v0,8(v0)
80008884:	8fc40010 	lw	a0,16(s8)
80008888:	8fc50024 	lw	a1,36(s8)
8000888c:	0040f809 	jalr	v0
80008890:	00000000 	nop
80008894:	03c0e825 	move	sp,s8
80008898:	8fbf001c 	lw	ra,28(sp)
8000889c:	8fbe0018 	lw	s8,24(sp)
800088a0:	27bd0020 	addiu	sp,sp,32
800088a4:	03e00008 	jr	ra
800088a8:	00000000 	nop

800088ac <dev_ioctl>:
800088ac:	27bdffe0 	addiu	sp,sp,-32
800088b0:	afbf001c 	sw	ra,28(sp)
800088b4:	afbe0018 	sw	s8,24(sp)
800088b8:	03a0f025 	move	s8,sp
800088bc:	afc40020 	sw	a0,32(s8)
800088c0:	afc50024 	sw	a1,36(s8)
800088c4:	afc60028 	sw	a2,40(s8)
800088c8:	8fc20020 	lw	v0,32(s8)
800088cc:	8c42000c 	lw	v0,12(v0)
800088d0:	afc20010 	sw	v0,16(s8)
800088d4:	8fc20010 	lw	v0,16(s8)
800088d8:	8c420000 	lw	v0,0(v0)
800088dc:	8c42000c 	lw	v0,12(v0)
800088e0:	8fc40010 	lw	a0,16(s8)
800088e4:	8fc50024 	lw	a1,36(s8)
800088e8:	8fc60028 	lw	a2,40(s8)
800088ec:	0040f809 	jalr	v0
800088f0:	00000000 	nop
800088f4:	03c0e825 	move	sp,s8
800088f8:	8fbf001c 	lw	ra,28(sp)
800088fc:	8fbe0018 	lw	s8,24(sp)
80008900:	27bd0020 	addiu	sp,sp,32
80008904:	03e00008 	jr	ra
80008908:	00000000 	nop

8000890c <dev_stat>:
8000890c:	27bdffd8 	addiu	sp,sp,-40
80008910:	afbf0024 	sw	ra,36(sp)
80008914:	afbe0020 	sw	s8,32(sp)
80008918:	afb1001c 	sw	s1,28(sp)
8000891c:	afb00018 	sw	s0,24(sp)
80008920:	03a0f025 	move	s8,sp
80008924:	afc40028 	sw	a0,40(s8)
80008928:	afc5002c 	sw	a1,44(s8)
8000892c:	8fc20028 	lw	v0,40(s8)
80008930:	8c42000c 	lw	v0,12(v0)
80008934:	afc20010 	sw	v0,16(s8)
80008938:	8fc4002c 	lw	a0,44(s8)
8000893c:	24050058 	li	a1,88
80008940:	0c005e17 	jal	8001785c <bzero>
80008944:	00000000 	nop
80008948:	8fc20010 	lw	v0,16(s8)
8000894c:	8c420004 	lw	v0,4(v0)
80008950:	10400011 	beqz	v0,80008998 <dev_stat+0x8c>
80008954:	00000000 	nop
80008958:	8fc20010 	lw	v0,16(s8)
8000895c:	8c430004 	lw	v1,4(v0)
80008960:	8fc20010 	lw	v0,16(s8)
80008964:	8c420008 	lw	v0,8(v0)
80008968:	70621002 	mul	v0,v1,v0
8000896c:	00408025 	move	s0,v0
80008970:	00008825 	move	s1,zero
80008974:	8fc2002c 	lw	v0,44(s8)
80008978:	ac500000 	sw	s0,0(v0)
8000897c:	ac510004 	sw	s1,4(v0)
80008980:	8fc20010 	lw	v0,16(s8)
80008984:	8c430008 	lw	v1,8(v0)
80008988:	8fc2002c 	lw	v0,44(s8)
8000898c:	ac430050 	sw	v1,80(v0)
80008990:	10000006 	b	800089ac <dev_stat+0xa0>
80008994:	00000000 	nop
80008998:	8fc2002c 	lw	v0,44(s8)
8000899c:	00002025 	move	a0,zero
800089a0:	00002825 	move	a1,zero
800089a4:	ac440000 	sw	a0,0(v0)
800089a8:	ac450004 	sw	a1,4(v0)
800089ac:	8fc40028 	lw	a0,40(s8)
800089b0:	3c028002 	lui	v0,0x8002
800089b4:	24458040 	addiu	a1,v0,-32704
800089b8:	0c002db8 	jal	8000b6e0 <vnode_check>
800089bc:	00000000 	nop
800089c0:	8fc20028 	lw	v0,40(s8)
800089c4:	8c420010 	lw	v0,16(v0)
800089c8:	8c420028 	lw	v0,40(v0)
800089cc:	8fc3002c 	lw	v1,44(s8)
800089d0:	24630008 	addiu	v1,v1,8
800089d4:	8fc40028 	lw	a0,40(s8)
800089d8:	00602825 	move	a1,v1
800089dc:	0040f809 	jalr	v0
800089e0:	00000000 	nop
800089e4:	afc20014 	sw	v0,20(s8)
800089e8:	8fc20014 	lw	v0,20(s8)
800089ec:	10400004 	beqz	v0,80008a00 <dev_stat+0xf4>
800089f0:	00000000 	nop
800089f4:	8fc20014 	lw	v0,20(s8)
800089f8:	10000014 	b	80008a4c <dev_stat+0x140>
800089fc:	00000000 	nop
80008a00:	8fc2002c 	lw	v0,44(s8)
80008a04:	8c420008 	lw	v0,8(v0)
80008a08:	34430180 	ori	v1,v0,0x180
80008a0c:	8fc2002c 	lw	v0,44(s8)
80008a10:	ac430008 	sw	v1,8(v0)
80008a14:	8fc2002c 	lw	v0,44(s8)
80008a18:	24030001 	li	v1,1
80008a1c:	a443000c 	sh	v1,12(v0)
80008a20:	8fc20010 	lw	v0,16(s8)
80008a24:	8c430004 	lw	v1,4(v0)
80008a28:	8fc2002c 	lw	v0,44(s8)
80008a2c:	ac430010 	sw	v1,16(v0)
80008a30:	8fc2002c 	lw	v0,44(s8)
80008a34:	ac400014 	sw	zero,20(v0)
80008a38:	8fc20010 	lw	v0,16(s8)
80008a3c:	8c43000c 	lw	v1,12(v0)
80008a40:	8fc2002c 	lw	v0,44(s8)
80008a44:	ac43001c 	sw	v1,28(v0)
80008a48:	00001025 	move	v0,zero
80008a4c:	03c0e825 	move	sp,s8
80008a50:	8fbf0024 	lw	ra,36(sp)
80008a54:	8fbe0020 	lw	s8,32(sp)
80008a58:	8fb1001c 	lw	s1,28(sp)
80008a5c:	8fb00018 	lw	s0,24(sp)
80008a60:	27bd0028 	addiu	sp,sp,40
80008a64:	03e00008 	jr	ra
80008a68:	00000000 	nop

80008a6c <dev_gettype>:
80008a6c:	27bdfff0 	addiu	sp,sp,-16
80008a70:	afbe000c 	sw	s8,12(sp)
80008a74:	03a0f025 	move	s8,sp
80008a78:	afc40010 	sw	a0,16(s8)
80008a7c:	afc50014 	sw	a1,20(s8)
80008a80:	8fc20010 	lw	v0,16(s8)
80008a84:	8c42000c 	lw	v0,12(v0)
80008a88:	afc20000 	sw	v0,0(s8)
80008a8c:	8fc20000 	lw	v0,0(s8)
80008a90:	8c420004 	lw	v0,4(v0)
80008a94:	10400006 	beqz	v0,80008ab0 <dev_gettype+0x44>
80008a98:	00000000 	nop
80008a9c:	8fc20014 	lw	v0,20(s8)
80008aa0:	24037000 	li	v1,28672
80008aa4:	ac430000 	sw	v1,0(v0)
80008aa8:	10000004 	b	80008abc <dev_gettype+0x50>
80008aac:	00000000 	nop
80008ab0:	8fc20014 	lw	v0,20(s8)
80008ab4:	24036000 	li	v1,24576
80008ab8:	ac430000 	sw	v1,0(v0)
80008abc:	00001025 	move	v0,zero
80008ac0:	03c0e825 	move	sp,s8
80008ac4:	8fbe000c 	lw	s8,12(sp)
80008ac8:	27bd0010 	addiu	sp,sp,16
80008acc:	03e00008 	jr	ra
80008ad0:	00000000 	nop

80008ad4 <dev_tryseek>:
80008ad4:	27bdfff8 	addiu	sp,sp,-8
80008ad8:	afbe0004 	sw	s8,4(sp)
80008adc:	03a0f025 	move	s8,sp
80008ae0:	afc40008 	sw	a0,8(s8)
80008ae4:	afc60010 	sw	a2,16(s8)
80008ae8:	afc70014 	sw	a3,20(s8)
80008aec:	03c0e825 	move	sp,s8
80008af0:	8fbe0004 	lw	s8,4(sp)
80008af4:	27bd0008 	addiu	sp,sp,8
80008af8:	03e00008 	jr	ra
80008afc:	00000000 	nop

80008b00 <null_fsync>:
80008b00:	27bdfff8 	addiu	sp,sp,-8
80008b04:	afbe0004 	sw	s8,4(sp)
80008b08:	03a0f025 	move	s8,sp
80008b0c:	afc40008 	sw	a0,8(s8)
80008b10:	00001025 	move	v0,zero
80008b14:	03c0e825 	move	sp,s8
80008b18:	8fbe0004 	lw	s8,4(sp)
80008b1c:	27bd0008 	addiu	sp,sp,8
80008b20:	03e00008 	jr	ra
80008b24:	00000000 	nop

80008b28 <dev_mmap>:
80008b28:	27bdfff8 	addiu	sp,sp,-8
80008b2c:	afbe0004 	sw	s8,4(sp)
80008b30:	03a0f025 	move	s8,sp
80008b34:	afc40008 	sw	a0,8(s8)
80008b38:	24020002 	li	v0,2
80008b3c:	03c0e825 	move	sp,s8
80008b40:	8fbe0004 	lw	s8,4(sp)
80008b44:	27bd0008 	addiu	sp,sp,8
80008b48:	03e00008 	jr	ra
80008b4c:	00000000 	nop

80008b50 <dev_truncate>:
80008b50:	27bdfff0 	addiu	sp,sp,-16
80008b54:	afbe000c 	sw	s8,12(sp)
80008b58:	03a0f025 	move	s8,sp
80008b5c:	afc40010 	sw	a0,16(s8)
80008b60:	afc60018 	sw	a2,24(s8)
80008b64:	afc7001c 	sw	a3,28(s8)
80008b68:	8fc40010 	lw	a0,16(s8)
80008b6c:	8c84000c 	lw	a0,12(a0)
80008b70:	afc40000 	sw	a0,0(s8)
80008b74:	8fc40000 	lw	a0,0(s8)
80008b78:	8c840004 	lw	a0,4(a0)
80008b7c:	10800013 	beqz	a0,80008bcc <dev_truncate+0x7c>
80008b80:	00000000 	nop
80008b84:	8fc40000 	lw	a0,0(s8)
80008b88:	8c850004 	lw	a1,4(a0)
80008b8c:	8fc40000 	lw	a0,0(s8)
80008b90:	8c840008 	lw	a0,8(a0)
80008b94:	70a42002 	mul	a0,a1,a0
80008b98:	00801025 	move	v0,a0
80008b9c:	00001825 	move	v1,zero
80008ba0:	8fc40018 	lw	a0,24(s8)
80008ba4:	00402825 	move	a1,v0
80008ba8:	14850008 	bne	a0,a1,80008bcc <dev_truncate+0x7c>
80008bac:	00000000 	nop
80008bb0:	8fc4001c 	lw	a0,28(s8)
80008bb4:	00601025 	move	v0,v1
80008bb8:	14820004 	bne	a0,v0,80008bcc <dev_truncate+0x7c>
80008bbc:	00000000 	nop
80008bc0:	00001025 	move	v0,zero
80008bc4:	10000002 	b	80008bd0 <dev_truncate+0x80>
80008bc8:	00000000 	nop
80008bcc:	24020008 	li	v0,8
80008bd0:	03c0e825 	move	sp,s8
80008bd4:	8fbe000c 	lw	s8,12(sp)
80008bd8:	27bd0010 	addiu	sp,sp,16
80008bdc:	03e00008 	jr	ra
80008be0:	00000000 	nop

80008be4 <dev_namefile>:
80008be4:	27bdfff8 	addiu	sp,sp,-8
80008be8:	afbe0004 	sw	s8,4(sp)
80008bec:	03a0f025 	move	s8,sp
80008bf0:	afc40008 	sw	a0,8(s8)
80008bf4:	afc5000c 	sw	a1,12(s8)
80008bf8:	00001025 	move	v0,zero
80008bfc:	03c0e825 	move	sp,s8
80008c00:	8fbe0004 	lw	s8,4(sp)
80008c04:	27bd0008 	addiu	sp,sp,8
80008c08:	03e00008 	jr	ra
80008c0c:	00000000 	nop

80008c10 <null_creat>:
80008c10:	27bdfff8 	addiu	sp,sp,-8
80008c14:	afbe0004 	sw	s8,4(sp)
80008c18:	03a0f025 	move	s8,sp
80008c1c:	afc40008 	sw	a0,8(s8)
80008c20:	afc5000c 	sw	a1,12(s8)
80008c24:	00c01025 	move	v0,a2
80008c28:	afc70014 	sw	a3,20(s8)
80008c2c:	a3c20010 	sb	v0,16(s8)
80008c30:	24020011 	li	v0,17
80008c34:	03c0e825 	move	sp,s8
80008c38:	8fbe0004 	lw	s8,4(sp)
80008c3c:	27bd0008 	addiu	sp,sp,8
80008c40:	03e00008 	jr	ra
80008c44:	00000000 	nop

80008c48 <null_mkdir>:
80008c48:	27bdfff8 	addiu	sp,sp,-8
80008c4c:	afbe0004 	sw	s8,4(sp)
80008c50:	03a0f025 	move	s8,sp
80008c54:	afc40008 	sw	a0,8(s8)
80008c58:	afc5000c 	sw	a1,12(s8)
80008c5c:	afc60010 	sw	a2,16(s8)
80008c60:	24020011 	li	v0,17
80008c64:	03c0e825 	move	sp,s8
80008c68:	8fbe0004 	lw	s8,4(sp)
80008c6c:	27bd0008 	addiu	sp,sp,8
80008c70:	03e00008 	jr	ra
80008c74:	00000000 	nop

80008c78 <null_symlink>:
80008c78:	27bdfff8 	addiu	sp,sp,-8
80008c7c:	afbe0004 	sw	s8,4(sp)
80008c80:	03a0f025 	move	s8,sp
80008c84:	afc40008 	sw	a0,8(s8)
80008c88:	afc5000c 	sw	a1,12(s8)
80008c8c:	afc60010 	sw	a2,16(s8)
80008c90:	24020011 	li	v0,17
80008c94:	03c0e825 	move	sp,s8
80008c98:	8fbe0004 	lw	s8,4(sp)
80008c9c:	27bd0008 	addiu	sp,sp,8
80008ca0:	03e00008 	jr	ra
80008ca4:	00000000 	nop

80008ca8 <null_nameop>:
80008ca8:	27bdfff8 	addiu	sp,sp,-8
80008cac:	afbe0004 	sw	s8,4(sp)
80008cb0:	03a0f025 	move	s8,sp
80008cb4:	afc40008 	sw	a0,8(s8)
80008cb8:	afc5000c 	sw	a1,12(s8)
80008cbc:	24020011 	li	v0,17
80008cc0:	03c0e825 	move	sp,s8
80008cc4:	8fbe0004 	lw	s8,4(sp)
80008cc8:	27bd0008 	addiu	sp,sp,8
80008ccc:	03e00008 	jr	ra
80008cd0:	00000000 	nop

80008cd4 <null_link>:
80008cd4:	27bdfff8 	addiu	sp,sp,-8
80008cd8:	afbe0004 	sw	s8,4(sp)
80008cdc:	03a0f025 	move	s8,sp
80008ce0:	afc40008 	sw	a0,8(s8)
80008ce4:	afc5000c 	sw	a1,12(s8)
80008ce8:	afc60010 	sw	a2,16(s8)
80008cec:	24020011 	li	v0,17
80008cf0:	03c0e825 	move	sp,s8
80008cf4:	8fbe0004 	lw	s8,4(sp)
80008cf8:	27bd0008 	addiu	sp,sp,8
80008cfc:	03e00008 	jr	ra
80008d00:	00000000 	nop

80008d04 <null_rename>:
80008d04:	27bdfff8 	addiu	sp,sp,-8
80008d08:	afbe0004 	sw	s8,4(sp)
80008d0c:	03a0f025 	move	s8,sp
80008d10:	afc40008 	sw	a0,8(s8)
80008d14:	afc5000c 	sw	a1,12(s8)
80008d18:	afc60010 	sw	a2,16(s8)
80008d1c:	afc70014 	sw	a3,20(s8)
80008d20:	24020011 	li	v0,17
80008d24:	03c0e825 	move	sp,s8
80008d28:	8fbe0004 	lw	s8,4(sp)
80008d2c:	27bd0008 	addiu	sp,sp,8
80008d30:	03e00008 	jr	ra
80008d34:	00000000 	nop

80008d38 <dev_lookup>:
80008d38:	27bdffe8 	addiu	sp,sp,-24
80008d3c:	afbf0014 	sw	ra,20(sp)
80008d40:	afbe0010 	sw	s8,16(sp)
80008d44:	03a0f025 	move	s8,sp
80008d48:	afc40018 	sw	a0,24(s8)
80008d4c:	afc5001c 	sw	a1,28(s8)
80008d50:	afc60020 	sw	a2,32(s8)
80008d54:	8fc4001c 	lw	a0,28(s8)
80008d58:	0c005e71 	jal	800179c4 <kernel_strlen>
80008d5c:	00000000 	nop
80008d60:	10400004 	beqz	v0,80008d74 <dev_lookup+0x3c>
80008d64:	00000000 	nop
80008d68:	24020013 	li	v0,19
80008d6c:	10000008 	b	80008d90 <dev_lookup+0x58>
80008d70:	00000000 	nop
80008d74:	8fc40018 	lw	a0,24(s8)
80008d78:	0c002cf4 	jal	8000b3d0 <vnode_incref>
80008d7c:	00000000 	nop
80008d80:	8fc20020 	lw	v0,32(s8)
80008d84:	8fc30018 	lw	v1,24(s8)
80008d88:	ac430000 	sw	v1,0(v0)
80008d8c:	00001025 	move	v0,zero
80008d90:	03c0e825 	move	sp,s8
80008d94:	8fbf0014 	lw	ra,20(sp)
80008d98:	8fbe0010 	lw	s8,16(sp)
80008d9c:	27bd0018 	addiu	sp,sp,24
80008da0:	03e00008 	jr	ra
80008da4:	00000000 	nop

80008da8 <dev_lookparent>:
80008da8:	27bdfff8 	addiu	sp,sp,-8
80008dac:	afbe0004 	sw	s8,4(sp)
80008db0:	03a0f025 	move	s8,sp
80008db4:	afc40008 	sw	a0,8(s8)
80008db8:	afc5000c 	sw	a1,12(s8)
80008dbc:	afc60010 	sw	a2,16(s8)
80008dc0:	afc70014 	sw	a3,20(s8)
80008dc4:	24020011 	li	v0,17
80008dc8:	03c0e825 	move	sp,s8
80008dcc:	8fbe0004 	lw	s8,4(sp)
80008dd0:	27bd0008 	addiu	sp,sp,8
80008dd4:	03e00008 	jr	ra
80008dd8:	00000000 	nop

80008ddc <dev_create_vnode>:
80008ddc:	27bdffe0 	addiu	sp,sp,-32
80008de0:	afbf001c 	sw	ra,28(sp)
80008de4:	afbe0018 	sw	s8,24(sp)
80008de8:	03a0f025 	move	s8,sp
80008dec:	afc40020 	sw	a0,32(s8)
80008df0:	24040020 	li	a0,32
80008df4:	0c003abb 	jal	8000eaec <kmalloc>
80008df8:	00000000 	nop
80008dfc:	afc20010 	sw	v0,16(s8)
80008e00:	8fc20010 	lw	v0,16(s8)
80008e04:	14400004 	bnez	v0,80008e18 <dev_create_vnode+0x3c>
80008e08:	00000000 	nop
80008e0c:	00001025 	move	v0,zero
80008e10:	10000017 	b	80008e70 <dev_create_vnode+0x94>
80008e14:	00000000 	nop
80008e18:	8fc40010 	lw	a0,16(s8)
80008e1c:	3c028002 	lui	v0,0x8002
80008e20:	24458048 	addiu	a1,v0,-32696
80008e24:	00003025 	move	a2,zero
80008e28:	8fc70020 	lw	a3,32(s8)
80008e2c:	0c002c60 	jal	8000b180 <vnode_init>
80008e30:	00000000 	nop
80008e34:	afc20014 	sw	v0,20(s8)
80008e38:	8fc20014 	lw	v0,20(s8)
80008e3c:	1040000b 	beqz	v0,80008e6c <dev_create_vnode+0x90>
80008e40:	00000000 	nop
80008e44:	8fc40014 	lw	a0,20(s8)
80008e48:	0c005ce8 	jal	800173a0 <strerror>
80008e4c:	00000000 	nop
80008e50:	00401825 	move	v1,v0
80008e54:	24040001 	li	a0,1
80008e58:	3c028002 	lui	v0,0x8002
80008e5c:	244580ac 	addiu	a1,v0,-32596
80008e60:	00603025 	move	a2,v1
80008e64:	0c005c6a 	jal	800171a8 <log>
80008e68:	00000000 	nop
80008e6c:	8fc20010 	lw	v0,16(s8)
80008e70:	03c0e825 	move	sp,s8
80008e74:	8fbf001c 	lw	ra,28(sp)
80008e78:	8fbe0018 	lw	s8,24(sp)
80008e7c:	27bd0020 	addiu	sp,sp,32
80008e80:	03e00008 	jr	ra
80008e84:	00000000 	nop

80008e88 <nullopen>:
80008e88:	27bdfff8 	addiu	sp,sp,-8
80008e8c:	afbe0004 	sw	s8,4(sp)
80008e90:	03a0f025 	move	s8,sp
80008e94:	afc40008 	sw	a0,8(s8)
80008e98:	afc5000c 	sw	a1,12(s8)
80008e9c:	00001025 	move	v0,zero
80008ea0:	03c0e825 	move	sp,s8
80008ea4:	8fbe0004 	lw	s8,4(sp)
80008ea8:	27bd0008 	addiu	sp,sp,8
80008eac:	03e00008 	jr	ra
80008eb0:	00000000 	nop

80008eb4 <nullclose>:
80008eb4:	27bdfff8 	addiu	sp,sp,-8
80008eb8:	afbe0004 	sw	s8,4(sp)
80008ebc:	03a0f025 	move	s8,sp
80008ec0:	afc40008 	sw	a0,8(s8)
80008ec4:	00001025 	move	v0,zero
80008ec8:	03c0e825 	move	sp,s8
80008ecc:	8fbe0004 	lw	s8,4(sp)
80008ed0:	27bd0008 	addiu	sp,sp,8
80008ed4:	03e00008 	jr	ra
80008ed8:	00000000 	nop

80008edc <nullio>:
80008edc:	27bdfff8 	addiu	sp,sp,-8
80008ee0:	afbe0004 	sw	s8,4(sp)
80008ee4:	03a0f025 	move	s8,sp
80008ee8:	afc40008 	sw	a0,8(s8)
80008eec:	afc5000c 	sw	a1,12(s8)
80008ef0:	8fc2000c 	lw	v0,12(s8)
80008ef4:	8c430004 	lw	v1,4(v0)
80008ef8:	24020001 	li	v0,1
80008efc:	14620003 	bne	v1,v0,80008f0c <nullio+0x30>
80008f00:	00000000 	nop
80008f04:	8fc2000c 	lw	v0,12(s8)
80008f08:	ac400000 	sw	zero,0(v0)
80008f0c:	00001025 	move	v0,zero
80008f10:	03c0e825 	move	sp,s8
80008f14:	8fbe0004 	lw	s8,4(sp)
80008f18:	27bd0008 	addiu	sp,sp,8
80008f1c:	03e00008 	jr	ra
80008f20:	00000000 	nop

80008f24 <nullioctl>:
80008f24:	27bdfff8 	addiu	sp,sp,-8
80008f28:	afbe0004 	sw	s8,4(sp)
80008f2c:	03a0f025 	move	s8,sp
80008f30:	afc40008 	sw	a0,8(s8)
80008f34:	afc5000c 	sw	a1,12(s8)
80008f38:	afc60010 	sw	a2,16(s8)
80008f3c:	24020008 	li	v0,8
80008f40:	03c0e825 	move	sp,s8
80008f44:	8fbe0004 	lw	s8,4(sp)
80008f48:	27bd0008 	addiu	sp,sp,8
80008f4c:	03e00008 	jr	ra
80008f50:	00000000 	nop

80008f54 <devnull_create>:
80008f54:	27bdffe0 	addiu	sp,sp,-32
80008f58:	afbf001c 	sw	ra,28(sp)
80008f5c:	afbe0018 	sw	s8,24(sp)
80008f60:	03a0f025 	move	s8,sp
80008f64:	24040014 	li	a0,20
80008f68:	0c003abb 	jal	8000eaec <kmalloc>
80008f6c:	00000000 	nop
80008f70:	afc20010 	sw	v0,16(s8)
80008f74:	8fc20010 	lw	v0,16(s8)
80008f78:	14400006 	bnez	v0,80008f94 <devnull_create+0x40>
80008f7c:	00000000 	nop
80008f80:	24040001 	li	a0,1
80008f84:	3c028002 	lui	v0,0x8002
80008f88:	244580ec 	addiu	a1,v0,-32532
80008f8c:	0c005c6a 	jal	800171a8 <log>
80008f90:	00000000 	nop
80008f94:	8fc20010 	lw	v0,16(s8)
80008f98:	3c038002 	lui	v1,0x8002
80008f9c:	246380dc 	addiu	v1,v1,-32548
80008fa0:	ac430000 	sw	v1,0(v0)
80008fa4:	8fc20010 	lw	v0,16(s8)
80008fa8:	24030008 	li	v1,8
80008fac:	ac430004 	sw	v1,4(v0)
80008fb0:	8fc20010 	lw	v0,16(s8)
80008fb4:	24030200 	li	v1,512
80008fb8:	ac430008 	sw	v1,8(v0)
80008fbc:	8fc20010 	lw	v0,16(s8)
80008fc0:	ac40000c 	sw	zero,12(v0)
80008fc4:	8fc20010 	lw	v0,16(s8)
80008fc8:	ac400010 	sw	zero,16(v0)
80008fcc:	3c028002 	lui	v0,0x8002
80008fd0:	24448118 	addiu	a0,v0,-32488
80008fd4:	8fc50010 	lw	a1,16(s8)
80008fd8:	24060001 	li	a2,1
80008fdc:	0c0025cc 	jal	80009730 <vfs_adddev>
80008fe0:	00000000 	nop
80008fe4:	afc20014 	sw	v0,20(s8)
80008fe8:	8fc20014 	lw	v0,20(s8)
80008fec:	1040000b 	beqz	v0,8000901c <devnull_create+0xc8>
80008ff0:	00000000 	nop
80008ff4:	8fc40014 	lw	a0,20(s8)
80008ff8:	0c005ce8 	jal	800173a0 <strerror>
80008ffc:	00000000 	nop
80009000:	00401825 	move	v1,v0
80009004:	24040001 	li	a0,1
80009008:	3c028002 	lui	v0,0x8002
8000900c:	2445811c 	addiu	a1,v0,-32484
80009010:	00603025 	move	a2,v1
80009014:	0c005c6a 	jal	800171a8 <log>
80009018:	00000000 	nop
8000901c:	03c0e825 	move	sp,s8
80009020:	8fbf001c 	lw	ra,28(sp)
80009024:	8fbe0018 	lw	s8,24(sp)
80009028:	27bd0020 	addiu	sp,sp,32
8000902c:	03e00008 	jr	ra
80009030:	00000000 	nop

80009034 <vfs_getcurdir>:
80009034:	27bdffe0 	addiu	sp,sp,-32
80009038:	afbf001c 	sw	ra,28(sp)
8000903c:	afbe0018 	sw	s8,24(sp)
80009040:	03a0f025 	move	s8,sp
80009044:	afc40020 	sw	a0,32(s8)
80009048:	afc00010 	sw	zero,16(s8)
8000904c:	8f82806c 	lw	v0,-32660(gp)
80009050:	00402025 	move	a0,v0
80009054:	0c002cf4 	jal	8000b3d0 <vnode_incref>
80009058:	00000000 	nop
8000905c:	8f83806c 	lw	v1,-32660(gp)
80009060:	8fc20020 	lw	v0,32(s8)
80009064:	ac430000 	sw	v1,0(v0)
80009068:	8fc20010 	lw	v0,16(s8)
8000906c:	03c0e825 	move	sp,s8
80009070:	8fbf001c 	lw	ra,28(sp)
80009074:	8fbe0018 	lw	s8,24(sp)
80009078:	27bd0020 	addiu	sp,sp,32
8000907c:	03e00008 	jr	ra
80009080:	00000000 	nop

80009084 <vfs_setcurdir>:
80009084:	27bdffd8 	addiu	sp,sp,-40
80009088:	afbf0024 	sw	ra,36(sp)
8000908c:	afbe0020 	sw	s8,32(sp)
80009090:	03a0f025 	move	s8,sp
80009094:	afc40028 	sw	a0,40(s8)
80009098:	8fc40028 	lw	a0,40(s8)
8000909c:	3c028002 	lui	v0,0x8002
800090a0:	2445813c 	addiu	a1,v0,-32452
800090a4:	0c002db8 	jal	8000b6e0 <vnode_check>
800090a8:	00000000 	nop
800090ac:	8fc20028 	lw	v0,40(s8)
800090b0:	8c420010 	lw	v0,16(v0)
800090b4:	8c420028 	lw	v0,40(v0)
800090b8:	27c30018 	addiu	v1,s8,24
800090bc:	8fc40028 	lw	a0,40(s8)
800090c0:	00602825 	move	a1,v1
800090c4:	0040f809 	jalr	v0
800090c8:	00000000 	nop
800090cc:	afc20010 	sw	v0,16(s8)
800090d0:	8fc20010 	lw	v0,16(s8)
800090d4:	10400004 	beqz	v0,800090e8 <vfs_setcurdir+0x64>
800090d8:	00000000 	nop
800090dc:	8fc20010 	lw	v0,16(s8)
800090e0:	10000016 	b	8000913c <vfs_setcurdir+0xb8>
800090e4:	00000000 	nop
800090e8:	8fc30018 	lw	v1,24(s8)
800090ec:	24022000 	li	v0,8192
800090f0:	10620004 	beq	v1,v0,80009104 <vfs_setcurdir+0x80>
800090f4:	00000000 	nop
800090f8:	24020011 	li	v0,17
800090fc:	1000000f 	b	8000913c <vfs_setcurdir+0xb8>
80009100:	00000000 	nop
80009104:	8fc40028 	lw	a0,40(s8)
80009108:	0c002cf4 	jal	8000b3d0 <vnode_incref>
8000910c:	00000000 	nop
80009110:	8f82806c 	lw	v0,-32660(gp)
80009114:	afc20014 	sw	v0,20(s8)
80009118:	8fc20028 	lw	v0,40(s8)
8000911c:	af82806c 	sw	v0,-32660(gp)
80009120:	8fc20014 	lw	v0,20(s8)
80009124:	10400004 	beqz	v0,80009138 <vfs_setcurdir+0xb4>
80009128:	00000000 	nop
8000912c:	8fc40014 	lw	a0,20(s8)
80009130:	0c002d0d 	jal	8000b434 <vnode_decref>
80009134:	00000000 	nop
80009138:	00001025 	move	v0,zero
8000913c:	03c0e825 	move	sp,s8
80009140:	8fbf0024 	lw	ra,36(sp)
80009144:	8fbe0020 	lw	s8,32(sp)
80009148:	27bd0028 	addiu	sp,sp,40
8000914c:	03e00008 	jr	ra
80009150:	00000000 	nop

80009154 <vfs_chdir>:
80009154:	27bdffe0 	addiu	sp,sp,-32
80009158:	afbf001c 	sw	ra,28(sp)
8000915c:	afbe0018 	sw	s8,24(sp)
80009160:	03a0f025 	move	s8,sp
80009164:	afc40020 	sw	a0,32(s8)
80009168:	27c20014 	addiu	v0,s8,20
8000916c:	8fc40020 	lw	a0,32(s8)
80009170:	00402825 	move	a1,v0
80009174:	0c0029b6 	jal	8000a6d8 <vfs_lookup>
80009178:	00000000 	nop
8000917c:	afc20010 	sw	v0,16(s8)
80009180:	8fc20010 	lw	v0,16(s8)
80009184:	10400004 	beqz	v0,80009198 <vfs_chdir+0x44>
80009188:	00000000 	nop
8000918c:	8fc20010 	lw	v0,16(s8)
80009190:	1000000b 	b	800091c0 <vfs_chdir+0x6c>
80009194:	00000000 	nop
80009198:	8fc20014 	lw	v0,20(s8)
8000919c:	00402025 	move	a0,v0
800091a0:	0c002421 	jal	80009084 <vfs_setcurdir>
800091a4:	00000000 	nop
800091a8:	afc20010 	sw	v0,16(s8)
800091ac:	8fc20014 	lw	v0,20(s8)
800091b0:	00402025 	move	a0,v0
800091b4:	0c002d0d 	jal	8000b434 <vnode_decref>
800091b8:	00000000 	nop
800091bc:	8fc20010 	lw	v0,16(s8)
800091c0:	03c0e825 	move	sp,s8
800091c4:	8fbf001c 	lw	ra,28(sp)
800091c8:	8fbe0018 	lw	s8,24(sp)
800091cc:	27bd0020 	addiu	sp,sp,32
800091d0:	03e00008 	jr	ra
800091d4:	00000000 	nop

800091d8 <vfs_bootstrap>:
800091d8:	27bdffe8 	addiu	sp,sp,-24
800091dc:	afbf0014 	sw	ra,20(sp)
800091e0:	afbe0010 	sw	s8,16(sp)
800091e4:	03a0f025 	move	s8,sp
800091e8:	0c005afd 	jal	80016bf4 <array_create>
800091ec:	00000000 	nop
800091f0:	af82809c 	sw	v0,-32612(gp)
800091f4:	8f82809c 	lw	v0,-32612(gp)
800091f8:	14400006 	bnez	v0,80009214 <vfs_bootstrap+0x3c>
800091fc:	00000000 	nop
80009200:	24040001 	li	a0,1
80009204:	3c028002 	lui	v0,0x8002
80009208:	24458144 	addiu	a1,v0,-32444
8000920c:	0c005c6a 	jal	800171a8 <log>
80009210:	00000000 	nop
80009214:	0c0023d5 	jal	80008f54 <devnull_create>
80009218:	00000000 	nop
8000921c:	03c0e825 	move	sp,s8
80009220:	8fbf0014 	lw	ra,20(sp)
80009224:	8fbe0010 	lw	s8,16(sp)
80009228:	27bd0018 	addiu	sp,sp,24
8000922c:	03e00008 	jr	ra
80009230:	00000000 	nop

80009234 <mk_raw_name>:
80009234:	27bdffe0 	addiu	sp,sp,-32
80009238:	afbf001c 	sw	ra,28(sp)
8000923c:	afbe0018 	sw	s8,24(sp)
80009240:	03a0f025 	move	s8,sp
80009244:	afc40020 	sw	a0,32(s8)
80009248:	8fc40020 	lw	a0,32(s8)
8000924c:	0c005e71 	jal	800179c4 <kernel_strlen>
80009250:	00000000 	nop
80009254:	24420004 	addiu	v0,v0,4
80009258:	00402025 	move	a0,v0
8000925c:	0c003abb 	jal	8000eaec <kmalloc>
80009260:	00000000 	nop
80009264:	afc20010 	sw	v0,16(s8)
80009268:	8fc20010 	lw	v0,16(s8)
8000926c:	14400004 	bnez	v0,80009280 <mk_raw_name+0x4c>
80009270:	00000000 	nop
80009274:	00001025 	move	v0,zero
80009278:	1000000b 	b	800092a8 <mk_raw_name+0x74>
8000927c:	00000000 	nop
80009280:	8fc40010 	lw	a0,16(s8)
80009284:	8fc50020 	lw	a1,32(s8)
80009288:	0c005ead 	jal	80017ab4 <kernel_strcpy>
8000928c:	00000000 	nop
80009290:	8fc40010 	lw	a0,16(s8)
80009294:	3c028002 	lui	v0,0x8002
80009298:	2445816c 	addiu	a1,v0,-32404
8000929c:	0c005ec4 	jal	80017b10 <kernel_strcat>
800092a0:	00000000 	nop
800092a4:	8fc20010 	lw	v0,16(s8)
800092a8:	03c0e825 	move	sp,s8
800092ac:	8fbf001c 	lw	ra,28(sp)
800092b0:	8fbe0018 	lw	s8,24(sp)
800092b4:	27bd0020 	addiu	sp,sp,32
800092b8:	03e00008 	jr	ra
800092bc:	00000000 	nop

800092c0 <same_string>:
800092c0:	27bdffe8 	addiu	sp,sp,-24
800092c4:	afbf0014 	sw	ra,20(sp)
800092c8:	afbe0010 	sw	s8,16(sp)
800092cc:	03a0f025 	move	s8,sp
800092d0:	afc40018 	sw	a0,24(s8)
800092d4:	afc5001c 	sw	a1,28(s8)
800092d8:	8fc20018 	lw	v0,24(s8)
800092dc:	10400004 	beqz	v0,800092f0 <same_string+0x30>
800092e0:	00000000 	nop
800092e4:	8fc2001c 	lw	v0,28(s8)
800092e8:	14400004 	bnez	v0,800092fc <same_string+0x3c>
800092ec:	00000000 	nop
800092f0:	00001025 	move	v0,zero
800092f4:	10000007 	b	80009314 <same_string+0x54>
800092f8:	00000000 	nop
800092fc:	8fc40018 	lw	a0,24(s8)
80009300:	8fc5001c 	lw	a1,28(s8)
80009304:	0c005e4f 	jal	8001793c <kernel_strcmp>
80009308:	00000000 	nop
8000930c:	2c420001 	sltiu	v0,v0,1
80009310:	304200ff 	andi	v0,v0,0xff
80009314:	03c0e825 	move	sp,s8
80009318:	8fbf0014 	lw	ra,20(sp)
8000931c:	8fbe0010 	lw	s8,16(sp)
80009320:	27bd0018 	addiu	sp,sp,24
80009324:	03e00008 	jr	ra
80009328:	00000000 	nop

8000932c <same_string3>:
8000932c:	27bdffe8 	addiu	sp,sp,-24
80009330:	afbf0014 	sw	ra,20(sp)
80009334:	afbe0010 	sw	s8,16(sp)
80009338:	03a0f025 	move	s8,sp
8000933c:	afc40018 	sw	a0,24(s8)
80009340:	afc5001c 	sw	a1,28(s8)
80009344:	afc60020 	sw	a2,32(s8)
80009348:	afc70024 	sw	a3,36(s8)
8000934c:	8fc40018 	lw	a0,24(s8)
80009350:	8fc5001c 	lw	a1,28(s8)
80009354:	0c0024b0 	jal	800092c0 <same_string>
80009358:	00000000 	nop
8000935c:	1440000d 	bnez	v0,80009394 <same_string3+0x68>
80009360:	00000000 	nop
80009364:	8fc40018 	lw	a0,24(s8)
80009368:	8fc50020 	lw	a1,32(s8)
8000936c:	0c0024b0 	jal	800092c0 <same_string>
80009370:	00000000 	nop
80009374:	14400007 	bnez	v0,80009394 <same_string3+0x68>
80009378:	00000000 	nop
8000937c:	8fc40018 	lw	a0,24(s8)
80009380:	8fc50024 	lw	a1,36(s8)
80009384:	0c0024b0 	jal	800092c0 <same_string>
80009388:	00000000 	nop
8000938c:	10400004 	beqz	v0,800093a0 <same_string3+0x74>
80009390:	00000000 	nop
80009394:	24020001 	li	v0,1
80009398:	10000002 	b	800093a4 <same_string3+0x78>
8000939c:	00000000 	nop
800093a0:	00001025 	move	v0,zero
800093a4:	03c0e825 	move	sp,s8
800093a8:	8fbf0014 	lw	ra,20(sp)
800093ac:	8fbe0010 	lw	s8,16(sp)
800093b0:	27bd0018 	addiu	sp,sp,24
800093b4:	03e00008 	jr	ra
800093b8:	00000000 	nop

800093bc <bad_names>:
800093bc:	27bdffd8 	addiu	sp,sp,-40
800093c0:	afbf0024 	sw	ra,36(sp)
800093c4:	afbe0020 	sw	s8,32(sp)
800093c8:	03a0f025 	move	s8,sp
800093cc:	afc40028 	sw	a0,40(s8)
800093d0:	afc5002c 	sw	a1,44(s8)
800093d4:	afc60030 	sw	a2,48(s8)
800093d8:	8f82809c 	lw	v0,-32612(gp)
800093dc:	00402025 	move	a0,v0
800093e0:	0c005b4e 	jal	80016d38 <array_num>
800093e4:	00000000 	nop
800093e8:	afc20014 	sw	v0,20(s8)
800093ec:	afc00010 	sw	zero,16(s8)
800093f0:	10000039 	b	800094d8 <bad_names+0x11c>
800093f4:	00000000 	nop
800093f8:	8f82809c 	lw	v0,-32612(gp)
800093fc:	00402025 	move	a0,v0
80009400:	8fc50010 	lw	a1,16(s8)
80009404:	0c005b59 	jal	80016d64 <array_get>
80009408:	00000000 	nop
8000940c:	afc20018 	sw	v0,24(s8)
80009410:	8fc20018 	lw	v0,24(s8)
80009414:	8c420010 	lw	v0,16(v0)
80009418:	10400015 	beqz	v0,80009470 <bad_names+0xb4>
8000941c:	00000000 	nop
80009420:	8fc20018 	lw	v0,24(s8)
80009424:	8c420010 	lw	v0,16(v0)
80009428:	8c420004 	lw	v0,4(v0)
8000942c:	8fc30018 	lw	v1,24(s8)
80009430:	8c630010 	lw	v1,16(v1)
80009434:	00602025 	move	a0,v1
80009438:	0040f809 	jalr	v0
8000943c:	00000000 	nop
80009440:	afc2001c 	sw	v0,28(s8)
80009444:	8fc4001c 	lw	a0,28(s8)
80009448:	8fc50028 	lw	a1,40(s8)
8000944c:	8fc6002c 	lw	a2,44(s8)
80009450:	8fc70030 	lw	a3,48(s8)
80009454:	0c0024cb 	jal	8000932c <same_string3>
80009458:	00000000 	nop
8000945c:	10400004 	beqz	v0,80009470 <bad_names+0xb4>
80009460:	00000000 	nop
80009464:	24020001 	li	v0,1
80009468:	10000021 	b	800094f0 <bad_names+0x134>
8000946c:	00000000 	nop
80009470:	8fc20018 	lw	v0,24(s8)
80009474:	8c420004 	lw	v0,4(v0)
80009478:	00402025 	move	a0,v0
8000947c:	8fc50028 	lw	a1,40(s8)
80009480:	8fc6002c 	lw	a2,44(s8)
80009484:	8fc70030 	lw	a3,48(s8)
80009488:	0c0024cb 	jal	8000932c <same_string3>
8000948c:	00000000 	nop
80009490:	1440000b 	bnez	v0,800094c0 <bad_names+0x104>
80009494:	00000000 	nop
80009498:	8fc20018 	lw	v0,24(s8)
8000949c:	8c420000 	lw	v0,0(v0)
800094a0:	00402025 	move	a0,v0
800094a4:	8fc50028 	lw	a1,40(s8)
800094a8:	8fc6002c 	lw	a2,44(s8)
800094ac:	8fc70030 	lw	a3,48(s8)
800094b0:	0c0024cb 	jal	8000932c <same_string3>
800094b4:	00000000 	nop
800094b8:	10400004 	beqz	v0,800094cc <bad_names+0x110>
800094bc:	00000000 	nop
800094c0:	24020001 	li	v0,1
800094c4:	1000000a 	b	800094f0 <bad_names+0x134>
800094c8:	00000000 	nop
800094cc:	8fc20010 	lw	v0,16(s8)
800094d0:	24420001 	addiu	v0,v0,1
800094d4:	afc20010 	sw	v0,16(s8)
800094d8:	8fc30010 	lw	v1,16(s8)
800094dc:	8fc20014 	lw	v0,20(s8)
800094e0:	0062102b 	sltu	v0,v1,v0
800094e4:	1440ffc4 	bnez	v0,800093f8 <bad_names+0x3c>
800094e8:	00000000 	nop
800094ec:	00001025 	move	v0,zero
800094f0:	03c0e825 	move	sp,s8
800094f4:	8fbf0024 	lw	ra,36(sp)
800094f8:	8fbe0020 	lw	s8,32(sp)
800094fc:	27bd0028 	addiu	sp,sp,40
80009500:	03e00008 	jr	ra
80009504:	00000000 	nop

80009508 <vfs_doadd>:
80009508:	27bdffc8 	addiu	sp,sp,-56
8000950c:	afbf0034 	sw	ra,52(sp)
80009510:	afbe0030 	sw	s8,48(sp)
80009514:	03a0f025 	move	s8,sp
80009518:	afc40038 	sw	a0,56(s8)
8000951c:	afc5003c 	sw	a1,60(s8)
80009520:	afc60040 	sw	a2,64(s8)
80009524:	afc70044 	sw	a3,68(s8)
80009528:	afc00020 	sw	zero,32(s8)
8000952c:	afc00010 	sw	zero,16(s8)
80009530:	afc00014 	sw	zero,20(s8)
80009534:	afc00018 	sw	zero,24(s8)
80009538:	afc0001c 	sw	zero,28(s8)
8000953c:	8fc40038 	lw	a0,56(s8)
80009540:	0c005edc 	jal	80017b70 <kernel_strdup>
80009544:	00000000 	nop
80009548:	afc20020 	sw	v0,32(s8)
8000954c:	8fc20020 	lw	v0,32(s8)
80009550:	14400003 	bnez	v0,80009560 <vfs_doadd+0x58>
80009554:	00000000 	nop
80009558:	10000056 	b	800096b4 <vfs_doadd+0x1ac>
8000955c:	00000000 	nop
80009560:	8fc2003c 	lw	v0,60(s8)
80009564:	1040000a 	beqz	v0,80009590 <vfs_doadd+0x88>
80009568:	00000000 	nop
8000956c:	8fc40020 	lw	a0,32(s8)
80009570:	0c00248d 	jal	80009234 <mk_raw_name>
80009574:	00000000 	nop
80009578:	afc20010 	sw	v0,16(s8)
8000957c:	8fc20010 	lw	v0,16(s8)
80009580:	14400003 	bnez	v0,80009590 <vfs_doadd+0x88>
80009584:	00000000 	nop
80009588:	1000004a 	b	800096b4 <vfs_doadd+0x1ac>
8000958c:	00000000 	nop
80009590:	8fc40040 	lw	a0,64(s8)
80009594:	0c002377 	jal	80008ddc <dev_create_vnode>
80009598:	00000000 	nop
8000959c:	afc20018 	sw	v0,24(s8)
800095a0:	8fc20018 	lw	v0,24(s8)
800095a4:	14400003 	bnez	v0,800095b4 <vfs_doadd+0xac>
800095a8:	00000000 	nop
800095ac:	10000041 	b	800096b4 <vfs_doadd+0x1ac>
800095b0:	00000000 	nop
800095b4:	24040014 	li	a0,20
800095b8:	0c003abb 	jal	8000eaec <kmalloc>
800095bc:	00000000 	nop
800095c0:	afc20014 	sw	v0,20(s8)
800095c4:	8fc20014 	lw	v0,20(s8)
800095c8:	14400003 	bnez	v0,800095d8 <vfs_doadd+0xd0>
800095cc:	00000000 	nop
800095d0:	10000038 	b	800096b4 <vfs_doadd+0x1ac>
800095d4:	00000000 	nop
800095d8:	8fc20014 	lw	v0,20(s8)
800095dc:	8fc30020 	lw	v1,32(s8)
800095e0:	ac430000 	sw	v1,0(v0)
800095e4:	8fc20014 	lw	v0,20(s8)
800095e8:	8fc30010 	lw	v1,16(s8)
800095ec:	ac430004 	sw	v1,4(v0)
800095f0:	8fc20014 	lw	v0,20(s8)
800095f4:	8fc30040 	lw	v1,64(s8)
800095f8:	ac430008 	sw	v1,8(v0)
800095fc:	8fc20014 	lw	v0,20(s8)
80009600:	8fc30018 	lw	v1,24(s8)
80009604:	ac43000c 	sw	v1,12(v0)
80009608:	8fc20014 	lw	v0,20(s8)
8000960c:	8fc30044 	lw	v1,68(s8)
80009610:	ac430010 	sw	v1,16(v0)
80009614:	8fc20044 	lw	v0,68(s8)
80009618:	10400007 	beqz	v0,80009638 <vfs_doadd+0x130>
8000961c:	00000000 	nop
80009620:	8fc20044 	lw	v0,68(s8)
80009624:	8c420004 	lw	v0,4(v0)
80009628:	8fc40044 	lw	a0,68(s8)
8000962c:	0040f809 	jalr	v0
80009630:	00000000 	nop
80009634:	afc2001c 	sw	v0,28(s8)
80009638:	8fc40020 	lw	a0,32(s8)
8000963c:	8fc50010 	lw	a1,16(s8)
80009640:	8fc6001c 	lw	a2,28(s8)
80009644:	0c0024ef 	jal	800093bc <bad_names>
80009648:	00000000 	nop
8000964c:	10400004 	beqz	v0,80009660 <vfs_doadd+0x158>
80009650:	00000000 	nop
80009654:	24020016 	li	v0,22
80009658:	1000002f 	b	80009718 <vfs_doadd+0x210>
8000965c:	00000000 	nop
80009660:	8f83809c 	lw	v1,-32612(gp)
80009664:	27c20028 	addiu	v0,s8,40
80009668:	00602025 	move	a0,v1
8000966c:	8fc50014 	lw	a1,20(s8)
80009670:	00403025 	move	a2,v0
80009674:	0c005bd3 	jal	80016f4c <array_add>
80009678:	00000000 	nop
8000967c:	afc20024 	sw	v0,36(s8)
80009680:	8fc20024 	lw	v0,36(s8)
80009684:	14400008 	bnez	v0,800096a8 <vfs_doadd+0x1a0>
80009688:	00000000 	nop
8000968c:	8fc20040 	lw	v0,64(s8)
80009690:	10400005 	beqz	v0,800096a8 <vfs_doadd+0x1a0>
80009694:	00000000 	nop
80009698:	8fc20028 	lw	v0,40(s8)
8000969c:	24430001 	addiu	v1,v0,1
800096a0:	8fc20040 	lw	v0,64(s8)
800096a4:	ac43000c 	sw	v1,12(v0)
800096a8:	8fc20024 	lw	v0,36(s8)
800096ac:	1000001a 	b	80009718 <vfs_doadd+0x210>
800096b0:	00000000 	nop
800096b4:	8fc20020 	lw	v0,32(s8)
800096b8:	10400004 	beqz	v0,800096cc <vfs_doadd+0x1c4>
800096bc:	00000000 	nop
800096c0:	8fc40020 	lw	a0,32(s8)
800096c4:	0c003b13 	jal	8000ec4c <kfree>
800096c8:	00000000 	nop
800096cc:	8fc20010 	lw	v0,16(s8)
800096d0:	10400004 	beqz	v0,800096e4 <vfs_doadd+0x1dc>
800096d4:	00000000 	nop
800096d8:	8fc40010 	lw	a0,16(s8)
800096dc:	0c003b13 	jal	8000ec4c <kfree>
800096e0:	00000000 	nop
800096e4:	8fc20018 	lw	v0,24(s8)
800096e8:	10400004 	beqz	v0,800096fc <vfs_doadd+0x1f4>
800096ec:	00000000 	nop
800096f0:	8fc40018 	lw	a0,24(s8)
800096f4:	0c003b13 	jal	8000ec4c <kfree>
800096f8:	00000000 	nop
800096fc:	8fc20014 	lw	v0,20(s8)
80009700:	10400004 	beqz	v0,80009714 <vfs_doadd+0x20c>
80009704:	00000000 	nop
80009708:	8fc40014 	lw	a0,20(s8)
8000970c:	0c003b13 	jal	8000ec4c <kfree>
80009710:	00000000 	nop
80009714:	24020003 	li	v0,3
80009718:	03c0e825 	move	sp,s8
8000971c:	8fbf0034 	lw	ra,52(sp)
80009720:	8fbe0030 	lw	s8,48(sp)
80009724:	27bd0038 	addiu	sp,sp,56
80009728:	03e00008 	jr	ra
8000972c:	00000000 	nop

80009730 <vfs_adddev>:
80009730:	27bdffe8 	addiu	sp,sp,-24
80009734:	afbf0014 	sw	ra,20(sp)
80009738:	afbe0010 	sw	s8,16(sp)
8000973c:	03a0f025 	move	s8,sp
80009740:	afc40018 	sw	a0,24(s8)
80009744:	afc5001c 	sw	a1,28(s8)
80009748:	afc60020 	sw	a2,32(s8)
8000974c:	8fc40018 	lw	a0,24(s8)
80009750:	8fc50020 	lw	a1,32(s8)
80009754:	8fc6001c 	lw	a2,28(s8)
80009758:	00003825 	move	a3,zero
8000975c:	0c002542 	jal	80009508 <vfs_doadd>
80009760:	00000000 	nop
80009764:	03c0e825 	move	sp,s8
80009768:	8fbf0014 	lw	ra,20(sp)
8000976c:	8fbe0010 	lw	s8,16(sp)
80009770:	27bd0018 	addiu	sp,sp,24
80009774:	03e00008 	jr	ra
80009778:	00000000 	nop

8000977c <vfs_addfs>:
8000977c:	27bdffe8 	addiu	sp,sp,-24
80009780:	afbf0014 	sw	ra,20(sp)
80009784:	afbe0010 	sw	s8,16(sp)
80009788:	03a0f025 	move	s8,sp
8000978c:	afc40018 	sw	a0,24(s8)
80009790:	afc5001c 	sw	a1,28(s8)
80009794:	8fc40018 	lw	a0,24(s8)
80009798:	00002825 	move	a1,zero
8000979c:	00003025 	move	a2,zero
800097a0:	8fc7001c 	lw	a3,28(s8)
800097a4:	0c002542 	jal	80009508 <vfs_doadd>
800097a8:	00000000 	nop
800097ac:	03c0e825 	move	sp,s8
800097b0:	8fbf0014 	lw	ra,20(sp)
800097b4:	8fbe0010 	lw	s8,16(sp)
800097b8:	27bd0018 	addiu	sp,sp,24
800097bc:	03e00008 	jr	ra
800097c0:	00000000 	nop

800097c4 <vfs_getroot>:
800097c4:	27bdffd8 	addiu	sp,sp,-40
800097c8:	afbf0024 	sw	ra,36(sp)
800097cc:	afbe0020 	sw	s8,32(sp)
800097d0:	03a0f025 	move	s8,sp
800097d4:	afc40028 	sw	a0,40(s8)
800097d8:	afc5002c 	sw	a1,44(s8)
800097dc:	00c01025 	move	v0,a2
800097e0:	a3c20030 	sb	v0,48(s8)
800097e4:	8f82809c 	lw	v0,-32612(gp)
800097e8:	00402025 	move	a0,v0
800097ec:	0c005b4e 	jal	80016d38 <array_num>
800097f0:	00000000 	nop
800097f4:	afc20014 	sw	v0,20(s8)
800097f8:	afc00010 	sw	zero,16(s8)
800097fc:	100000b3 	b	80009acc <vfs_getroot+0x308>
80009800:	00000000 	nop
80009804:	8f82809c 	lw	v0,-32612(gp)
80009808:	00402025 	move	a0,v0
8000980c:	8fc50010 	lw	a1,16(s8)
80009810:	0c005b59 	jal	80016d64 <array_get>
80009814:	00000000 	nop
80009818:	afc20018 	sw	v0,24(s8)
8000981c:	8fc20018 	lw	v0,24(s8)
80009820:	8c420010 	lw	v0,16(v0)
80009824:	1040003f 	beqz	v0,80009924 <vfs_getroot+0x160>
80009828:	00000000 	nop
8000982c:	3c028002 	lui	v0,0x8002
80009830:	24448170 	addiu	a0,v0,-32400
80009834:	0c000aaa 	jal	80002aa8 <kernel_printf>
80009838:	00000000 	nop
8000983c:	8fc20018 	lw	v0,24(s8)
80009840:	8c420010 	lw	v0,16(v0)
80009844:	8c420004 	lw	v0,4(v0)
80009848:	8fc30018 	lw	v1,24(s8)
8000984c:	8c630010 	lw	v1,16(v1)
80009850:	00602025 	move	a0,v1
80009854:	0040f809 	jalr	v0
80009858:	00000000 	nop
8000985c:	afc2001c 	sw	v0,28(s8)
80009860:	8fc20018 	lw	v0,24(s8)
80009864:	8c420000 	lw	v0,0(v0)
80009868:	00402025 	move	a0,v0
8000986c:	8fc50028 	lw	a1,40(s8)
80009870:	0c005e4f 	jal	8001793c <kernel_strcmp>
80009874:	00000000 	nop
80009878:	1040000a 	beqz	v0,800098a4 <vfs_getroot+0xe0>
8000987c:	00000000 	nop
80009880:	8fc2001c 	lw	v0,28(s8)
80009884:	10400025 	beqz	v0,8000991c <vfs_getroot+0x158>
80009888:	00000000 	nop
8000988c:	8fc4001c 	lw	a0,28(s8)
80009890:	8fc50028 	lw	a1,40(s8)
80009894:	0c005e4f 	jal	8001793c <kernel_strcmp>
80009898:	00000000 	nop
8000989c:	1440001f 	bnez	v0,8000991c <vfs_getroot+0x158>
800098a0:	00000000 	nop
800098a4:	93c20030 	lbu	v0,48(s8)
800098a8:	1040000e 	beqz	v0,800098e4 <vfs_getroot+0x120>
800098ac:	00000000 	nop
800098b0:	8fc20018 	lw	v0,24(s8)
800098b4:	8c420010 	lw	v0,16(v0)
800098b8:	8c42000c 	lw	v0,12(v0)
800098bc:	8fc30018 	lw	v1,24(s8)
800098c0:	8c630010 	lw	v1,16(v1)
800098c4:	00602025 	move	a0,v1
800098c8:	0040f809 	jalr	v0
800098cc:	00000000 	nop
800098d0:	00401825 	move	v1,v0
800098d4:	8fc2002c 	lw	v0,44(s8)
800098d8:	ac430000 	sw	v1,0(v0)
800098dc:	1000000c 	b	80009910 <vfs_getroot+0x14c>
800098e0:	00000000 	nop
800098e4:	8fc20018 	lw	v0,24(s8)
800098e8:	8c420010 	lw	v0,16(v0)
800098ec:	8c420008 	lw	v0,8(v0)
800098f0:	8fc30018 	lw	v1,24(s8)
800098f4:	8c630010 	lw	v1,16(v1)
800098f8:	00602025 	move	a0,v1
800098fc:	0040f809 	jalr	v0
80009900:	00000000 	nop
80009904:	00401825 	move	v1,v0
80009908:	8fc2002c 	lw	v0,44(s8)
8000990c:	ac430000 	sw	v1,0(v0)
80009910:	00001025 	move	v0,zero
80009914:	10000073 	b	80009ae4 <vfs_getroot+0x320>
80009918:	00000000 	nop
8000991c:	10000010 	b	80009960 <vfs_getroot+0x19c>
80009920:	00000000 	nop
80009924:	8fc20018 	lw	v0,24(s8)
80009928:	8c420004 	lw	v0,4(v0)
8000992c:	1040000c 	beqz	v0,80009960 <vfs_getroot+0x19c>
80009930:	00000000 	nop
80009934:	8fc20018 	lw	v0,24(s8)
80009938:	8c420000 	lw	v0,0(v0)
8000993c:	00402025 	move	a0,v0
80009940:	8fc50028 	lw	a1,40(s8)
80009944:	0c005e4f 	jal	8001793c <kernel_strcmp>
80009948:	00000000 	nop
8000994c:	14400004 	bnez	v0,80009960 <vfs_getroot+0x19c>
80009950:	00000000 	nop
80009954:	2402001a 	li	v0,26
80009958:	10000062 	b	80009ae4 <vfs_getroot+0x320>
8000995c:	00000000 	nop
80009960:	3c028002 	lui	v0,0x8002
80009964:	24448190 	addiu	a0,v0,-32368
80009968:	0c000aaa 	jal	80002aa8 <kernel_printf>
8000996c:	00000000 	nop
80009970:	8fc20018 	lw	v0,24(s8)
80009974:	8c420000 	lw	v0,0(v0)
80009978:	00402025 	move	a0,v0
8000997c:	8fc50028 	lw	a1,40(s8)
80009980:	0c005e4f 	jal	8001793c <kernel_strcmp>
80009984:	00000000 	nop
80009988:	1440002b 	bnez	v0,80009a38 <vfs_getroot+0x274>
8000998c:	00000000 	nop
80009990:	8fc20018 	lw	v0,24(s8)
80009994:	8c420010 	lw	v0,16(v0)
80009998:	10400007 	beqz	v0,800099b8 <vfs_getroot+0x1f4>
8000999c:	00000000 	nop
800099a0:	3c028002 	lui	v0,0x8002
800099a4:	244481bc 	addiu	a0,v0,-32324
800099a8:	3c028002 	lui	v0,0x8002
800099ac:	244581d0 	addiu	a1,v0,-32304
800099b0:	0c005c3f 	jal	800170fc <badassert>
800099b4:	00000000 	nop
800099b8:	8fc20018 	lw	v0,24(s8)
800099bc:	8c420004 	lw	v0,4(v0)
800099c0:	10400007 	beqz	v0,800099e0 <vfs_getroot+0x21c>
800099c4:	00000000 	nop
800099c8:	3c028002 	lui	v0,0x8002
800099cc:	244481f0 	addiu	a0,v0,-32272
800099d0:	3c028002 	lui	v0,0x8002
800099d4:	24458208 	addiu	a1,v0,-32248
800099d8:	0c005c3f 	jal	800170fc <badassert>
800099dc:	00000000 	nop
800099e0:	8fc20018 	lw	v0,24(s8)
800099e4:	8c420008 	lw	v0,8(v0)
800099e8:	14400007 	bnez	v0,80009a08 <vfs_getroot+0x244>
800099ec:	00000000 	nop
800099f0:	3c028002 	lui	v0,0x8002
800099f4:	24448224 	addiu	a0,v0,-32220
800099f8:	3c028002 	lui	v0,0x8002
800099fc:	2445823c 	addiu	a1,v0,-32196
80009a00:	0c005c3f 	jal	800170fc <badassert>
80009a04:	00000000 	nop
80009a08:	8fc20018 	lw	v0,24(s8)
80009a0c:	8c42000c 	lw	v0,12(v0)
80009a10:	00402025 	move	a0,v0
80009a14:	0c002cf4 	jal	8000b3d0 <vnode_incref>
80009a18:	00000000 	nop
80009a1c:	8fc20018 	lw	v0,24(s8)
80009a20:	8c43000c 	lw	v1,12(v0)
80009a24:	8fc2002c 	lw	v0,44(s8)
80009a28:	ac430000 	sw	v1,0(v0)
80009a2c:	00001025 	move	v0,zero
80009a30:	1000002c 	b	80009ae4 <vfs_getroot+0x320>
80009a34:	00000000 	nop
80009a38:	8fc20018 	lw	v0,24(s8)
80009a3c:	8c420004 	lw	v0,4(v0)
80009a40:	1040001f 	beqz	v0,80009ac0 <vfs_getroot+0x2fc>
80009a44:	00000000 	nop
80009a48:	8fc20018 	lw	v0,24(s8)
80009a4c:	8c420004 	lw	v0,4(v0)
80009a50:	00402025 	move	a0,v0
80009a54:	8fc50028 	lw	a1,40(s8)
80009a58:	0c005e4f 	jal	8001793c <kernel_strcmp>
80009a5c:	00000000 	nop
80009a60:	14400017 	bnez	v0,80009ac0 <vfs_getroot+0x2fc>
80009a64:	00000000 	nop
80009a68:	8fc20018 	lw	v0,24(s8)
80009a6c:	8c420008 	lw	v0,8(v0)
80009a70:	14400007 	bnez	v0,80009a90 <vfs_getroot+0x2cc>
80009a74:	00000000 	nop
80009a78:	3c028002 	lui	v0,0x8002
80009a7c:	24448224 	addiu	a0,v0,-32220
80009a80:	3c028002 	lui	v0,0x8002
80009a84:	2445823c 	addiu	a1,v0,-32196
80009a88:	0c005c3f 	jal	800170fc <badassert>
80009a8c:	00000000 	nop
80009a90:	8fc20018 	lw	v0,24(s8)
80009a94:	8c42000c 	lw	v0,12(v0)
80009a98:	00402025 	move	a0,v0
80009a9c:	0c002cf4 	jal	8000b3d0 <vnode_incref>
80009aa0:	00000000 	nop
80009aa4:	8fc20018 	lw	v0,24(s8)
80009aa8:	8c43000c 	lw	v1,12(v0)
80009aac:	8fc2002c 	lw	v0,44(s8)
80009ab0:	ac430000 	sw	v1,0(v0)
80009ab4:	00001025 	move	v0,zero
80009ab8:	1000000a 	b	80009ae4 <vfs_getroot+0x320>
80009abc:	00000000 	nop
80009ac0:	8fc20010 	lw	v0,16(s8)
80009ac4:	24420001 	addiu	v0,v0,1
80009ac8:	afc20010 	sw	v0,16(s8)
80009acc:	8fc30010 	lw	v1,16(s8)
80009ad0:	8fc20014 	lw	v0,20(s8)
80009ad4:	0062102b 	sltu	v0,v1,v0
80009ad8:	1440ff4a 	bnez	v0,80009804 <vfs_getroot+0x40>
80009adc:	00000000 	nop
80009ae0:	24020019 	li	v0,25
80009ae4:	03c0e825 	move	sp,s8
80009ae8:	8fbf0024 	lw	ra,36(sp)
80009aec:	8fbe0020 	lw	s8,32(sp)
80009af0:	27bd0028 	addiu	sp,sp,40
80009af4:	03e00008 	jr	ra
80009af8:	00000000 	nop

80009afc <findmount>:
80009afc:	27bdffd8 	addiu	sp,sp,-40
80009b00:	afbf0024 	sw	ra,36(sp)
80009b04:	afbe0020 	sw	s8,32(sp)
80009b08:	03a0f025 	move	s8,sp
80009b0c:	afc40028 	sw	a0,40(s8)
80009b10:	afc5002c 	sw	a1,44(s8)
80009b14:	a3c00014 	sb	zero,20(s8)
80009b18:	8f82809c 	lw	v0,-32612(gp)
80009b1c:	00402025 	move	a0,v0
80009b20:	0c005b4e 	jal	80016d38 <array_num>
80009b24:	00000000 	nop
80009b28:	afc20018 	sw	v0,24(s8)
80009b2c:	afc00010 	sw	zero,16(s8)
80009b30:	1000001d 	b	80009ba8 <findmount+0xac>
80009b34:	00000000 	nop
80009b38:	8f82809c 	lw	v0,-32612(gp)
80009b3c:	00402025 	move	a0,v0
80009b40:	8fc50010 	lw	a1,16(s8)
80009b44:	0c005b59 	jal	80016d64 <array_get>
80009b48:	00000000 	nop
80009b4c:	afc2001c 	sw	v0,28(s8)
80009b50:	8fc2001c 	lw	v0,28(s8)
80009b54:	8c420004 	lw	v0,4(v0)
80009b58:	14400003 	bnez	v0,80009b68 <findmount+0x6c>
80009b5c:	00000000 	nop
80009b60:	1000000e 	b	80009b9c <findmount+0xa0>
80009b64:	00000000 	nop
80009b68:	8fc2001c 	lw	v0,28(s8)
80009b6c:	8c420000 	lw	v0,0(v0)
80009b70:	8fc40028 	lw	a0,40(s8)
80009b74:	00402825 	move	a1,v0
80009b78:	0c005e4f 	jal	8001793c <kernel_strcmp>
80009b7c:	00000000 	nop
80009b80:	14400006 	bnez	v0,80009b9c <findmount+0xa0>
80009b84:	00000000 	nop
80009b88:	8fc2002c 	lw	v0,44(s8)
80009b8c:	8fc3001c 	lw	v1,28(s8)
80009b90:	ac430000 	sw	v1,0(v0)
80009b94:	24020001 	li	v0,1
80009b98:	a3c20014 	sb	v0,20(s8)
80009b9c:	8fc20010 	lw	v0,16(s8)
80009ba0:	24420001 	addiu	v0,v0,1
80009ba4:	afc20010 	sw	v0,16(s8)
80009ba8:	93c20014 	lbu	v0,20(s8)
80009bac:	38420001 	xori	v0,v0,0x1
80009bb0:	304200ff 	andi	v0,v0,0xff
80009bb4:	10400006 	beqz	v0,80009bd0 <findmount+0xd4>
80009bb8:	00000000 	nop
80009bbc:	8fc30010 	lw	v1,16(s8)
80009bc0:	8fc20018 	lw	v0,24(s8)
80009bc4:	0062102b 	sltu	v0,v1,v0
80009bc8:	1440ffdb 	bnez	v0,80009b38 <findmount+0x3c>
80009bcc:	00000000 	nop
80009bd0:	93c20014 	lbu	v0,20(s8)
80009bd4:	10400004 	beqz	v0,80009be8 <findmount+0xec>
80009bd8:	00000000 	nop
80009bdc:	00001025 	move	v0,zero
80009be0:	10000002 	b	80009bec <findmount+0xf0>
80009be4:	00000000 	nop
80009be8:	24020019 	li	v0,25
80009bec:	03c0e825 	move	sp,s8
80009bf0:	8fbf0024 	lw	ra,36(sp)
80009bf4:	8fbe0020 	lw	s8,32(sp)
80009bf8:	27bd0028 	addiu	sp,sp,40
80009bfc:	03e00008 	jr	ra
80009c00:	00000000 	nop

80009c04 <vfs_mount>:
80009c04:	27bdffd8 	addiu	sp,sp,-40
80009c08:	afbf0024 	sw	ra,36(sp)
80009c0c:	afbe0020 	sw	s8,32(sp)
80009c10:	03a0f025 	move	s8,sp
80009c14:	afc40028 	sw	a0,40(s8)
80009c18:	afc5002c 	sw	a1,44(s8)
80009c1c:	afc60030 	sw	a2,48(s8)
80009c20:	27c20018 	addiu	v0,s8,24
80009c24:	8fc40028 	lw	a0,40(s8)
80009c28:	00402825 	move	a1,v0
80009c2c:	0c0026bf 	jal	80009afc <findmount>
80009c30:	00000000 	nop
80009c34:	afc20010 	sw	v0,16(s8)
80009c38:	8fc20010 	lw	v0,16(s8)
80009c3c:	10400004 	beqz	v0,80009c50 <vfs_mount+0x4c>
80009c40:	00000000 	nop
80009c44:	8fc20010 	lw	v0,16(s8)
80009c48:	1000004e 	b	80009d84 <vfs_mount+0x180>
80009c4c:	00000000 	nop
80009c50:	8fc20018 	lw	v0,24(s8)
80009c54:	8c420010 	lw	v0,16(v0)
80009c58:	10400004 	beqz	v0,80009c6c <vfs_mount+0x68>
80009c5c:	00000000 	nop
80009c60:	2402001b 	li	v0,27
80009c64:	10000047 	b	80009d84 <vfs_mount+0x180>
80009c68:	00000000 	nop
80009c6c:	8fc20018 	lw	v0,24(s8)
80009c70:	8c420004 	lw	v0,4(v0)
80009c74:	14400007 	bnez	v0,80009c94 <vfs_mount+0x90>
80009c78:	00000000 	nop
80009c7c:	3c028002 	lui	v0,0x8002
80009c80:	24448250 	addiu	a0,v0,-32176
80009c84:	3c028002 	lui	v0,0x8002
80009c88:	24458268 	addiu	a1,v0,-32152
80009c8c:	0c005c3f 	jal	800170fc <badassert>
80009c90:	00000000 	nop
80009c94:	8fc20018 	lw	v0,24(s8)
80009c98:	8c420008 	lw	v0,8(v0)
80009c9c:	14400007 	bnez	v0,80009cbc <vfs_mount+0xb8>
80009ca0:	00000000 	nop
80009ca4:	3c028002 	lui	v0,0x8002
80009ca8:	24448224 	addiu	a0,v0,-32220
80009cac:	3c028002 	lui	v0,0x8002
80009cb0:	24458284 	addiu	a1,v0,-32124
80009cb4:	0c005c3f 	jal	800170fc <badassert>
80009cb8:	00000000 	nop
80009cbc:	8fc20018 	lw	v0,24(s8)
80009cc0:	8c450008 	lw	a1,8(v0)
80009cc4:	27c3001c 	addiu	v1,s8,28
80009cc8:	8fc20030 	lw	v0,48(s8)
80009ccc:	8fc4002c 	lw	a0,44(s8)
80009cd0:	00603025 	move	a2,v1
80009cd4:	0040f809 	jalr	v0
80009cd8:	00000000 	nop
80009cdc:	afc20010 	sw	v0,16(s8)
80009ce0:	8fc20010 	lw	v0,16(s8)
80009ce4:	10400004 	beqz	v0,80009cf8 <vfs_mount+0xf4>
80009ce8:	00000000 	nop
80009cec:	8fc20010 	lw	v0,16(s8)
80009cf0:	10000024 	b	80009d84 <vfs_mount+0x180>
80009cf4:	00000000 	nop
80009cf8:	8fc2001c 	lw	v0,28(s8)
80009cfc:	14400007 	bnez	v0,80009d1c <vfs_mount+0x118>
80009d00:	00000000 	nop
80009d04:	3c028002 	lui	v0,0x8002
80009d08:	244482a0 	addiu	a0,v0,-32096
80009d0c:	3c028002 	lui	v0,0x8002
80009d10:	244582ac 	addiu	a1,v0,-32084
80009d14:	0c005c3f 	jal	800170fc <badassert>
80009d18:	00000000 	nop
80009d1c:	8fc20018 	lw	v0,24(s8)
80009d20:	8fc3001c 	lw	v1,28(s8)
80009d24:	ac430010 	sw	v1,16(v0)
80009d28:	8fc2001c 	lw	v0,28(s8)
80009d2c:	8c420004 	lw	v0,4(v0)
80009d30:	8fc3001c 	lw	v1,28(s8)
80009d34:	00602025 	move	a0,v1
80009d38:	0040f809 	jalr	v0
80009d3c:	00000000 	nop
80009d40:	afc20014 	sw	v0,20(s8)
80009d44:	8fc20014 	lw	v0,20(s8)
80009d48:	14400005 	bnez	v0,80009d60 <vfs_mount+0x15c>
80009d4c:	00000000 	nop
80009d50:	8fc20018 	lw	v0,24(s8)
80009d54:	8c420000 	lw	v0,0(v0)
80009d58:	10000002 	b	80009d64 <vfs_mount+0x160>
80009d5c:	00000000 	nop
80009d60:	8fc20014 	lw	v0,20(s8)
80009d64:	8fc30018 	lw	v1,24(s8)
80009d68:	8c660000 	lw	a2,0(v1)
80009d6c:	3c038002 	lui	v1,0x8002
80009d70:	246482c8 	addiu	a0,v1,-32056
80009d74:	00402825 	move	a1,v0
80009d78:	0c000aaa 	jal	80002aa8 <kernel_printf>
80009d7c:	00000000 	nop
80009d80:	00001025 	move	v0,zero
80009d84:	03c0e825 	move	sp,s8
80009d88:	8fbf0024 	lw	ra,36(sp)
80009d8c:	8fbe0020 	lw	s8,32(sp)
80009d90:	27bd0028 	addiu	sp,sp,40
80009d94:	03e00008 	jr	ra
80009d98:	00000000 	nop

80009d9c <vfs_unmount>:
80009d9c:	27bdffe0 	addiu	sp,sp,-32
80009da0:	afbf001c 	sw	ra,28(sp)
80009da4:	afbe0018 	sw	s8,24(sp)
80009da8:	03a0f025 	move	s8,sp
80009dac:	afc40020 	sw	a0,32(s8)
80009db0:	27c20014 	addiu	v0,s8,20
80009db4:	8fc40020 	lw	a0,32(s8)
80009db8:	00402825 	move	a1,v0
80009dbc:	0c0026bf 	jal	80009afc <findmount>
80009dc0:	00000000 	nop
80009dc4:	afc20010 	sw	v0,16(s8)
80009dc8:	8fc20010 	lw	v0,16(s8)
80009dcc:	10400003 	beqz	v0,80009ddc <vfs_unmount+0x40>
80009dd0:	00000000 	nop
80009dd4:	1000004b 	b	80009f04 <vfs_unmount+0x168>
80009dd8:	00000000 	nop
80009ddc:	8fc20014 	lw	v0,20(s8)
80009de0:	8c420010 	lw	v0,16(v0)
80009de4:	14400005 	bnez	v0,80009dfc <vfs_unmount+0x60>
80009de8:	00000000 	nop
80009dec:	24020008 	li	v0,8
80009df0:	afc20010 	sw	v0,16(s8)
80009df4:	10000043 	b	80009f04 <vfs_unmount+0x168>
80009df8:	00000000 	nop
80009dfc:	8fc20014 	lw	v0,20(s8)
80009e00:	8c420004 	lw	v0,4(v0)
80009e04:	14400007 	bnez	v0,80009e24 <vfs_unmount+0x88>
80009e08:	00000000 	nop
80009e0c:	3c028002 	lui	v0,0x8002
80009e10:	24448250 	addiu	a0,v0,-32176
80009e14:	3c028002 	lui	v0,0x8002
80009e18:	24458268 	addiu	a1,v0,-32152
80009e1c:	0c005c3f 	jal	800170fc <badassert>
80009e20:	00000000 	nop
80009e24:	8fc20014 	lw	v0,20(s8)
80009e28:	8c420008 	lw	v0,8(v0)
80009e2c:	14400007 	bnez	v0,80009e4c <vfs_unmount+0xb0>
80009e30:	00000000 	nop
80009e34:	3c028002 	lui	v0,0x8002
80009e38:	24448224 	addiu	a0,v0,-32220
80009e3c:	3c028002 	lui	v0,0x8002
80009e40:	244582e0 	addiu	a1,v0,-32032
80009e44:	0c005c3f 	jal	800170fc <badassert>
80009e48:	00000000 	nop
80009e4c:	8fc20014 	lw	v0,20(s8)
80009e50:	8c420010 	lw	v0,16(v0)
80009e54:	8c420000 	lw	v0,0(v0)
80009e58:	8fc30014 	lw	v1,20(s8)
80009e5c:	8c630010 	lw	v1,16(v1)
80009e60:	00602025 	move	a0,v1
80009e64:	0040f809 	jalr	v0
80009e68:	00000000 	nop
80009e6c:	afc20010 	sw	v0,16(s8)
80009e70:	8fc20010 	lw	v0,16(s8)
80009e74:	10400003 	beqz	v0,80009e84 <vfs_unmount+0xe8>
80009e78:	00000000 	nop
80009e7c:	10000021 	b	80009f04 <vfs_unmount+0x168>
80009e80:	00000000 	nop
80009e84:	8fc20014 	lw	v0,20(s8)
80009e88:	8c420010 	lw	v0,16(v0)
80009e8c:	8c420010 	lw	v0,16(v0)
80009e90:	8fc30014 	lw	v1,20(s8)
80009e94:	8c630010 	lw	v1,16(v1)
80009e98:	00602025 	move	a0,v1
80009e9c:	0040f809 	jalr	v0
80009ea0:	00000000 	nop
80009ea4:	afc20010 	sw	v0,16(s8)
80009ea8:	8fc20010 	lw	v0,16(s8)
80009eac:	10400003 	beqz	v0,80009ebc <vfs_unmount+0x120>
80009eb0:	00000000 	nop
80009eb4:	10000013 	b	80009f04 <vfs_unmount+0x168>
80009eb8:	00000000 	nop
80009ebc:	8fc20014 	lw	v0,20(s8)
80009ec0:	8c430000 	lw	v1,0(v0)
80009ec4:	3c028002 	lui	v0,0x8002
80009ec8:	244482fc 	addiu	a0,v0,-32004
80009ecc:	00602825 	move	a1,v1
80009ed0:	0c000aaa 	jal	80002aa8 <kernel_printf>
80009ed4:	00000000 	nop
80009ed8:	8fc20014 	lw	v0,20(s8)
80009edc:	ac400010 	sw	zero,16(v0)
80009ee0:	8fc20010 	lw	v0,16(s8)
80009ee4:	10400007 	beqz	v0,80009f04 <vfs_unmount+0x168>
80009ee8:	00000000 	nop
80009eec:	3c028002 	lui	v0,0x8002
80009ef0:	24448310 	addiu	a0,v0,-31984
80009ef4:	3c028002 	lui	v0,0x8002
80009ef8:	2445831c 	addiu	a1,v0,-31972
80009efc:	0c005c3f 	jal	800170fc <badassert>
80009f00:	00000000 	nop
80009f04:	8fc20010 	lw	v0,16(s8)
80009f08:	03c0e825 	move	sp,s8
80009f0c:	8fbf001c 	lw	ra,28(sp)
80009f10:	8fbe0018 	lw	s8,24(sp)
80009f14:	27bd0020 	addiu	sp,sp,32
80009f18:	03e00008 	jr	ra
80009f1c:	00000000 	nop

80009f20 <vfs_unmountall>:
80009f20:	27bdffd0 	addiu	sp,sp,-48
80009f24:	afbf002c 	sw	ra,44(sp)
80009f28:	afbe0028 	sw	s8,40(sp)
80009f2c:	afb00024 	sw	s0,36(sp)
80009f30:	03a0f025 	move	s8,sp
80009f34:	8f82809c 	lw	v0,-32612(gp)
80009f38:	00402025 	move	a0,v0
80009f3c:	0c005b4e 	jal	80016d38 <array_num>
80009f40:	00000000 	nop
80009f44:	afc20014 	sw	v0,20(s8)
80009f48:	afc00010 	sw	zero,16(s8)
80009f4c:	10000078 	b	8000a130 <vfs_unmountall+0x210>
80009f50:	00000000 	nop
80009f54:	8f82809c 	lw	v0,-32612(gp)
80009f58:	00402025 	move	a0,v0
80009f5c:	8fc50010 	lw	a1,16(s8)
80009f60:	0c005b59 	jal	80016d64 <array_get>
80009f64:	00000000 	nop
80009f68:	afc20018 	sw	v0,24(s8)
80009f6c:	8fc20018 	lw	v0,24(s8)
80009f70:	8c420004 	lw	v0,4(v0)
80009f74:	14400003 	bnez	v0,80009f84 <vfs_unmountall+0x64>
80009f78:	00000000 	nop
80009f7c:	10000069 	b	8000a124 <vfs_unmountall+0x204>
80009f80:	00000000 	nop
80009f84:	8fc20018 	lw	v0,24(s8)
80009f88:	8c420010 	lw	v0,16(v0)
80009f8c:	14400003 	bnez	v0,80009f9c <vfs_unmountall+0x7c>
80009f90:	00000000 	nop
80009f94:	10000063 	b	8000a124 <vfs_unmountall+0x204>
80009f98:	00000000 	nop
80009f9c:	8fc20018 	lw	v0,24(s8)
80009fa0:	8c430000 	lw	v1,0(v0)
80009fa4:	3c028002 	lui	v0,0x8002
80009fa8:	2444832c 	addiu	a0,v0,-31956
80009fac:	00602825 	move	a1,v1
80009fb0:	0c000aaa 	jal	80002aa8 <kernel_printf>
80009fb4:	00000000 	nop
80009fb8:	8fc20018 	lw	v0,24(s8)
80009fbc:	8c420010 	lw	v0,16(v0)
80009fc0:	8c420000 	lw	v0,0(v0)
80009fc4:	8fc30018 	lw	v1,24(s8)
80009fc8:	8c630010 	lw	v1,16(v1)
80009fcc:	00602025 	move	a0,v1
80009fd0:	0040f809 	jalr	v0
80009fd4:	00000000 	nop
80009fd8:	afc2001c 	sw	v0,28(s8)
80009fdc:	8fc2001c 	lw	v0,28(s8)
80009fe0:	10400027 	beqz	v0,8000a080 <vfs_unmountall+0x160>
80009fe4:	00000000 	nop
80009fe8:	8fc20018 	lw	v0,24(s8)
80009fec:	8c500000 	lw	s0,0(v0)
80009ff0:	8fc4001c 	lw	a0,28(s8)
80009ff4:	0c005ce8 	jal	800173a0 <strerror>
80009ff8:	00000000 	nop
80009ffc:	00401825 	move	v1,v0
8000a000:	3c028002 	lui	v0,0x8002
8000a004:	24448344 	addiu	a0,v0,-31932
8000a008:	02002825 	move	a1,s0
8000a00c:	00603025 	move	a2,v1
8000a010:	0c000aaa 	jal	80002aa8 <kernel_printf>
8000a014:	00000000 	nop
8000a018:	8fc20018 	lw	v0,24(s8)
8000a01c:	8c420010 	lw	v0,16(v0)
8000a020:	8c420000 	lw	v0,0(v0)
8000a024:	8fc30018 	lw	v1,24(s8)
8000a028:	8c630010 	lw	v1,16(v1)
8000a02c:	00602025 	move	a0,v1
8000a030:	0040f809 	jalr	v0
8000a034:	00000000 	nop
8000a038:	afc2001c 	sw	v0,28(s8)
8000a03c:	8fc2001c 	lw	v0,28(s8)
8000a040:	1040000f 	beqz	v0,8000a080 <vfs_unmountall+0x160>
8000a044:	00000000 	nop
8000a048:	8fc20018 	lw	v0,24(s8)
8000a04c:	8c500000 	lw	s0,0(v0)
8000a050:	8fc4001c 	lw	a0,28(s8)
8000a054:	0c005ce8 	jal	800173a0 <strerror>
8000a058:	00000000 	nop
8000a05c:	00401825 	move	v1,v0
8000a060:	3c028002 	lui	v0,0x8002
8000a064:	24448378 	addiu	a0,v0,-31880
8000a068:	02002825 	move	a1,s0
8000a06c:	00603025 	move	a2,v1
8000a070:	0c000aaa 	jal	80002aa8 <kernel_printf>
8000a074:	00000000 	nop
8000a078:	1000002a 	b	8000a124 <vfs_unmountall+0x204>
8000a07c:	00000000 	nop
8000a080:	8fc20018 	lw	v0,24(s8)
8000a084:	8c420010 	lw	v0,16(v0)
8000a088:	8c420010 	lw	v0,16(v0)
8000a08c:	8fc30018 	lw	v1,24(s8)
8000a090:	8c630010 	lw	v1,16(v1)
8000a094:	00602025 	move	a0,v1
8000a098:	0040f809 	jalr	v0
8000a09c:	00000000 	nop
8000a0a0:	afc2001c 	sw	v0,28(s8)
8000a0a4:	8fc3001c 	lw	v1,28(s8)
8000a0a8:	2402001b 	li	v0,27
8000a0ac:	1462000a 	bne	v1,v0,8000a0d8 <vfs_unmountall+0x1b8>
8000a0b0:	00000000 	nop
8000a0b4:	8fc20018 	lw	v0,24(s8)
8000a0b8:	8c430000 	lw	v1,0(v0)
8000a0bc:	3c028002 	lui	v0,0x8002
8000a0c0:	244483b8 	addiu	a0,v0,-31816
8000a0c4:	00602825 	move	a1,v1
8000a0c8:	0c000aaa 	jal	80002aa8 <kernel_printf>
8000a0cc:	00000000 	nop
8000a0d0:	10000014 	b	8000a124 <vfs_unmountall+0x204>
8000a0d4:	00000000 	nop
8000a0d8:	8fc2001c 	lw	v0,28(s8)
8000a0dc:	1040000f 	beqz	v0,8000a11c <vfs_unmountall+0x1fc>
8000a0e0:	00000000 	nop
8000a0e4:	8fc20018 	lw	v0,24(s8)
8000a0e8:	8c500000 	lw	s0,0(v0)
8000a0ec:	8fc4001c 	lw	a0,28(s8)
8000a0f0:	0c005ce8 	jal	800173a0 <strerror>
8000a0f4:	00000000 	nop
8000a0f8:	00401825 	move	v1,v0
8000a0fc:	3c028002 	lui	v0,0x8002
8000a100:	244483d8 	addiu	a0,v0,-31784
8000a104:	02002825 	move	a1,s0
8000a108:	00603025 	move	a2,v1
8000a10c:	0c000aaa 	jal	80002aa8 <kernel_printf>
8000a110:	00000000 	nop
8000a114:	10000003 	b	8000a124 <vfs_unmountall+0x204>
8000a118:	00000000 	nop
8000a11c:	8fc20018 	lw	v0,24(s8)
8000a120:	ac400010 	sw	zero,16(v0)
8000a124:	8fc20010 	lw	v0,16(s8)
8000a128:	24420001 	addiu	v0,v0,1
8000a12c:	afc20010 	sw	v0,16(s8)
8000a130:	8fc30010 	lw	v1,16(s8)
8000a134:	8fc20014 	lw	v0,20(s8)
8000a138:	0062102b 	sltu	v0,v1,v0
8000a13c:	1440ff85 	bnez	v0,80009f54 <vfs_unmountall+0x34>
8000a140:	00000000 	nop
8000a144:	00001025 	move	v0,zero
8000a148:	03c0e825 	move	sp,s8
8000a14c:	8fbf002c 	lw	ra,44(sp)
8000a150:	8fbe0028 	lw	s8,40(sp)
8000a154:	8fb00024 	lw	s0,36(sp)
8000a158:	27bd0030 	addiu	sp,sp,48
8000a15c:	03e00008 	jr	ra
8000a160:	00000000 	nop

8000a164 <change_bootfs>:
8000a164:	27bdffe0 	addiu	sp,sp,-32
8000a168:	afbf001c 	sw	ra,28(sp)
8000a16c:	afbe0018 	sw	s8,24(sp)
8000a170:	03a0f025 	move	s8,sp
8000a174:	afc40020 	sw	a0,32(s8)
8000a178:	8f8280a0 	lw	v0,-32608(gp)
8000a17c:	afc20010 	sw	v0,16(s8)
8000a180:	8fc20020 	lw	v0,32(s8)
8000a184:	af8280a0 	sw	v0,-32608(gp)
8000a188:	8fc20010 	lw	v0,16(s8)
8000a18c:	10400004 	beqz	v0,8000a1a0 <change_bootfs+0x3c>
8000a190:	00000000 	nop
8000a194:	8fc40010 	lw	a0,16(s8)
8000a198:	0c002d0d 	jal	8000b434 <vnode_decref>
8000a19c:	00000000 	nop
8000a1a0:	03c0e825 	move	sp,s8
8000a1a4:	8fbf001c 	lw	ra,28(sp)
8000a1a8:	8fbe0018 	lw	s8,24(sp)
8000a1ac:	27bd0020 	addiu	sp,sp,32
8000a1b0:	03e00008 	jr	ra
8000a1b4:	00000000 	nop

8000a1b8 <getdevice>:
8000a1b8:	27bdffd0 	addiu	sp,sp,-48
8000a1bc:	afbf002c 	sw	ra,44(sp)
8000a1c0:	afbe0028 	sw	s8,40(sp)
8000a1c4:	03a0f025 	move	s8,sp
8000a1c8:	afc40030 	sw	a0,48(s8)
8000a1cc:	afc50034 	sw	a1,52(s8)
8000a1d0:	afc60038 	sw	a2,56(s8)
8000a1d4:	2402ffff 	li	v0,-1
8000a1d8:	afc20010 	sw	v0,16(s8)
8000a1dc:	2402ffff 	li	v0,-1
8000a1e0:	afc20014 	sw	v0,20(s8)
8000a1e4:	afc00018 	sw	zero,24(s8)
8000a1e8:	1000001a 	b	8000a254 <getdevice+0x9c>
8000a1ec:	00000000 	nop
8000a1f0:	8fc20018 	lw	v0,24(s8)
8000a1f4:	8fc30030 	lw	v1,48(s8)
8000a1f8:	00621021 	addu	v0,v1,v0
8000a1fc:	90430000 	lbu	v1,0(v0)
8000a200:	2402003a 	li	v0,58
8000a204:	14620005 	bne	v1,v0,8000a21c <getdevice+0x64>
8000a208:	00000000 	nop
8000a20c:	8fc20018 	lw	v0,24(s8)
8000a210:	afc20014 	sw	v0,20(s8)
8000a214:	10000015 	b	8000a26c <getdevice+0xb4>
8000a218:	00000000 	nop
8000a21c:	8fc20018 	lw	v0,24(s8)
8000a220:	8fc30030 	lw	v1,48(s8)
8000a224:	00621021 	addu	v0,v1,v0
8000a228:	90430000 	lbu	v1,0(v0)
8000a22c:	2402002f 	li	v0,47
8000a230:	14620005 	bne	v1,v0,8000a248 <getdevice+0x90>
8000a234:	00000000 	nop
8000a238:	8fc20018 	lw	v0,24(s8)
8000a23c:	afc20010 	sw	v0,16(s8)
8000a240:	1000000a 	b	8000a26c <getdevice+0xb4>
8000a244:	00000000 	nop
8000a248:	8fc20018 	lw	v0,24(s8)
8000a24c:	24420001 	addiu	v0,v0,1
8000a250:	afc20018 	sw	v0,24(s8)
8000a254:	8fc20018 	lw	v0,24(s8)
8000a258:	8fc30030 	lw	v1,48(s8)
8000a25c:	00621021 	addu	v0,v1,v0
8000a260:	90420000 	lbu	v0,0(v0)
8000a264:	1440ffe2 	bnez	v0,8000a1f0 <getdevice+0x38>
8000a268:	00000000 	nop
8000a26c:	8fc20014 	lw	v0,20(s8)
8000a270:	0441000c 	bgez	v0,8000a2a4 <getdevice+0xec>
8000a274:	00000000 	nop
8000a278:	8fc20010 	lw	v0,16(s8)
8000a27c:	10400009 	beqz	v0,8000a2a4 <getdevice+0xec>
8000a280:	00000000 	nop
8000a284:	8fc20034 	lw	v0,52(s8)
8000a288:	8fc30030 	lw	v1,48(s8)
8000a28c:	ac430000 	sw	v1,0(v0)
8000a290:	8fc40038 	lw	a0,56(s8)
8000a294:	0c00240d 	jal	80009034 <vfs_getcurdir>
8000a298:	00000000 	nop
8000a29c:	10000088 	b	8000a4c0 <getdevice+0x308>
8000a2a0:	00000000 	nop
8000a2a4:	8fc20014 	lw	v0,20(s8)
8000a2a8:	18400026 	blez	v0,8000a344 <getdevice+0x18c>
8000a2ac:	00000000 	nop
8000a2b0:	8fc20014 	lw	v0,20(s8)
8000a2b4:	8fc30030 	lw	v1,48(s8)
8000a2b8:	00621021 	addu	v0,v1,v0
8000a2bc:	a0400000 	sb	zero,0(v0)
8000a2c0:	10000004 	b	8000a2d4 <getdevice+0x11c>
8000a2c4:	00000000 	nop
8000a2c8:	8fc20014 	lw	v0,20(s8)
8000a2cc:	24420001 	addiu	v0,v0,1
8000a2d0:	afc20014 	sw	v0,20(s8)
8000a2d4:	8fc20014 	lw	v0,20(s8)
8000a2d8:	24420001 	addiu	v0,v0,1
8000a2dc:	8fc30030 	lw	v1,48(s8)
8000a2e0:	00621021 	addu	v0,v1,v0
8000a2e4:	90430000 	lbu	v1,0(v0)
8000a2e8:	2402002f 	li	v0,47
8000a2ec:	1062fff6 	beq	v1,v0,8000a2c8 <getdevice+0x110>
8000a2f0:	00000000 	nop
8000a2f4:	8fc20014 	lw	v0,20(s8)
8000a2f8:	8fc30030 	lw	v1,48(s8)
8000a2fc:	00621821 	addu	v1,v1,v0
8000a300:	8fc20034 	lw	v0,52(s8)
8000a304:	ac430000 	sw	v1,0(v0)
8000a308:	8fc40030 	lw	a0,48(s8)
8000a30c:	8fc50038 	lw	a1,56(s8)
8000a310:	00003025 	move	a2,zero
8000a314:	0c0025f1 	jal	800097c4 <vfs_getroot>
8000a318:	00000000 	nop
8000a31c:	afc2001c 	sw	v0,28(s8)
8000a320:	8fc2001c 	lw	v0,28(s8)
8000a324:	10400004 	beqz	v0,8000a338 <getdevice+0x180>
8000a328:	00000000 	nop
8000a32c:	8fc2001c 	lw	v0,28(s8)
8000a330:	10000063 	b	8000a4c0 <getdevice+0x308>
8000a334:	00000000 	nop
8000a338:	00001025 	move	v0,zero
8000a33c:	10000060 	b	8000a4c0 <getdevice+0x308>
8000a340:	00000000 	nop
8000a344:	8fc20014 	lw	v0,20(s8)
8000a348:	1040000a 	beqz	v0,8000a374 <getdevice+0x1bc>
8000a34c:	00000000 	nop
8000a350:	8fc20010 	lw	v0,16(s8)
8000a354:	10400007 	beqz	v0,8000a374 <getdevice+0x1bc>
8000a358:	00000000 	nop
8000a35c:	3c028002 	lui	v0,0x8002
8000a360:	24448420 	addiu	a0,v0,-31712
8000a364:	3c028002 	lui	v0,0x8002
8000a368:	2445843c 	addiu	a1,v0,-31684
8000a36c:	0c005c3f 	jal	800170fc <badassert>
8000a370:	00000000 	nop
8000a374:	8fc20030 	lw	v0,48(s8)
8000a378:	90430000 	lbu	v1,0(v0)
8000a37c:	2402002f 	li	v0,47
8000a380:	14620010 	bne	v1,v0,8000a3c4 <getdevice+0x20c>
8000a384:	00000000 	nop
8000a388:	8f8280a0 	lw	v0,-32608(gp)
8000a38c:	14400004 	bnez	v0,8000a3a0 <getdevice+0x1e8>
8000a390:	00000000 	nop
8000a394:	24020013 	li	v0,19
8000a398:	10000049 	b	8000a4c0 <getdevice+0x308>
8000a39c:	00000000 	nop
8000a3a0:	8f8280a0 	lw	v0,-32608(gp)
8000a3a4:	00402025 	move	a0,v0
8000a3a8:	0c002cf4 	jal	8000b3d0 <vnode_incref>
8000a3ac:	00000000 	nop
8000a3b0:	8f8380a0 	lw	v1,-32608(gp)
8000a3b4:	8fc20038 	lw	v0,56(s8)
8000a3b8:	ac430000 	sw	v1,0(v0)
8000a3bc:	10000030 	b	8000a480 <getdevice+0x2c8>
8000a3c0:	00000000 	nop
8000a3c4:	8fc20030 	lw	v0,48(s8)
8000a3c8:	90430000 	lbu	v1,0(v0)
8000a3cc:	2402003a 	li	v0,58
8000a3d0:	10620007 	beq	v1,v0,8000a3f0 <getdevice+0x238>
8000a3d4:	00000000 	nop
8000a3d8:	3c028002 	lui	v0,0x8002
8000a3dc:	24448458 	addiu	a0,v0,-31656
8000a3e0:	3c028002 	lui	v0,0x8002
8000a3e4:	2445843c 	addiu	a1,v0,-31684
8000a3e8:	0c005c3f 	jal	800170fc <badassert>
8000a3ec:	00000000 	nop
8000a3f0:	27c20020 	addiu	v0,s8,32
8000a3f4:	00402025 	move	a0,v0
8000a3f8:	0c00240d 	jal	80009034 <vfs_getcurdir>
8000a3fc:	00000000 	nop
8000a400:	afc2001c 	sw	v0,28(s8)
8000a404:	8fc2001c 	lw	v0,28(s8)
8000a408:	10400004 	beqz	v0,8000a41c <getdevice+0x264>
8000a40c:	00000000 	nop
8000a410:	8fc2001c 	lw	v0,28(s8)
8000a414:	1000002a 	b	8000a4c0 <getdevice+0x308>
8000a418:	00000000 	nop
8000a41c:	8fc20020 	lw	v0,32(s8)
8000a420:	8c420008 	lw	v0,8(v0)
8000a424:	14400007 	bnez	v0,8000a444 <getdevice+0x28c>
8000a428:	00000000 	nop
8000a42c:	3c028002 	lui	v0,0x8002
8000a430:	24448468 	addiu	a0,v0,-31640
8000a434:	3c028002 	lui	v0,0x8002
8000a438:	2445847c 	addiu	a1,v0,-31620
8000a43c:	0c005c3f 	jal	800170fc <badassert>
8000a440:	00000000 	nop
8000a444:	8fc20020 	lw	v0,32(s8)
8000a448:	8c420008 	lw	v0,8(v0)
8000a44c:	8c420008 	lw	v0,8(v0)
8000a450:	8fc30020 	lw	v1,32(s8)
8000a454:	8c630008 	lw	v1,8(v1)
8000a458:	00602025 	move	a0,v1
8000a45c:	0040f809 	jalr	v0
8000a460:	00000000 	nop
8000a464:	00401825 	move	v1,v0
8000a468:	8fc20038 	lw	v0,56(s8)
8000a46c:	ac430000 	sw	v1,0(v0)
8000a470:	8fc20020 	lw	v0,32(s8)
8000a474:	00402025 	move	a0,v0
8000a478:	0c002d0d 	jal	8000b434 <vnode_decref>
8000a47c:	00000000 	nop
8000a480:	10000004 	b	8000a494 <getdevice+0x2dc>
8000a484:	00000000 	nop
8000a488:	8fc20030 	lw	v0,48(s8)
8000a48c:	24420001 	addiu	v0,v0,1
8000a490:	afc20030 	sw	v0,48(s8)
8000a494:	8fc20030 	lw	v0,48(s8)
8000a498:	24420001 	addiu	v0,v0,1
8000a49c:	90430000 	lbu	v1,0(v0)
8000a4a0:	2402002f 	li	v0,47
8000a4a4:	1062fff8 	beq	v1,v0,8000a488 <getdevice+0x2d0>
8000a4a8:	00000000 	nop
8000a4ac:	8fc20030 	lw	v0,48(s8)
8000a4b0:	24430001 	addiu	v1,v0,1
8000a4b4:	8fc20034 	lw	v0,52(s8)
8000a4b8:	ac430000 	sw	v1,0(v0)
8000a4bc:	00001025 	move	v0,zero
8000a4c0:	03c0e825 	move	sp,s8
8000a4c4:	8fbf002c 	lw	ra,44(sp)
8000a4c8:	8fbe0028 	lw	s8,40(sp)
8000a4cc:	27bd0030 	addiu	sp,sp,48
8000a4d0:	03e00008 	jr	ra
8000a4d4:	00000000 	nop

8000a4d8 <vfs_setbootfs>:
8000a4d8:	27bdffd8 	addiu	sp,sp,-40
8000a4dc:	afbf0024 	sw	ra,36(sp)
8000a4e0:	afbe0020 	sw	s8,32(sp)
8000a4e4:	03a0f025 	move	s8,sp
8000a4e8:	afc40028 	sw	a0,40(s8)
8000a4ec:	8fc40028 	lw	a0,40(s8)
8000a4f0:	0c005edc 	jal	80017b70 <kernel_strdup>
8000a4f4:	00000000 	nop
8000a4f8:	afc20010 	sw	v0,16(s8)
8000a4fc:	8fc40010 	lw	a0,16(s8)
8000a500:	2405003a 	li	a1,58
8000a504:	0c005e87 	jal	80017a1c <kernel_strchr>
8000a508:	00000000 	nop
8000a50c:	afc20014 	sw	v0,20(s8)
8000a510:	8fc20014 	lw	v0,20(s8)
8000a514:	10400009 	beqz	v0,8000a53c <vfs_setbootfs+0x64>
8000a518:	00000000 	nop
8000a51c:	8fc40014 	lw	a0,20(s8)
8000a520:	0c005e71 	jal	800179c4 <kernel_strlen>
8000a524:	00000000 	nop
8000a528:	10400009 	beqz	v0,8000a550 <vfs_setbootfs+0x78>
8000a52c:	00000000 	nop
8000a530:	24020008 	li	v0,8
8000a534:	10000020 	b	8000a5b8 <vfs_setbootfs+0xe0>
8000a538:	00000000 	nop
8000a53c:	8fc40010 	lw	a0,16(s8)
8000a540:	3c028002 	lui	v0,0x8002
8000a544:	244584a4 	addiu	a1,v0,-31580
8000a548:	0c005ec4 	jal	80017b10 <kernel_strcat>
8000a54c:	00000000 	nop
8000a550:	8fc40010 	lw	a0,16(s8)
8000a554:	0c002455 	jal	80009154 <vfs_chdir>
8000a558:	00000000 	nop
8000a55c:	afc20018 	sw	v0,24(s8)
8000a560:	8fc20018 	lw	v0,24(s8)
8000a564:	10400004 	beqz	v0,8000a578 <vfs_setbootfs+0xa0>
8000a568:	00000000 	nop
8000a56c:	8fc20018 	lw	v0,24(s8)
8000a570:	10000011 	b	8000a5b8 <vfs_setbootfs+0xe0>
8000a574:	00000000 	nop
8000a578:	27c2001c 	addiu	v0,s8,28
8000a57c:	00402025 	move	a0,v0
8000a580:	0c00240d 	jal	80009034 <vfs_getcurdir>
8000a584:	00000000 	nop
8000a588:	afc20018 	sw	v0,24(s8)
8000a58c:	8fc20018 	lw	v0,24(s8)
8000a590:	10400004 	beqz	v0,8000a5a4 <vfs_setbootfs+0xcc>
8000a594:	00000000 	nop
8000a598:	8fc20018 	lw	v0,24(s8)
8000a59c:	10000006 	b	8000a5b8 <vfs_setbootfs+0xe0>
8000a5a0:	00000000 	nop
8000a5a4:	8fc2001c 	lw	v0,28(s8)
8000a5a8:	00402025 	move	a0,v0
8000a5ac:	0c002859 	jal	8000a164 <change_bootfs>
8000a5b0:	00000000 	nop
8000a5b4:	00001025 	move	v0,zero
8000a5b8:	03c0e825 	move	sp,s8
8000a5bc:	8fbf0024 	lw	ra,36(sp)
8000a5c0:	8fbe0020 	lw	s8,32(sp)
8000a5c4:	27bd0028 	addiu	sp,sp,40
8000a5c8:	03e00008 	jr	ra
8000a5cc:	00000000 	nop

8000a5d0 <vfs_lookparent>:
8000a5d0:	27bdffd8 	addiu	sp,sp,-40
8000a5d4:	afbf0024 	sw	ra,36(sp)
8000a5d8:	afbe0020 	sw	s8,32(sp)
8000a5dc:	03a0f025 	move	s8,sp
8000a5e0:	afc40028 	sw	a0,40(s8)
8000a5e4:	afc5002c 	sw	a1,44(s8)
8000a5e8:	afc60030 	sw	a2,48(s8)
8000a5ec:	afc70034 	sw	a3,52(s8)
8000a5f0:	8fc30028 	lw	v1,40(s8)
8000a5f4:	27c2001c 	addiu	v0,s8,28
8000a5f8:	00602025 	move	a0,v1
8000a5fc:	27c50028 	addiu	a1,s8,40
8000a600:	00403025 	move	a2,v0
8000a604:	0c00286e 	jal	8000a1b8 <getdevice>
8000a608:	00000000 	nop
8000a60c:	afc20018 	sw	v0,24(s8)
8000a610:	8fc20018 	lw	v0,24(s8)
8000a614:	14400009 	bnez	v0,8000a63c <vfs_lookparent+0x6c>
8000a618:	00000000 	nop
8000a61c:	8fc20028 	lw	v0,40(s8)
8000a620:	8fc40030 	lw	a0,48(s8)
8000a624:	00402825 	move	a1,v0
8000a628:	0c005ead 	jal	80017ab4 <kernel_strcpy>
8000a62c:	00000000 	nop
8000a630:	8fc20018 	lw	v0,24(s8)
8000a634:	10000022 	b	8000a6c0 <vfs_lookparent+0xf0>
8000a638:	00000000 	nop
8000a63c:	8fc20028 	lw	v0,40(s8)
8000a640:	00402025 	move	a0,v0
8000a644:	0c005e71 	jal	800179c4 <kernel_strlen>
8000a648:	00000000 	nop
8000a64c:	14400005 	bnez	v0,8000a664 <vfs_lookparent+0x94>
8000a650:	00000000 	nop
8000a654:	24020008 	li	v0,8
8000a658:	afc20018 	sw	v0,24(s8)
8000a65c:	10000013 	b	8000a6ac <vfs_lookparent+0xdc>
8000a660:	00000000 	nop
8000a664:	8fc2001c 	lw	v0,28(s8)
8000a668:	00402025 	move	a0,v0
8000a66c:	3c028002 	lui	v0,0x8002
8000a670:	244584a8 	addiu	a1,v0,-31576
8000a674:	0c002db8 	jal	8000b6e0 <vnode_check>
8000a678:	00000000 	nop
8000a67c:	8fc2001c 	lw	v0,28(s8)
8000a680:	8c420010 	lw	v0,16(v0)
8000a684:	8c420060 	lw	v0,96(v0)
8000a688:	8fc4001c 	lw	a0,28(s8)
8000a68c:	8fc50028 	lw	a1,40(s8)
8000a690:	8fc30034 	lw	v1,52(s8)
8000a694:	afa30010 	sw	v1,16(sp)
8000a698:	8fc6002c 	lw	a2,44(s8)
8000a69c:	8fc70030 	lw	a3,48(s8)
8000a6a0:	0040f809 	jalr	v0
8000a6a4:	00000000 	nop
8000a6a8:	afc20018 	sw	v0,24(s8)
8000a6ac:	8fc2001c 	lw	v0,28(s8)
8000a6b0:	00402025 	move	a0,v0
8000a6b4:	0c002d0d 	jal	8000b434 <vnode_decref>
8000a6b8:	00000000 	nop
8000a6bc:	8fc20018 	lw	v0,24(s8)
8000a6c0:	03c0e825 	move	sp,s8
8000a6c4:	8fbf0024 	lw	ra,36(sp)
8000a6c8:	8fbe0020 	lw	s8,32(sp)
8000a6cc:	27bd0028 	addiu	sp,sp,40
8000a6d0:	03e00008 	jr	ra
8000a6d4:	00000000 	nop

8000a6d8 <vfs_lookup>:
8000a6d8:	27bdffe0 	addiu	sp,sp,-32
8000a6dc:	afbf001c 	sw	ra,28(sp)
8000a6e0:	afbe0018 	sw	s8,24(sp)
8000a6e4:	03a0f025 	move	s8,sp
8000a6e8:	afc40020 	sw	a0,32(s8)
8000a6ec:	afc50024 	sw	a1,36(s8)
8000a6f0:	8fc30020 	lw	v1,32(s8)
8000a6f4:	27c20014 	addiu	v0,s8,20
8000a6f8:	00602025 	move	a0,v1
8000a6fc:	27c50020 	addiu	a1,s8,32
8000a700:	00403025 	move	a2,v0
8000a704:	0c00286e 	jal	8000a1b8 <getdevice>
8000a708:	00000000 	nop
8000a70c:	afc20010 	sw	v0,16(s8)
8000a710:	8fc20010 	lw	v0,16(s8)
8000a714:	10400004 	beqz	v0,8000a728 <vfs_lookup+0x50>
8000a718:	00000000 	nop
8000a71c:	8fc20010 	lw	v0,16(s8)
8000a720:	10000022 	b	8000a7ac <vfs_lookup+0xd4>
8000a724:	00000000 	nop
8000a728:	8fc20020 	lw	v0,32(s8)
8000a72c:	00402025 	move	a0,v0
8000a730:	0c005e71 	jal	800179c4 <kernel_strlen>
8000a734:	00000000 	nop
8000a738:	14400007 	bnez	v0,8000a758 <vfs_lookup+0x80>
8000a73c:	00000000 	nop
8000a740:	8fc30014 	lw	v1,20(s8)
8000a744:	8fc20024 	lw	v0,36(s8)
8000a748:	ac430000 	sw	v1,0(v0)
8000a74c:	00001025 	move	v0,zero
8000a750:	10000016 	b	8000a7ac <vfs_lookup+0xd4>
8000a754:	00000000 	nop
8000a758:	8fc20014 	lw	v0,20(s8)
8000a75c:	00402025 	move	a0,v0
8000a760:	3c028002 	lui	v0,0x8002
8000a764:	244584b4 	addiu	a1,v0,-31564
8000a768:	0c002db8 	jal	8000b6e0 <vnode_check>
8000a76c:	00000000 	nop
8000a770:	8fc20014 	lw	v0,20(s8)
8000a774:	8c420010 	lw	v0,16(v0)
8000a778:	8c42005c 	lw	v0,92(v0)
8000a77c:	8fc40014 	lw	a0,20(s8)
8000a780:	8fc30020 	lw	v1,32(s8)
8000a784:	00602825 	move	a1,v1
8000a788:	8fc60024 	lw	a2,36(s8)
8000a78c:	0040f809 	jalr	v0
8000a790:	00000000 	nop
8000a794:	afc20010 	sw	v0,16(s8)
8000a798:	8fc20014 	lw	v0,20(s8)
8000a79c:	00402025 	move	a0,v0
8000a7a0:	0c002d0d 	jal	8000b434 <vnode_decref>
8000a7a4:	00000000 	nop
8000a7a8:	8fc20010 	lw	v0,16(s8)
8000a7ac:	03c0e825 	move	sp,s8
8000a7b0:	8fbf001c 	lw	ra,28(sp)
8000a7b4:	8fbe0018 	lw	s8,24(sp)
8000a7b8:	27bd0020 	addiu	sp,sp,32
8000a7bc:	03e00008 	jr	ra
8000a7c0:	00000000 	nop

8000a7c4 <vfs_open>:
8000a7c4:	27bdffd0 	addiu	sp,sp,-48
8000a7c8:	afbf002c 	sw	ra,44(sp)
8000a7cc:	afbe0028 	sw	s8,40(sp)
8000a7d0:	03a0f025 	move	s8,sp
8000a7d4:	afc40030 	sw	a0,48(s8)
8000a7d8:	afc50034 	sw	a1,52(s8)
8000a7dc:	afc60038 	sw	a2,56(s8)
8000a7e0:	afc7003c 	sw	a3,60(s8)
8000a7e4:	afc00024 	sw	zero,36(s8)
8000a7e8:	8fc20034 	lw	v0,52(s8)
8000a7ec:	30420003 	andi	v0,v0,0x3
8000a7f0:	afc20010 	sw	v0,16(s8)
8000a7f4:	8fc20010 	lw	v0,16(s8)
8000a7f8:	10400008 	beqz	v0,8000a81c <vfs_open+0x58>
8000a7fc:	00000000 	nop
8000a800:	0440000d 	bltz	v0,8000a838 <vfs_open+0x74>
8000a804:	00000000 	nop
8000a808:	28420003 	slti	v0,v0,3
8000a80c:	1040000a 	beqz	v0,8000a838 <vfs_open+0x74>
8000a810:	00000000 	nop
8000a814:	10000004 	b	8000a828 <vfs_open+0x64>
8000a818:	00000000 	nop
8000a81c:	afc00014 	sw	zero,20(s8)
8000a820:	10000008 	b	8000a844 <vfs_open+0x80>
8000a824:	00000000 	nop
8000a828:	24020001 	li	v0,1
8000a82c:	afc20014 	sw	v0,20(s8)
8000a830:	10000004 	b	8000a844 <vfs_open+0x80>
8000a834:	00000000 	nop
8000a838:	24020008 	li	v0,8
8000a83c:	1000003e 	b	8000a938 <vfs_open+0x174>
8000a840:	00000000 	nop
8000a844:	8fc40030 	lw	a0,48(s8)
8000a848:	0c005e71 	jal	800179c4 <kernel_strlen>
8000a84c:	00000000 	nop
8000a850:	24420001 	addiu	v0,v0,1
8000a854:	00402025 	move	a0,v0
8000a858:	0c003abb 	jal	8000eaec <kmalloc>
8000a85c:	00000000 	nop
8000a860:	afc20018 	sw	v0,24(s8)
8000a864:	27c20024 	addiu	v0,s8,36
8000a868:	8fc40030 	lw	a0,48(s8)
8000a86c:	00402825 	move	a1,v0
8000a870:	8fc60018 	lw	a2,24(s8)
8000a874:	24070004 	li	a3,4
8000a878:	0c002974 	jal	8000a5d0 <vfs_lookparent>
8000a87c:	00000000 	nop
8000a880:	afc2001c 	sw	v0,28(s8)
8000a884:	8fc2001c 	lw	v0,28(s8)
8000a888:	10400004 	beqz	v0,8000a89c <vfs_open+0xd8>
8000a88c:	00000000 	nop
8000a890:	8fc2001c 	lw	v0,28(s8)
8000a894:	10000028 	b	8000a938 <vfs_open+0x174>
8000a898:	00000000 	nop
8000a89c:	8fc40020 	lw	a0,32(s8)
8000a8a0:	8fc50018 	lw	a1,24(s8)
8000a8a4:	0c001053 	jal	8000414c <fs_open>
8000a8a8:	00000000 	nop
8000a8ac:	afc2001c 	sw	v0,28(s8)
8000a8b0:	8fc2001c 	lw	v0,28(s8)
8000a8b4:	10400004 	beqz	v0,8000a8c8 <vfs_open+0x104>
8000a8b8:	00000000 	nop
8000a8bc:	8fc2001c 	lw	v0,28(s8)
8000a8c0:	1000001d 	b	8000a938 <vfs_open+0x174>
8000a8c4:	00000000 	nop
8000a8c8:	27c30024 	addiu	v1,s8,36
8000a8cc:	3c028002 	lui	v0,0x8002
8000a8d0:	244484bc 	addiu	a0,v0,-31556
8000a8d4:	00602825 	move	a1,v1
8000a8d8:	24060001 	li	a2,1
8000a8dc:	0c0025f1 	jal	800097c4 <vfs_getroot>
8000a8e0:	00000000 	nop
8000a8e4:	afc2001c 	sw	v0,28(s8)
8000a8e8:	8fc2001c 	lw	v0,28(s8)
8000a8ec:	10400004 	beqz	v0,8000a900 <vfs_open+0x13c>
8000a8f0:	00000000 	nop
8000a8f4:	8fc2001c 	lw	v0,28(s8)
8000a8f8:	1000000f 	b	8000a938 <vfs_open+0x174>
8000a8fc:	00000000 	nop
8000a900:	8fc20024 	lw	v0,36(s8)
8000a904:	8fc30020 	lw	v1,32(s8)
8000a908:	ac43000c 	sw	v1,12(v0)
8000a90c:	8fc20024 	lw	v0,36(s8)
8000a910:	00402025 	move	a0,v0
8000a914:	0c002cf4 	jal	8000b3d0 <vnode_incref>
8000a918:	00000000 	nop
8000a91c:	8fc30024 	lw	v1,36(s8)
8000a920:	8fc2003c 	lw	v0,60(s8)
8000a924:	ac430000 	sw	v1,0(v0)
8000a928:	8fc40018 	lw	a0,24(s8)
8000a92c:	0c003b13 	jal	8000ec4c <kfree>
8000a930:	00000000 	nop
8000a934:	8fc2001c 	lw	v0,28(s8)
8000a938:	03c0e825 	move	sp,s8
8000a93c:	8fbf002c 	lw	ra,44(sp)
8000a940:	8fbe0028 	lw	s8,40(sp)
8000a944:	27bd0030 	addiu	sp,sp,48
8000a948:	03e00008 	jr	ra
8000a94c:	00000000 	nop

8000a950 <vfs_close>:
8000a950:	27bdffe0 	addiu	sp,sp,-32
8000a954:	afbf001c 	sw	ra,28(sp)
8000a958:	afbe0018 	sw	s8,24(sp)
8000a95c:	03a0f025 	move	s8,sp
8000a960:	afc40020 	sw	a0,32(s8)
8000a964:	8fc20020 	lw	v0,32(s8)
8000a968:	8c42000c 	lw	v0,12(v0)
8000a96c:	afc20010 	sw	v0,16(s8)
8000a970:	8fc40010 	lw	a0,16(s8)
8000a974:	0c001107 	jal	8000441c <fs_close>
8000a978:	00000000 	nop
8000a97c:	8fc20020 	lw	v0,32(s8)
8000a980:	ac40000c 	sw	zero,12(v0)
8000a984:	8fc40020 	lw	a0,32(s8)
8000a988:	0c002d0d 	jal	8000b434 <vnode_decref>
8000a98c:	00000000 	nop
8000a990:	03c0e825 	move	sp,s8
8000a994:	8fbf001c 	lw	ra,28(sp)
8000a998:	8fbe0018 	lw	s8,24(sp)
8000a99c:	27bd0020 	addiu	sp,sp,32
8000a9a0:	03e00008 	jr	ra
8000a9a4:	00000000 	nop

8000a9a8 <vfs_remove>:
8000a9a8:	27bdffd8 	addiu	sp,sp,-40
8000a9ac:	afbf0024 	sw	ra,36(sp)
8000a9b0:	afbe0020 	sw	s8,32(sp)
8000a9b4:	03a0f025 	move	s8,sp
8000a9b8:	afc40028 	sw	a0,40(s8)
8000a9bc:	8fc40028 	lw	a0,40(s8)
8000a9c0:	0c005e71 	jal	800179c4 <kernel_strlen>
8000a9c4:	00000000 	nop
8000a9c8:	24420001 	addiu	v0,v0,1
8000a9cc:	00402025 	move	a0,v0
8000a9d0:	0c003abb 	jal	8000eaec <kmalloc>
8000a9d4:	00000000 	nop
8000a9d8:	afc20010 	sw	v0,16(s8)
8000a9dc:	27c20018 	addiu	v0,s8,24
8000a9e0:	8fc40028 	lw	a0,40(s8)
8000a9e4:	00402825 	move	a1,v0
8000a9e8:	8fc60010 	lw	a2,16(s8)
8000a9ec:	24070004 	li	a3,4
8000a9f0:	0c002974 	jal	8000a5d0 <vfs_lookparent>
8000a9f4:	00000000 	nop
8000a9f8:	afc20014 	sw	v0,20(s8)
8000a9fc:	8fc20014 	lw	v0,20(s8)
8000aa00:	10400004 	beqz	v0,8000aa14 <vfs_remove+0x6c>
8000aa04:	00000000 	nop
8000aa08:	8fc20014 	lw	v0,20(s8)
8000aa0c:	10000026 	b	8000aaa8 <vfs_remove+0x100>
8000aa10:	00000000 	nop
8000aa14:	27c30018 	addiu	v1,s8,24
8000aa18:	3c028002 	lui	v0,0x8002
8000aa1c:	244484bc 	addiu	a0,v0,-31556
8000aa20:	00602825 	move	a1,v1
8000aa24:	00003025 	move	a2,zero
8000aa28:	0c0025f1 	jal	800097c4 <vfs_getroot>
8000aa2c:	00000000 	nop
8000aa30:	afc20014 	sw	v0,20(s8)
8000aa34:	8fc20014 	lw	v0,20(s8)
8000aa38:	10400004 	beqz	v0,8000aa4c <vfs_remove+0xa4>
8000aa3c:	00000000 	nop
8000aa40:	8fc20014 	lw	v0,20(s8)
8000aa44:	10000018 	b	8000aaa8 <vfs_remove+0x100>
8000aa48:	00000000 	nop
8000aa4c:	8fc20018 	lw	v0,24(s8)
8000aa50:	00402025 	move	a0,v0
8000aa54:	3c028002 	lui	v0,0x8002
8000aa58:	244584c0 	addiu	a1,v0,-31552
8000aa5c:	0c002db8 	jal	8000b6e0 <vnode_check>
8000aa60:	00000000 	nop
8000aa64:	8fc20018 	lw	v0,24(s8)
8000aa68:	8c420010 	lw	v0,16(v0)
8000aa6c:	8c420050 	lw	v0,80(v0)
8000aa70:	8fc30018 	lw	v1,24(s8)
8000aa74:	00602025 	move	a0,v1
8000aa78:	8fc50010 	lw	a1,16(s8)
8000aa7c:	0040f809 	jalr	v0
8000aa80:	00000000 	nop
8000aa84:	afc20014 	sw	v0,20(s8)
8000aa88:	8fc20018 	lw	v0,24(s8)
8000aa8c:	00402025 	move	a0,v0
8000aa90:	0c002d0d 	jal	8000b434 <vnode_decref>
8000aa94:	00000000 	nop
8000aa98:	8fc40010 	lw	a0,16(s8)
8000aa9c:	0c003b13 	jal	8000ec4c <kfree>
8000aaa0:	00000000 	nop
8000aaa4:	8fc20014 	lw	v0,20(s8)
8000aaa8:	03c0e825 	move	sp,s8
8000aaac:	8fbf0024 	lw	ra,36(sp)
8000aab0:	8fbe0020 	lw	s8,32(sp)
8000aab4:	27bd0028 	addiu	sp,sp,40
8000aab8:	03e00008 	jr	ra
8000aabc:	00000000 	nop

8000aac0 <vfs_rename>:
8000aac0:	27bdffd0 	addiu	sp,sp,-48
8000aac4:	afbf002c 	sw	ra,44(sp)
8000aac8:	afbe0028 	sw	s8,40(sp)
8000aacc:	03a0f025 	move	s8,sp
8000aad0:	afc40030 	sw	a0,48(s8)
8000aad4:	afc50034 	sw	a1,52(s8)
8000aad8:	8fc40030 	lw	a0,48(s8)
8000aadc:	0c005e71 	jal	800179c4 <kernel_strlen>
8000aae0:	00000000 	nop
8000aae4:	24420001 	addiu	v0,v0,1
8000aae8:	00402025 	move	a0,v0
8000aaec:	0c003abb 	jal	8000eaec <kmalloc>
8000aaf0:	00000000 	nop
8000aaf4:	afc20010 	sw	v0,16(s8)
8000aaf8:	8fc40034 	lw	a0,52(s8)
8000aafc:	0c005e71 	jal	800179c4 <kernel_strlen>
8000ab00:	00000000 	nop
8000ab04:	24420001 	addiu	v0,v0,1
8000ab08:	00402025 	move	a0,v0
8000ab0c:	0c003abb 	jal	8000eaec <kmalloc>
8000ab10:	00000000 	nop
8000ab14:	afc20014 	sw	v0,20(s8)
8000ab18:	27c2001c 	addiu	v0,s8,28
8000ab1c:	8fc40030 	lw	a0,48(s8)
8000ab20:	00402825 	move	a1,v0
8000ab24:	8fc60010 	lw	a2,16(s8)
8000ab28:	24070004 	li	a3,4
8000ab2c:	0c002974 	jal	8000a5d0 <vfs_lookparent>
8000ab30:	00000000 	nop
8000ab34:	afc20018 	sw	v0,24(s8)
8000ab38:	8fc20018 	lw	v0,24(s8)
8000ab3c:	10400004 	beqz	v0,8000ab50 <vfs_rename+0x90>
8000ab40:	00000000 	nop
8000ab44:	8fc20018 	lw	v0,24(s8)
8000ab48:	10000068 	b	8000acec <vfs_rename+0x22c>
8000ab4c:	00000000 	nop
8000ab50:	27c20020 	addiu	v0,s8,32
8000ab54:	8fc40034 	lw	a0,52(s8)
8000ab58:	00402825 	move	a1,v0
8000ab5c:	8fc60014 	lw	a2,20(s8)
8000ab60:	24070004 	li	a3,4
8000ab64:	0c002974 	jal	8000a5d0 <vfs_lookparent>
8000ab68:	00000000 	nop
8000ab6c:	afc20018 	sw	v0,24(s8)
8000ab70:	8fc20018 	lw	v0,24(s8)
8000ab74:	10400008 	beqz	v0,8000ab98 <vfs_rename+0xd8>
8000ab78:	00000000 	nop
8000ab7c:	8fc2001c 	lw	v0,28(s8)
8000ab80:	00402025 	move	a0,v0
8000ab84:	0c002d0d 	jal	8000b434 <vnode_decref>
8000ab88:	00000000 	nop
8000ab8c:	8fc20018 	lw	v0,24(s8)
8000ab90:	10000056 	b	8000acec <vfs_rename+0x22c>
8000ab94:	00000000 	nop
8000ab98:	27c3001c 	addiu	v1,s8,28
8000ab9c:	3c028002 	lui	v0,0x8002
8000aba0:	244484bc 	addiu	a0,v0,-31556
8000aba4:	00602825 	move	a1,v1
8000aba8:	00003025 	move	a2,zero
8000abac:	0c0025f1 	jal	800097c4 <vfs_getroot>
8000abb0:	00000000 	nop
8000abb4:	afc20018 	sw	v0,24(s8)
8000abb8:	8fc20018 	lw	v0,24(s8)
8000abbc:	10400004 	beqz	v0,8000abd0 <vfs_rename+0x110>
8000abc0:	00000000 	nop
8000abc4:	8fc20018 	lw	v0,24(s8)
8000abc8:	10000048 	b	8000acec <vfs_rename+0x22c>
8000abcc:	00000000 	nop
8000abd0:	27c30020 	addiu	v1,s8,32
8000abd4:	3c028002 	lui	v0,0x8002
8000abd8:	244484bc 	addiu	a0,v0,-31556
8000abdc:	00602825 	move	a1,v1
8000abe0:	00003025 	move	a2,zero
8000abe4:	0c0025f1 	jal	800097c4 <vfs_getroot>
8000abe8:	00000000 	nop
8000abec:	afc20018 	sw	v0,24(s8)
8000abf0:	8fc20018 	lw	v0,24(s8)
8000abf4:	10400004 	beqz	v0,8000ac08 <vfs_rename+0x148>
8000abf8:	00000000 	nop
8000abfc:	8fc20018 	lw	v0,24(s8)
8000ac00:	1000003a 	b	8000acec <vfs_rename+0x22c>
8000ac04:	00000000 	nop
8000ac08:	8fc2001c 	lw	v0,28(s8)
8000ac0c:	8c420008 	lw	v0,8(v0)
8000ac10:	1040000b 	beqz	v0,8000ac40 <vfs_rename+0x180>
8000ac14:	00000000 	nop
8000ac18:	8fc20020 	lw	v0,32(s8)
8000ac1c:	8c420008 	lw	v0,8(v0)
8000ac20:	10400007 	beqz	v0,8000ac40 <vfs_rename+0x180>
8000ac24:	00000000 	nop
8000ac28:	8fc2001c 	lw	v0,28(s8)
8000ac2c:	8c430008 	lw	v1,8(v0)
8000ac30:	8fc20020 	lw	v0,32(s8)
8000ac34:	8c420008 	lw	v0,8(v0)
8000ac38:	1062000c 	beq	v1,v0,8000ac6c <vfs_rename+0x1ac>
8000ac3c:	00000000 	nop
8000ac40:	8fc20020 	lw	v0,32(s8)
8000ac44:	00402025 	move	a0,v0
8000ac48:	0c002d0d 	jal	8000b434 <vnode_decref>
8000ac4c:	00000000 	nop
8000ac50:	8fc2001c 	lw	v0,28(s8)
8000ac54:	00402025 	move	a0,v0
8000ac58:	0c002d0d 	jal	8000b434 <vnode_decref>
8000ac5c:	00000000 	nop
8000ac60:	24020018 	li	v0,24
8000ac64:	10000021 	b	8000acec <vfs_rename+0x22c>
8000ac68:	00000000 	nop
8000ac6c:	8fc2001c 	lw	v0,28(s8)
8000ac70:	00402025 	move	a0,v0
8000ac74:	3c028002 	lui	v0,0x8002
8000ac78:	244584c8 	addiu	a1,v0,-31544
8000ac7c:	0c002db8 	jal	8000b6e0 <vnode_check>
8000ac80:	00000000 	nop
8000ac84:	8fc2001c 	lw	v0,28(s8)
8000ac88:	8c420010 	lw	v0,16(v0)
8000ac8c:	8c420058 	lw	v0,88(v0)
8000ac90:	8fc4001c 	lw	a0,28(s8)
8000ac94:	8fc30020 	lw	v1,32(s8)
8000ac98:	8fc50010 	lw	a1,16(s8)
8000ac9c:	00603025 	move	a2,v1
8000aca0:	8fc70014 	lw	a3,20(s8)
8000aca4:	0040f809 	jalr	v0
8000aca8:	00000000 	nop
8000acac:	afc20018 	sw	v0,24(s8)
8000acb0:	8fc20020 	lw	v0,32(s8)
8000acb4:	00402025 	move	a0,v0
8000acb8:	0c002d0d 	jal	8000b434 <vnode_decref>
8000acbc:	00000000 	nop
8000acc0:	8fc2001c 	lw	v0,28(s8)
8000acc4:	00402025 	move	a0,v0
8000acc8:	0c002d0d 	jal	8000b434 <vnode_decref>
8000accc:	00000000 	nop
8000acd0:	8fc40010 	lw	a0,16(s8)
8000acd4:	0c003b13 	jal	8000ec4c <kfree>
8000acd8:	00000000 	nop
8000acdc:	8fc40014 	lw	a0,20(s8)
8000ace0:	0c003b13 	jal	8000ec4c <kfree>
8000ace4:	00000000 	nop
8000ace8:	8fc20018 	lw	v0,24(s8)
8000acec:	03c0e825 	move	sp,s8
8000acf0:	8fbf002c 	lw	ra,44(sp)
8000acf4:	8fbe0028 	lw	s8,40(sp)
8000acf8:	27bd0030 	addiu	sp,sp,48
8000acfc:	03e00008 	jr	ra
8000ad00:	00000000 	nop

8000ad04 <vfs_cp>:
8000ad04:	27bdffd0 	addiu	sp,sp,-48
8000ad08:	afbf002c 	sw	ra,44(sp)
8000ad0c:	afbe0028 	sw	s8,40(sp)
8000ad10:	03a0f025 	move	s8,sp
8000ad14:	afc40030 	sw	a0,48(s8)
8000ad18:	afc50034 	sw	a1,52(s8)
8000ad1c:	8fc40030 	lw	a0,48(s8)
8000ad20:	0c005e71 	jal	800179c4 <kernel_strlen>
8000ad24:	00000000 	nop
8000ad28:	24420001 	addiu	v0,v0,1
8000ad2c:	00402025 	move	a0,v0
8000ad30:	0c003abb 	jal	8000eaec <kmalloc>
8000ad34:	00000000 	nop
8000ad38:	afc20010 	sw	v0,16(s8)
8000ad3c:	8fc40034 	lw	a0,52(s8)
8000ad40:	0c005e71 	jal	800179c4 <kernel_strlen>
8000ad44:	00000000 	nop
8000ad48:	24420001 	addiu	v0,v0,1
8000ad4c:	00402025 	move	a0,v0
8000ad50:	0c003abb 	jal	8000eaec <kmalloc>
8000ad54:	00000000 	nop
8000ad58:	afc20014 	sw	v0,20(s8)
8000ad5c:	27c2001c 	addiu	v0,s8,28
8000ad60:	8fc40030 	lw	a0,48(s8)
8000ad64:	00402825 	move	a1,v0
8000ad68:	8fc60010 	lw	a2,16(s8)
8000ad6c:	24070004 	li	a3,4
8000ad70:	0c002974 	jal	8000a5d0 <vfs_lookparent>
8000ad74:	00000000 	nop
8000ad78:	afc20018 	sw	v0,24(s8)
8000ad7c:	8fc20018 	lw	v0,24(s8)
8000ad80:	10400004 	beqz	v0,8000ad94 <vfs_cp+0x90>
8000ad84:	00000000 	nop
8000ad88:	8fc20018 	lw	v0,24(s8)
8000ad8c:	10000021 	b	8000ae14 <vfs_cp+0x110>
8000ad90:	00000000 	nop
8000ad94:	27c20020 	addiu	v0,s8,32
8000ad98:	8fc40034 	lw	a0,52(s8)
8000ad9c:	00402825 	move	a1,v0
8000ada0:	8fc60014 	lw	a2,20(s8)
8000ada4:	24070004 	li	a3,4
8000ada8:	0c002974 	jal	8000a5d0 <vfs_lookparent>
8000adac:	00000000 	nop
8000adb0:	afc20018 	sw	v0,24(s8)
8000adb4:	8fc20018 	lw	v0,24(s8)
8000adb8:	10400004 	beqz	v0,8000adcc <vfs_cp+0xc8>
8000adbc:	00000000 	nop
8000adc0:	8fc20018 	lw	v0,24(s8)
8000adc4:	10000013 	b	8000ae14 <vfs_cp+0x110>
8000adc8:	00000000 	nop
8000adcc:	8fc40010 	lw	a0,16(s8)
8000add0:	8fc50014 	lw	a1,20(s8)
8000add4:	0c001b7b 	jal	80006dec <fs_cp>
8000add8:	00000000 	nop
8000addc:	afc20018 	sw	v0,24(s8)
8000ade0:	8fc20018 	lw	v0,24(s8)
8000ade4:	10400004 	beqz	v0,8000adf8 <vfs_cp+0xf4>
8000ade8:	00000000 	nop
8000adec:	8fc20018 	lw	v0,24(s8)
8000adf0:	10000008 	b	8000ae14 <vfs_cp+0x110>
8000adf4:	00000000 	nop
8000adf8:	8fc40010 	lw	a0,16(s8)
8000adfc:	0c003b13 	jal	8000ec4c <kfree>
8000ae00:	00000000 	nop
8000ae04:	8fc40014 	lw	a0,20(s8)
8000ae08:	0c003b13 	jal	8000ec4c <kfree>
8000ae0c:	00000000 	nop
8000ae10:	8fc20018 	lw	v0,24(s8)
8000ae14:	03c0e825 	move	sp,s8
8000ae18:	8fbf002c 	lw	ra,44(sp)
8000ae1c:	8fbe0028 	lw	s8,40(sp)
8000ae20:	27bd0030 	addiu	sp,sp,48
8000ae24:	03e00008 	jr	ra
8000ae28:	00000000 	nop

8000ae2c <vfs_create>:
8000ae2c:	27bdffd8 	addiu	sp,sp,-40
8000ae30:	afbf0024 	sw	ra,36(sp)
8000ae34:	afbe0020 	sw	s8,32(sp)
8000ae38:	03a0f025 	move	s8,sp
8000ae3c:	afc40028 	sw	a0,40(s8)
8000ae40:	8fc40028 	lw	a0,40(s8)
8000ae44:	0c005e71 	jal	800179c4 <kernel_strlen>
8000ae48:	00000000 	nop
8000ae4c:	24420001 	addiu	v0,v0,1
8000ae50:	00402025 	move	a0,v0
8000ae54:	0c003abb 	jal	8000eaec <kmalloc>
8000ae58:	00000000 	nop
8000ae5c:	afc20010 	sw	v0,16(s8)
8000ae60:	27c20018 	addiu	v0,s8,24
8000ae64:	8fc40028 	lw	a0,40(s8)
8000ae68:	00402825 	move	a1,v0
8000ae6c:	8fc60010 	lw	a2,16(s8)
8000ae70:	24070004 	li	a3,4
8000ae74:	0c002974 	jal	8000a5d0 <vfs_lookparent>
8000ae78:	00000000 	nop
8000ae7c:	afc20014 	sw	v0,20(s8)
8000ae80:	8fc20014 	lw	v0,20(s8)
8000ae84:	10400004 	beqz	v0,8000ae98 <vfs_create+0x6c>
8000ae88:	00000000 	nop
8000ae8c:	8fc20014 	lw	v0,20(s8)
8000ae90:	1000000f 	b	8000aed0 <vfs_create+0xa4>
8000ae94:	00000000 	nop
8000ae98:	8fc40010 	lw	a0,16(s8)
8000ae9c:	0c00167b 	jal	800059ec <fs_create>
8000aea0:	00000000 	nop
8000aea4:	afc20014 	sw	v0,20(s8)
8000aea8:	8fc20014 	lw	v0,20(s8)
8000aeac:	10400004 	beqz	v0,8000aec0 <vfs_create+0x94>
8000aeb0:	00000000 	nop
8000aeb4:	8fc20014 	lw	v0,20(s8)
8000aeb8:	10000005 	b	8000aed0 <vfs_create+0xa4>
8000aebc:	00000000 	nop
8000aec0:	8fc40010 	lw	a0,16(s8)
8000aec4:	0c003b13 	jal	8000ec4c <kfree>
8000aec8:	00000000 	nop
8000aecc:	8fc20014 	lw	v0,20(s8)
8000aed0:	03c0e825 	move	sp,s8
8000aed4:	8fbf0024 	lw	ra,36(sp)
8000aed8:	8fbe0020 	lw	s8,32(sp)
8000aedc:	27bd0028 	addiu	sp,sp,40
8000aee0:	03e00008 	jr	ra
8000aee4:	00000000 	nop

8000aee8 <vfs_cat>:
8000aee8:	27bdffd8 	addiu	sp,sp,-40
8000aeec:	afbf0024 	sw	ra,36(sp)
8000aef0:	afbe0020 	sw	s8,32(sp)
8000aef4:	03a0f025 	move	s8,sp
8000aef8:	afc40028 	sw	a0,40(s8)
8000aefc:	8fc40028 	lw	a0,40(s8)
8000af00:	0c005e71 	jal	800179c4 <kernel_strlen>
8000af04:	00000000 	nop
8000af08:	24420001 	addiu	v0,v0,1
8000af0c:	00402025 	move	a0,v0
8000af10:	0c003abb 	jal	8000eaec <kmalloc>
8000af14:	00000000 	nop
8000af18:	afc20010 	sw	v0,16(s8)
8000af1c:	27c20018 	addiu	v0,s8,24
8000af20:	8fc40028 	lw	a0,40(s8)
8000af24:	00402825 	move	a1,v0
8000af28:	8fc60010 	lw	a2,16(s8)
8000af2c:	24070004 	li	a3,4
8000af30:	0c002974 	jal	8000a5d0 <vfs_lookparent>
8000af34:	00000000 	nop
8000af38:	afc20014 	sw	v0,20(s8)
8000af3c:	8fc20014 	lw	v0,20(s8)
8000af40:	10400004 	beqz	v0,8000af54 <vfs_cat+0x6c>
8000af44:	00000000 	nop
8000af48:	8fc20014 	lw	v0,20(s8)
8000af4c:	1000000f 	b	8000af8c <vfs_cat+0xa4>
8000af50:	00000000 	nop
8000af54:	8fc40010 	lw	a0,16(s8)
8000af58:	0c001cd3 	jal	8000734c <fs_cat>
8000af5c:	00000000 	nop
8000af60:	afc20014 	sw	v0,20(s8)
8000af64:	8fc20014 	lw	v0,20(s8)
8000af68:	10400004 	beqz	v0,8000af7c <vfs_cat+0x94>
8000af6c:	00000000 	nop
8000af70:	8fc20014 	lw	v0,20(s8)
8000af74:	10000005 	b	8000af8c <vfs_cat+0xa4>
8000af78:	00000000 	nop
8000af7c:	8fc40010 	lw	a0,16(s8)
8000af80:	0c003b13 	jal	8000ec4c <kfree>
8000af84:	00000000 	nop
8000af88:	8fc20014 	lw	v0,20(s8)
8000af8c:	03c0e825 	move	sp,s8
8000af90:	8fbf0024 	lw	ra,36(sp)
8000af94:	8fbe0020 	lw	s8,32(sp)
8000af98:	27bd0028 	addiu	sp,sp,40
8000af9c:	03e00008 	jr	ra
8000afa0:	00000000 	nop

8000afa4 <vfs_link>:
8000afa4:	27bdfff8 	addiu	sp,sp,-8
8000afa8:	afbe0004 	sw	s8,4(sp)
8000afac:	03a0f025 	move	s8,sp
8000afb0:	afc40008 	sw	a0,8(s8)
8000afb4:	afc5000c 	sw	a1,12(s8)
8000afb8:	00001025 	move	v0,zero
8000afbc:	03c0e825 	move	sp,s8
8000afc0:	8fbe0004 	lw	s8,4(sp)
8000afc4:	27bd0008 	addiu	sp,sp,8
8000afc8:	03e00008 	jr	ra
8000afcc:	00000000 	nop

8000afd0 <vfs_symlink>:
8000afd0:	27bdfff8 	addiu	sp,sp,-8
8000afd4:	afbe0004 	sw	s8,4(sp)
8000afd8:	03a0f025 	move	s8,sp
8000afdc:	afc40008 	sw	a0,8(s8)
8000afe0:	afc5000c 	sw	a1,12(s8)
8000afe4:	00001025 	move	v0,zero
8000afe8:	03c0e825 	move	sp,s8
8000afec:	8fbe0004 	lw	s8,4(sp)
8000aff0:	27bd0008 	addiu	sp,sp,8
8000aff4:	03e00008 	jr	ra
8000aff8:	00000000 	nop

8000affc <vfs_readlink>:
8000affc:	27bdfff8 	addiu	sp,sp,-8
8000b000:	afbe0004 	sw	s8,4(sp)
8000b004:	03a0f025 	move	s8,sp
8000b008:	afc40008 	sw	a0,8(s8)
8000b00c:	afc5000c 	sw	a1,12(s8)
8000b010:	00001025 	move	v0,zero
8000b014:	03c0e825 	move	sp,s8
8000b018:	8fbe0004 	lw	s8,4(sp)
8000b01c:	27bd0008 	addiu	sp,sp,8
8000b020:	03e00008 	jr	ra
8000b024:	00000000 	nop

8000b028 <vfs_mkdir>:
8000b028:	27bdffd8 	addiu	sp,sp,-40
8000b02c:	afbf0024 	sw	ra,36(sp)
8000b030:	afbe0020 	sw	s8,32(sp)
8000b034:	03a0f025 	move	s8,sp
8000b038:	afc40028 	sw	a0,40(s8)
8000b03c:	afc5002c 	sw	a1,44(s8)
8000b040:	8fc40028 	lw	a0,40(s8)
8000b044:	0c005e71 	jal	800179c4 <kernel_strlen>
8000b048:	00000000 	nop
8000b04c:	24420001 	addiu	v0,v0,1
8000b050:	00402025 	move	a0,v0
8000b054:	0c003abb 	jal	8000eaec <kmalloc>
8000b058:	00000000 	nop
8000b05c:	afc20010 	sw	v0,16(s8)
8000b060:	27c20018 	addiu	v0,s8,24
8000b064:	8fc40028 	lw	a0,40(s8)
8000b068:	00402825 	move	a1,v0
8000b06c:	8fc60010 	lw	a2,16(s8)
8000b070:	24070004 	li	a3,4
8000b074:	0c002974 	jal	8000a5d0 <vfs_lookparent>
8000b078:	00000000 	nop
8000b07c:	afc20014 	sw	v0,20(s8)
8000b080:	8fc20014 	lw	v0,20(s8)
8000b084:	10400004 	beqz	v0,8000b098 <vfs_mkdir+0x70>
8000b088:	00000000 	nop
8000b08c:	8fc20014 	lw	v0,20(s8)
8000b090:	1000002b 	b	8000b140 <vfs_mkdir+0x118>
8000b094:	00000000 	nop
8000b098:	27c30018 	addiu	v1,s8,24
8000b09c:	3c028002 	lui	v0,0x8002
8000b0a0:	244484bc 	addiu	a0,v0,-31556
8000b0a4:	00602825 	move	a1,v1
8000b0a8:	00003025 	move	a2,zero
8000b0ac:	0c0025f1 	jal	800097c4 <vfs_getroot>
8000b0b0:	00000000 	nop
8000b0b4:	afc20014 	sw	v0,20(s8)
8000b0b8:	8fc20014 	lw	v0,20(s8)
8000b0bc:	10400004 	beqz	v0,8000b0d0 <vfs_mkdir+0xa8>
8000b0c0:	00000000 	nop
8000b0c4:	8fc20014 	lw	v0,20(s8)
8000b0c8:	1000001d 	b	8000b140 <vfs_mkdir+0x118>
8000b0cc:	00000000 	nop
8000b0d0:	8fc20018 	lw	v0,24(s8)
8000b0d4:	00402025 	move	a0,v0
8000b0d8:	3c028002 	lui	v0,0x8002
8000b0dc:	244584d0 	addiu	a1,v0,-31536
8000b0e0:	0c002db8 	jal	8000b6e0 <vnode_check>
8000b0e4:	00000000 	nop
8000b0e8:	8fc20018 	lw	v0,24(s8)
8000b0ec:	8c420010 	lw	v0,16(v0)
8000b0f0:	8c420048 	lw	v0,72(v0)
8000b0f4:	8fc30018 	lw	v1,24(s8)
8000b0f8:	00602025 	move	a0,v1
8000b0fc:	8fc50010 	lw	a1,16(s8)
8000b100:	8fc6002c 	lw	a2,44(s8)
8000b104:	0040f809 	jalr	v0
8000b108:	00000000 	nop
8000b10c:	afc20014 	sw	v0,20(s8)
8000b110:	8fc20018 	lw	v0,24(s8)
8000b114:	00402025 	move	a0,v0
8000b118:	0c002d0d 	jal	8000b434 <vnode_decref>
8000b11c:	00000000 	nop
8000b120:	8fc40010 	lw	a0,16(s8)
8000b124:	0c003b13 	jal	8000ec4c <kfree>
8000b128:	00000000 	nop
8000b12c:	3c028002 	lui	v0,0x8002
8000b130:	244484d8 	addiu	a0,v0,-31528
8000b134:	0c000aaa 	jal	80002aa8 <kernel_printf>
8000b138:	00000000 	nop
8000b13c:	8fc20014 	lw	v0,20(s8)
8000b140:	03c0e825 	move	sp,s8
8000b144:	8fbf0024 	lw	ra,36(sp)
8000b148:	8fbe0020 	lw	s8,32(sp)
8000b14c:	27bd0028 	addiu	sp,sp,40
8000b150:	03e00008 	jr	ra
8000b154:	00000000 	nop

8000b158 <vfs_rmdir>:
8000b158:	27bdfff8 	addiu	sp,sp,-8
8000b15c:	afbe0004 	sw	s8,4(sp)
8000b160:	03a0f025 	move	s8,sp
8000b164:	afc40008 	sw	a0,8(s8)
8000b168:	00001025 	move	v0,zero
8000b16c:	03c0e825 	move	sp,s8
8000b170:	8fbe0004 	lw	s8,4(sp)
8000b174:	27bd0008 	addiu	sp,sp,8
8000b178:	03e00008 	jr	ra
8000b17c:	00000000 	nop

8000b180 <vnode_init>:
8000b180:	27bdffe8 	addiu	sp,sp,-24
8000b184:	afbf0014 	sw	ra,20(sp)
8000b188:	afbe0010 	sw	s8,16(sp)
8000b18c:	03a0f025 	move	s8,sp
8000b190:	afc40018 	sw	a0,24(s8)
8000b194:	afc5001c 	sw	a1,28(s8)
8000b198:	afc60020 	sw	a2,32(s8)
8000b19c:	afc70024 	sw	a3,36(s8)
8000b1a0:	8fc20018 	lw	v0,24(s8)
8000b1a4:	14400007 	bnez	v0,8000b1c4 <vnode_init+0x44>
8000b1a8:	00000000 	nop
8000b1ac:	3c028002 	lui	v0,0x8002
8000b1b0:	24448504 	addiu	a0,v0,-31484
8000b1b4:	3c028002 	lui	v0,0x8002
8000b1b8:	24458510 	addiu	a1,v0,-31472
8000b1bc:	0c005c3f 	jal	800170fc <badassert>
8000b1c0:	00000000 	nop
8000b1c4:	8fc2001c 	lw	v0,28(s8)
8000b1c8:	14400007 	bnez	v0,8000b1e8 <vnode_init+0x68>
8000b1cc:	00000000 	nop
8000b1d0:	3c028002 	lui	v0,0x8002
8000b1d4:	24448520 	addiu	a0,v0,-31456
8000b1d8:	3c028002 	lui	v0,0x8002
8000b1dc:	2445852c 	addiu	a1,v0,-31444
8000b1e0:	0c005c3f 	jal	800170fc <badassert>
8000b1e4:	00000000 	nop
8000b1e8:	8fc20018 	lw	v0,24(s8)
8000b1ec:	8fc3001c 	lw	v1,28(s8)
8000b1f0:	ac430010 	sw	v1,16(v0)
8000b1f4:	8fc20018 	lw	v0,24(s8)
8000b1f8:	24030001 	li	v1,1
8000b1fc:	ac430000 	sw	v1,0(v0)
8000b200:	8fc20018 	lw	v0,24(s8)
8000b204:	ac400004 	sw	zero,4(v0)
8000b208:	8fc20018 	lw	v0,24(s8)
8000b20c:	8fc30020 	lw	v1,32(s8)
8000b210:	ac430008 	sw	v1,8(v0)
8000b214:	8fc20018 	lw	v0,24(s8)
8000b218:	8fc30024 	lw	v1,36(s8)
8000b21c:	ac43000c 	sw	v1,12(v0)
8000b220:	3c028002 	lui	v0,0x8002
8000b224:	24448544 	addiu	a0,v0,-31420
8000b228:	0c0047b7 	jal	80011edc <lock_create>
8000b22c:	00000000 	nop
8000b230:	00401825 	move	v1,v0
8000b234:	8fc20018 	lw	v0,24(s8)
8000b238:	ac430014 	sw	v1,20(v0)
8000b23c:	8fc20018 	lw	v0,24(s8)
8000b240:	8c420014 	lw	v0,20(v0)
8000b244:	14400004 	bnez	v0,8000b258 <vnode_init+0xd8>
8000b248:	00000000 	nop
8000b24c:	24020003 	li	v0,3
8000b250:	1000001e 	b	8000b2cc <vnode_init+0x14c>
8000b254:	00000000 	nop
8000b258:	3c028002 	lui	v0,0x8002
8000b25c:	24448554 	addiu	a0,v0,-31404
8000b260:	0c0047b7 	jal	80011edc <lock_create>
8000b264:	00000000 	nop
8000b268:	00401825 	move	v1,v0
8000b26c:	8fc20018 	lw	v0,24(s8)
8000b270:	ac430018 	sw	v1,24(v0)
8000b274:	8fc20018 	lw	v0,24(s8)
8000b278:	8c420018 	lw	v0,24(v0)
8000b27c:	14400004 	bnez	v0,8000b290 <vnode_init+0x110>
8000b280:	00000000 	nop
8000b284:	24020003 	li	v0,3
8000b288:	10000010 	b	8000b2cc <vnode_init+0x14c>
8000b28c:	00000000 	nop
8000b290:	3c028002 	lui	v0,0x8002
8000b294:	24448568 	addiu	a0,v0,-31384
8000b298:	0c0047b7 	jal	80011edc <lock_create>
8000b29c:	00000000 	nop
8000b2a0:	00401825 	move	v1,v0
8000b2a4:	8fc20018 	lw	v0,24(s8)
8000b2a8:	ac43001c 	sw	v1,28(v0)
8000b2ac:	8fc20018 	lw	v0,24(s8)
8000b2b0:	8c42001c 	lw	v0,28(v0)
8000b2b4:	14400004 	bnez	v0,8000b2c8 <vnode_init+0x148>
8000b2b8:	00000000 	nop
8000b2bc:	24020003 	li	v0,3
8000b2c0:	10000002 	b	8000b2cc <vnode_init+0x14c>
8000b2c4:	00000000 	nop
8000b2c8:	00001025 	move	v0,zero
8000b2cc:	03c0e825 	move	sp,s8
8000b2d0:	8fbf0014 	lw	ra,20(sp)
8000b2d4:	8fbe0010 	lw	s8,16(sp)
8000b2d8:	27bd0018 	addiu	sp,sp,24
8000b2dc:	03e00008 	jr	ra
8000b2e0:	00000000 	nop

8000b2e4 <vnode_cleanup>:
8000b2e4:	27bdffe8 	addiu	sp,sp,-24
8000b2e8:	afbf0014 	sw	ra,20(sp)
8000b2ec:	afbe0010 	sw	s8,16(sp)
8000b2f0:	03a0f025 	move	s8,sp
8000b2f4:	afc40018 	sw	a0,24(s8)
8000b2f8:	8fc20018 	lw	v0,24(s8)
8000b2fc:	8c430000 	lw	v1,0(v0)
8000b300:	24020001 	li	v0,1
8000b304:	10620007 	beq	v1,v0,8000b324 <vnode_cleanup+0x40>
8000b308:	00000000 	nop
8000b30c:	3c028002 	lui	v0,0x8002
8000b310:	24448578 	addiu	a0,v0,-31368
8000b314:	3c028002 	lui	v0,0x8002
8000b318:	24458590 	addiu	a1,v0,-31344
8000b31c:	0c005c3f 	jal	800170fc <badassert>
8000b320:	00000000 	nop
8000b324:	8fc20018 	lw	v0,24(s8)
8000b328:	8c420004 	lw	v0,4(v0)
8000b32c:	10400007 	beqz	v0,8000b34c <vnode_cleanup+0x68>
8000b330:	00000000 	nop
8000b334:	3c028002 	lui	v0,0x8002
8000b338:	244485bc 	addiu	a0,v0,-31300
8000b33c:	3c028002 	lui	v0,0x8002
8000b340:	244585d4 	addiu	a1,v0,-31276
8000b344:	0c005c3f 	jal	800170fc <badassert>
8000b348:	00000000 	nop
8000b34c:	8fc20018 	lw	v0,24(s8)
8000b350:	8c42001c 	lw	v0,28(v0)
8000b354:	14400007 	bnez	v0,8000b374 <vnode_cleanup+0x90>
8000b358:	00000000 	nop
8000b35c:	3c028002 	lui	v0,0x8002
8000b360:	244485fc 	addiu	a0,v0,-31236
8000b364:	3c028002 	lui	v0,0x8002
8000b368:	24458618 	addiu	a1,v0,-31208
8000b36c:	0c005c3f 	jal	800170fc <badassert>
8000b370:	00000000 	nop
8000b374:	8fc20018 	lw	v0,24(s8)
8000b378:	8c42001c 	lw	v0,28(v0)
8000b37c:	00402025 	move	a0,v0
8000b380:	0c004803 	jal	8001200c <lock_destroy>
8000b384:	00000000 	nop
8000b388:	8fc20018 	lw	v0,24(s8)
8000b38c:	ac400010 	sw	zero,16(v0)
8000b390:	8fc20018 	lw	v0,24(s8)
8000b394:	ac400000 	sw	zero,0(v0)
8000b398:	8fc20018 	lw	v0,24(s8)
8000b39c:	ac400004 	sw	zero,4(v0)
8000b3a0:	8fc20018 	lw	v0,24(s8)
8000b3a4:	ac400008 	sw	zero,8(v0)
8000b3a8:	8fc20018 	lw	v0,24(s8)
8000b3ac:	ac40001c 	sw	zero,28(v0)
8000b3b0:	8fc20018 	lw	v0,24(s8)
8000b3b4:	ac40000c 	sw	zero,12(v0)
8000b3b8:	03c0e825 	move	sp,s8
8000b3bc:	8fbf0014 	lw	ra,20(sp)
8000b3c0:	8fbe0010 	lw	s8,16(sp)
8000b3c4:	27bd0018 	addiu	sp,sp,24
8000b3c8:	03e00008 	jr	ra
8000b3cc:	00000000 	nop

8000b3d0 <vnode_incref>:
8000b3d0:	27bdffe8 	addiu	sp,sp,-24
8000b3d4:	afbf0014 	sw	ra,20(sp)
8000b3d8:	afbe0010 	sw	s8,16(sp)
8000b3dc:	03a0f025 	move	s8,sp
8000b3e0:	afc40018 	sw	a0,24(s8)
8000b3e4:	8fc20018 	lw	v0,24(s8)
8000b3e8:	14400007 	bnez	v0,8000b408 <vnode_incref+0x38>
8000b3ec:	00000000 	nop
8000b3f0:	3c028002 	lui	v0,0x8002
8000b3f4:	24448504 	addiu	a0,v0,-31484
8000b3f8:	3c028002 	lui	v0,0x8002
8000b3fc:	24458510 	addiu	a1,v0,-31472
8000b400:	0c005c3f 	jal	800170fc <badassert>
8000b404:	00000000 	nop
8000b408:	8fc20018 	lw	v0,24(s8)
8000b40c:	8c420000 	lw	v0,0(v0)
8000b410:	24430001 	addiu	v1,v0,1
8000b414:	8fc20018 	lw	v0,24(s8)
8000b418:	ac430000 	sw	v1,0(v0)
8000b41c:	03c0e825 	move	sp,s8
8000b420:	8fbf0014 	lw	ra,20(sp)
8000b424:	8fbe0010 	lw	s8,16(sp)
8000b428:	27bd0018 	addiu	sp,sp,24
8000b42c:	03e00008 	jr	ra
8000b430:	00000000 	nop

8000b434 <vnode_decref>:
8000b434:	27bdffe0 	addiu	sp,sp,-32
8000b438:	afbf001c 	sw	ra,28(sp)
8000b43c:	afbe0018 	sw	s8,24(sp)
8000b440:	03a0f025 	move	s8,sp
8000b444:	afc40020 	sw	a0,32(s8)
8000b448:	afc00010 	sw	zero,16(s8)
8000b44c:	8fc20020 	lw	v0,32(s8)
8000b450:	14400007 	bnez	v0,8000b470 <vnode_decref+0x3c>
8000b454:	00000000 	nop
8000b458:	3c028002 	lui	v0,0x8002
8000b45c:	24448504 	addiu	a0,v0,-31484
8000b460:	3c028002 	lui	v0,0x8002
8000b464:	24458510 	addiu	a1,v0,-31472
8000b468:	0c005c3f 	jal	800170fc <badassert>
8000b46c:	00000000 	nop
8000b470:	8fc20020 	lw	v0,32(s8)
8000b474:	8c420000 	lw	v0,0(v0)
8000b478:	1c400007 	bgtz	v0,8000b498 <vnode_decref+0x64>
8000b47c:	00000000 	nop
8000b480:	3c028002 	lui	v0,0x8002
8000b484:	2444862c 	addiu	a0,v0,-31188
8000b488:	3c028002 	lui	v0,0x8002
8000b48c:	24458640 	addiu	a1,v0,-31168
8000b490:	0c005c3f 	jal	800170fc <badassert>
8000b494:	00000000 	nop
8000b498:	8fc20020 	lw	v0,32(s8)
8000b49c:	8c420000 	lw	v0,0(v0)
8000b4a0:	28420002 	slti	v0,v0,2
8000b4a4:	14400008 	bnez	v0,8000b4c8 <vnode_decref+0x94>
8000b4a8:	00000000 	nop
8000b4ac:	8fc20020 	lw	v0,32(s8)
8000b4b0:	8c420000 	lw	v0,0(v0)
8000b4b4:	2443ffff 	addiu	v1,v0,-1
8000b4b8:	8fc20020 	lw	v0,32(s8)
8000b4bc:	ac430000 	sw	v1,0(v0)
8000b4c0:	10000003 	b	8000b4d0 <vnode_decref+0x9c>
8000b4c4:	00000000 	nop
8000b4c8:	24020001 	li	v0,1
8000b4cc:	afc20010 	sw	v0,16(s8)
8000b4d0:	8fc20010 	lw	v0,16(s8)
8000b4d4:	1040001d 	beqz	v0,8000b54c <vnode_decref+0x118>
8000b4d8:	00000000 	nop
8000b4dc:	8fc40020 	lw	a0,32(s8)
8000b4e0:	3c028002 	lui	v0,0x8002
8000b4e4:	24458660 	addiu	a1,v0,-31136
8000b4e8:	0c002db8 	jal	8000b6e0 <vnode_check>
8000b4ec:	00000000 	nop
8000b4f0:	8fc20020 	lw	v0,32(s8)
8000b4f4:	8c420010 	lw	v0,16(v0)
8000b4f8:	8c42000c 	lw	v0,12(v0)
8000b4fc:	8fc40020 	lw	a0,32(s8)
8000b500:	0040f809 	jalr	v0
8000b504:	00000000 	nop
8000b508:	afc20014 	sw	v0,20(s8)
8000b50c:	8fc20014 	lw	v0,20(s8)
8000b510:	1040000e 	beqz	v0,8000b54c <vnode_decref+0x118>
8000b514:	00000000 	nop
8000b518:	8fc30014 	lw	v1,20(s8)
8000b51c:	2402001b 	li	v0,27
8000b520:	1062000a 	beq	v1,v0,8000b54c <vnode_decref+0x118>
8000b524:	00000000 	nop
8000b528:	8fc40014 	lw	a0,20(s8)
8000b52c:	0c005ce8 	jal	800173a0 <strerror>
8000b530:	00000000 	nop
8000b534:	00401825 	move	v1,v0
8000b538:	3c028002 	lui	v0,0x8002
8000b53c:	24448668 	addiu	a0,v0,-31128
8000b540:	00602825 	move	a1,v1
8000b544:	0c000aaa 	jal	80002aa8 <kernel_printf>
8000b548:	00000000 	nop
8000b54c:	03c0e825 	move	sp,s8
8000b550:	8fbf001c 	lw	ra,28(sp)
8000b554:	8fbe0018 	lw	s8,24(sp)
8000b558:	27bd0020 	addiu	sp,sp,32
8000b55c:	03e00008 	jr	ra
8000b560:	00000000 	nop

8000b564 <vnode_incopen>:
8000b564:	27bdffe8 	addiu	sp,sp,-24
8000b568:	afbf0014 	sw	ra,20(sp)
8000b56c:	afbe0010 	sw	s8,16(sp)
8000b570:	03a0f025 	move	s8,sp
8000b574:	afc40018 	sw	a0,24(s8)
8000b578:	8fc20018 	lw	v0,24(s8)
8000b57c:	14400007 	bnez	v0,8000b59c <vnode_incopen+0x38>
8000b580:	00000000 	nop
8000b584:	3c028002 	lui	v0,0x8002
8000b588:	24448504 	addiu	a0,v0,-31484
8000b58c:	3c028002 	lui	v0,0x8002
8000b590:	24458510 	addiu	a1,v0,-31472
8000b594:	0c005c3f 	jal	800170fc <badassert>
8000b598:	00000000 	nop
8000b59c:	8fc20018 	lw	v0,24(s8)
8000b5a0:	8c420004 	lw	v0,4(v0)
8000b5a4:	24430001 	addiu	v1,v0,1
8000b5a8:	8fc20018 	lw	v0,24(s8)
8000b5ac:	ac430004 	sw	v1,4(v0)
8000b5b0:	03c0e825 	move	sp,s8
8000b5b4:	8fbf0014 	lw	ra,20(sp)
8000b5b8:	8fbe0010 	lw	s8,16(sp)
8000b5bc:	27bd0018 	addiu	sp,sp,24
8000b5c0:	03e00008 	jr	ra
8000b5c4:	00000000 	nop

8000b5c8 <vnode_decopen>:
8000b5c8:	27bdffe0 	addiu	sp,sp,-32
8000b5cc:	afbf001c 	sw	ra,28(sp)
8000b5d0:	afbe0018 	sw	s8,24(sp)
8000b5d4:	03a0f025 	move	s8,sp
8000b5d8:	afc40020 	sw	a0,32(s8)
8000b5dc:	8fc20020 	lw	v0,32(s8)
8000b5e0:	14400007 	bnez	v0,8000b600 <vnode_decopen+0x38>
8000b5e4:	00000000 	nop
8000b5e8:	3c028002 	lui	v0,0x8002
8000b5ec:	24448504 	addiu	a0,v0,-31484
8000b5f0:	3c028002 	lui	v0,0x8002
8000b5f4:	24458510 	addiu	a1,v0,-31472
8000b5f8:	0c005c3f 	jal	800170fc <badassert>
8000b5fc:	00000000 	nop
8000b600:	8fc20020 	lw	v0,32(s8)
8000b604:	8c420004 	lw	v0,4(v0)
8000b608:	1c400007 	bgtz	v0,8000b628 <vnode_decopen+0x60>
8000b60c:	00000000 	nop
8000b610:	3c028002 	lui	v0,0x8002
8000b614:	24448688 	addiu	a0,v0,-31096
8000b618:	3c028002 	lui	v0,0x8002
8000b61c:	24458640 	addiu	a1,v0,-31168
8000b620:	0c005c3f 	jal	800170fc <badassert>
8000b624:	00000000 	nop
8000b628:	8fc20020 	lw	v0,32(s8)
8000b62c:	8c420004 	lw	v0,4(v0)
8000b630:	2443ffff 	addiu	v1,v0,-1
8000b634:	8fc20020 	lw	v0,32(s8)
8000b638:	ac430004 	sw	v1,4(v0)
8000b63c:	8fc20020 	lw	v0,32(s8)
8000b640:	8c420004 	lw	v0,4(v0)
8000b644:	18400008 	blez	v0,8000b668 <vnode_decopen+0xa0>
8000b648:	00000000 	nop
8000b64c:	8fc20020 	lw	v0,32(s8)
8000b650:	8c42001c 	lw	v0,28(v0)
8000b654:	00402025 	move	a0,v0
8000b658:	0c0048ac 	jal	800122b0 <lock_release>
8000b65c:	00000000 	nop
8000b660:	10000019 	b	8000b6c8 <vnode_decopen+0x100>
8000b664:	00000000 	nop
8000b668:	8fc40020 	lw	a0,32(s8)
8000b66c:	3c028002 	lui	v0,0x8002
8000b670:	244586a0 	addiu	a1,v0,-31072
8000b674:	0c002db8 	jal	8000b6e0 <vnode_check>
8000b678:	00000000 	nop
8000b67c:	8fc20020 	lw	v0,32(s8)
8000b680:	8c420010 	lw	v0,16(v0)
8000b684:	8c420008 	lw	v0,8(v0)
8000b688:	8fc40020 	lw	a0,32(s8)
8000b68c:	0040f809 	jalr	v0
8000b690:	00000000 	nop
8000b694:	afc20010 	sw	v0,16(s8)
8000b698:	8fc20010 	lw	v0,16(s8)
8000b69c:	1040000a 	beqz	v0,8000b6c8 <vnode_decopen+0x100>
8000b6a0:	00000000 	nop
8000b6a4:	8fc40010 	lw	a0,16(s8)
8000b6a8:	0c005ce8 	jal	800173a0 <strerror>
8000b6ac:	00000000 	nop
8000b6b0:	00401825 	move	v1,v0
8000b6b4:	3c028002 	lui	v0,0x8002
8000b6b8:	244486a8 	addiu	a0,v0,-31064
8000b6bc:	00602825 	move	a1,v1
8000b6c0:	0c000aaa 	jal	80002aa8 <kernel_printf>
8000b6c4:	00000000 	nop
8000b6c8:	03c0e825 	move	sp,s8
8000b6cc:	8fbf001c 	lw	ra,28(sp)
8000b6d0:	8fbe0018 	lw	s8,24(sp)
8000b6d4:	27bd0020 	addiu	sp,sp,32
8000b6d8:	03e00008 	jr	ra
8000b6dc:	00000000 	nop

8000b6e0 <vnode_check>:
8000b6e0:	27bdffe8 	addiu	sp,sp,-24
8000b6e4:	afbf0014 	sw	ra,20(sp)
8000b6e8:	afbe0010 	sw	s8,16(sp)
8000b6ec:	03a0f025 	move	s8,sp
8000b6f0:	afc40018 	sw	a0,24(s8)
8000b6f4:	afc5001c 	sw	a1,28(s8)
8000b6f8:	8fc20018 	lw	v0,24(s8)
8000b6fc:	14400007 	bnez	v0,8000b71c <vnode_check+0x3c>
8000b700:	00000000 	nop
8000b704:	24040001 	li	a0,1
8000b708:	3c028002 	lui	v0,0x8002
8000b70c:	244586c8 	addiu	a1,v0,-31032
8000b710:	8fc6001c 	lw	a2,28(s8)
8000b714:	0c005c6a 	jal	800171a8 <log>
8000b718:	00000000 	nop
8000b71c:	8fc30018 	lw	v1,24(s8)
8000b720:	3c02dead 	lui	v0,0xdead
8000b724:	3442beef 	ori	v0,v0,0xbeef
8000b728:	14620007 	bne	v1,v0,8000b748 <vnode_check+0x68>
8000b72c:	00000000 	nop
8000b730:	24040001 	li	a0,1
8000b734:	3c028002 	lui	v0,0x8002
8000b738:	244586ec 	addiu	a1,v0,-30996
8000b73c:	8fc6001c 	lw	a2,28(s8)
8000b740:	0c005c6a 	jal	800171a8 <log>
8000b744:	00000000 	nop
8000b748:	8fc20018 	lw	v0,24(s8)
8000b74c:	8c420010 	lw	v0,16(v0)
8000b750:	14400007 	bnez	v0,8000b770 <vnode_check+0x90>
8000b754:	00000000 	nop
8000b758:	24040001 	li	a0,1
8000b75c:	3c028002 	lui	v0,0x8002
8000b760:	24458714 	addiu	a1,v0,-30956
8000b764:	8fc6001c 	lw	a2,28(s8)
8000b768:	0c005c6a 	jal	800171a8 <log>
8000b76c:	00000000 	nop
8000b770:	8fc20018 	lw	v0,24(s8)
8000b774:	8c430010 	lw	v1,16(v0)
8000b778:	3c02dead 	lui	v0,0xdead
8000b77c:	3442beef 	ori	v0,v0,0xbeef
8000b780:	14620007 	bne	v1,v0,8000b7a0 <vnode_check+0xc0>
8000b784:	00000000 	nop
8000b788:	24040001 	li	a0,1
8000b78c:	3c028002 	lui	v0,0x8002
8000b790:	2445873c 	addiu	a1,v0,-30916
8000b794:	8fc6001c 	lw	a2,28(s8)
8000b798:	0c005c6a 	jal	800171a8 <log>
8000b79c:	00000000 	nop
8000b7a0:	8fc20018 	lw	v0,24(s8)
8000b7a4:	8c420010 	lw	v0,16(v0)
8000b7a8:	8c430000 	lw	v1,0(v0)
8000b7ac:	3c02a2b3 	lui	v0,0xa2b3
8000b7b0:	3442c4d5 	ori	v0,v0,0xc4d5
8000b7b4:	1062000b 	beq	v1,v0,8000b7e4 <vnode_check+0x104>
8000b7b8:	00000000 	nop
8000b7bc:	8fc20018 	lw	v0,24(s8)
8000b7c0:	8c420010 	lw	v0,16(v0)
8000b7c4:	8c430000 	lw	v1,0(v0)
8000b7c8:	24040001 	li	a0,1
8000b7cc:	3c028002 	lui	v0,0x8002
8000b7d0:	24458768 	addiu	a1,v0,-30872
8000b7d4:	8fc6001c 	lw	a2,28(s8)
8000b7d8:	00603825 	move	a3,v1
8000b7dc:	0c005c6a 	jal	800171a8 <log>
8000b7e0:	00000000 	nop
8000b7e4:	8fc20018 	lw	v0,24(s8)
8000b7e8:	8c430008 	lw	v1,8(v0)
8000b7ec:	3c02dead 	lui	v0,0xdead
8000b7f0:	3442beef 	ori	v0,v0,0xbeef
8000b7f4:	14620007 	bne	v1,v0,8000b814 <vnode_check+0x134>
8000b7f8:	00000000 	nop
8000b7fc:	24040001 	li	a0,1
8000b800:	3c028002 	lui	v0,0x8002
8000b804:	2445879c 	addiu	a1,v0,-30820
8000b808:	8fc6001c 	lw	a2,28(s8)
8000b80c:	0c005c6a 	jal	800171a8 <log>
8000b810:	00000000 	nop
8000b814:	8fc20018 	lw	v0,24(s8)
8000b818:	8c420000 	lw	v0,0(v0)
8000b81c:	0441000c 	bgez	v0,8000b850 <vnode_check+0x170>
8000b820:	00000000 	nop
8000b824:	8fc20018 	lw	v0,24(s8)
8000b828:	8c430000 	lw	v1,0(v0)
8000b82c:	24040001 	li	a0,1
8000b830:	3c028002 	lui	v0,0x8002
8000b834:	244587c8 	addiu	a1,v0,-30776
8000b838:	8fc6001c 	lw	a2,28(s8)
8000b83c:	00603825 	move	a3,v1
8000b840:	0c005c6a 	jal	800171a8 <log>
8000b844:	00000000 	nop
8000b848:	10000023 	b	8000b8d8 <vnode_check+0x1f8>
8000b84c:	00000000 	nop
8000b850:	8fc20018 	lw	v0,24(s8)
8000b854:	8c420000 	lw	v0,0(v0)
8000b858:	14400010 	bnez	v0,8000b89c <vnode_check+0x1bc>
8000b85c:	00000000 	nop
8000b860:	8fc4001c 	lw	a0,28(s8)
8000b864:	3c028002 	lui	v0,0x8002
8000b868:	24458660 	addiu	a1,v0,-31136
8000b86c:	0c005e4f 	jal	8001793c <kernel_strcmp>
8000b870:	00000000 	nop
8000b874:	10400009 	beqz	v0,8000b89c <vnode_check+0x1bc>
8000b878:	00000000 	nop
8000b87c:	24040001 	li	a0,1
8000b880:	3c028002 	lui	v0,0x8002
8000b884:	244587f4 	addiu	a1,v0,-30732
8000b888:	8fc6001c 	lw	a2,28(s8)
8000b88c:	0c005c6a 	jal	800171a8 <log>
8000b890:	00000000 	nop
8000b894:	10000010 	b	8000b8d8 <vnode_check+0x1f8>
8000b898:	00000000 	nop
8000b89c:	8fc20018 	lw	v0,24(s8)
8000b8a0:	8c430000 	lw	v1,0(v0)
8000b8a4:	3c020010 	lui	v0,0x10
8000b8a8:	34420001 	ori	v0,v0,0x1
8000b8ac:	0062102a 	slt	v0,v1,v0
8000b8b0:	14400009 	bnez	v0,8000b8d8 <vnode_check+0x1f8>
8000b8b4:	00000000 	nop
8000b8b8:	8fc20018 	lw	v0,24(s8)
8000b8bc:	8c430000 	lw	v1,0(v0)
8000b8c0:	3c028002 	lui	v0,0x8002
8000b8c4:	24448818 	addiu	a0,v0,-30696
8000b8c8:	8fc5001c 	lw	a1,28(s8)
8000b8cc:	00603025 	move	a2,v1
8000b8d0:	0c000aaa 	jal	80002aa8 <kernel_printf>
8000b8d4:	00000000 	nop
8000b8d8:	8fc20018 	lw	v0,24(s8)
8000b8dc:	8c420004 	lw	v0,4(v0)
8000b8e0:	0441000c 	bgez	v0,8000b914 <vnode_check+0x234>
8000b8e4:	00000000 	nop
8000b8e8:	8fc20018 	lw	v0,24(s8)
8000b8ec:	8c430004 	lw	v1,4(v0)
8000b8f0:	24040001 	li	a0,1
8000b8f4:	3c028002 	lui	v0,0x8002
8000b8f8:	2445884c 	addiu	a1,v0,-30644
8000b8fc:	8fc6001c 	lw	a2,28(s8)
8000b900:	00603825 	move	a3,v1
8000b904:	0c005c6a 	jal	800171a8 <log>
8000b908:	00000000 	nop
8000b90c:	10000010 	b	8000b950 <vnode_check+0x270>
8000b910:	00000000 	nop
8000b914:	8fc20018 	lw	v0,24(s8)
8000b918:	8c430004 	lw	v1,4(v0)
8000b91c:	3c020010 	lui	v0,0x10
8000b920:	34420001 	ori	v0,v0,0x1
8000b924:	0062102a 	slt	v0,v1,v0
8000b928:	14400009 	bnez	v0,8000b950 <vnode_check+0x270>
8000b92c:	00000000 	nop
8000b930:	8fc20018 	lw	v0,24(s8)
8000b934:	8c430004 	lw	v1,4(v0)
8000b938:	3c028002 	lui	v0,0x8002
8000b93c:	24448878 	addiu	a0,v0,-30600
8000b940:	8fc5001c 	lw	a1,28(s8)
8000b944:	00603025 	move	a2,v1
8000b948:	0c000aaa 	jal	80002aa8 <kernel_printf>
8000b94c:	00000000 	nop
8000b950:	03c0e825 	move	sp,s8
8000b954:	8fbf0014 	lw	ra,20(sp)
8000b958:	8fbe0010 	lw	s8,16(sp)
8000b95c:	27bd0018 	addiu	sp,sp,24
8000b960:	03e00008 	jr	ra
8000b964:	00000000 	nop

8000b968 <machine_info>:
8000b968:	27bdffe0 	addiu	sp,sp,-32
8000b96c:	afbf001c 	sw	ra,28(sp)
8000b970:	afbe0018 	sw	s8,24(sp)
8000b974:	03a0f025 	move	s8,sp
8000b978:	3c028002 	lui	v0,0x8002
8000b97c:	24448904 	addiu	a0,v0,-30460
8000b980:	3c028002 	lui	v0,0x8002
8000b984:	24458920 	addiu	a1,v0,-30432
8000b988:	3c028002 	lui	v0,0x8002
8000b98c:	24468924 	addiu	a2,v0,-30428
8000b990:	0c000aaa 	jal	80002aa8 <kernel_printf>
8000b994:	00000000 	nop
8000b998:	3c028002 	lui	v0,0x8002
8000b99c:	2444892c 	addiu	a0,v0,-30420
8000b9a0:	3c028002 	lui	v0,0x8002
8000b9a4:	244588ac 	addiu	a1,v0,-30548
8000b9a8:	0c000aaa 	jal	80002aa8 <kernel_printf>
8000b9ac:	00000000 	nop
8000b9b0:	8f8280b0 	lw	v0,-32592(gp)
8000b9b4:	afc20010 	sw	v0,16(s8)
8000b9b8:	8f8280ac 	lw	v0,-32596(gp)
8000b9bc:	afc20014 	sw	v0,20(s8)
8000b9c0:	2402001d 	li	v0,29
8000b9c4:	af8280b0 	sw	v0,-32592(gp)
8000b9c8:	24030001 	li	v1,1
8000b9cc:	3c028002 	lui	v0,0x8002
8000b9d0:	24448930 	addiu	a0,v0,-30416
8000b9d4:	3c028002 	lui	v0,0x8002
8000b9d8:	2445894c 	addiu	a1,v0,-30388
8000b9dc:	27868064 	addiu	a2,gp,-32668
8000b9e0:	00603825 	move	a3,v1
8000b9e4:	0c000aaa 	jal	80002aa8 <kernel_printf>
8000b9e8:	00000000 	nop
8000b9ec:	8fc20010 	lw	v0,16(s8)
8000b9f0:	af8280b0 	sw	v0,-32592(gp)
8000b9f4:	8fc20014 	lw	v0,20(s8)
8000b9f8:	af8280ac 	sw	v0,-32596(gp)
8000b9fc:	0c00077b 	jal	80001dec <kernel_set_cursor>
8000ba00:	00000000 	nop
8000ba04:	03c0e825 	move	sp,s8
8000ba08:	8fbf001c 	lw	ra,28(sp)
8000ba0c:	8fbe0018 	lw	s8,24(sp)
8000ba10:	27bd0020 	addiu	sp,sp,32
8000ba14:	03e00008 	jr	ra
8000ba18:	00000000 	nop

8000ba1c <init_kernel>:
8000ba1c:	27bdffe8 	addiu	sp,sp,-24
8000ba20:	afbf0014 	sw	ra,20(sp)
8000ba24:	afbe0010 	sw	s8,16(sp)
8000ba28:	03a0f025 	move	s8,sp
8000ba2c:	2404001f 	li	a0,31
8000ba30:	0c0007a3 	jal	80001e8c <kernel_clear_screen>
8000ba34:	00000000 	nop
8000ba38:	0c00044c 	jal	80001130 <init_exception>
8000ba3c:	00000000 	nop
8000ba40:	0c0004d4 	jal	80001350 <init_pgtable>
8000ba44:	00000000 	nop
8000ba48:	0c00078f 	jal	80001e3c <init_vga>
8000ba4c:	00000000 	nop
8000ba50:	0c000509 	jal	80001424 <init_ps2>
8000ba54:	00000000 	nop
8000ba58:	0c0051e9 	jal	800147a4 <init_time>
8000ba5c:	00000000 	nop
8000ba60:	24040002 	li	a0,2
8000ba64:	3c028002 	lui	v0,0x8002
8000ba68:	24458950 	addiu	a1,v0,-30384
8000ba6c:	0c005c6a 	jal	800171a8 <log>
8000ba70:	00000000 	nop
8000ba74:	0c0030dd 	jal	8000c374 <init_bootmm>
8000ba78:	00000000 	nop
8000ba7c:	00002025 	move	a0,zero
8000ba80:	3c028002 	lui	v0,0x8002
8000ba84:	24458960 	addiu	a1,v0,-30368
8000ba88:	0c005c6a 	jal	800171a8 <log>
8000ba8c:	00000000 	nop
8000ba90:	0c00353b 	jal	8000d4ec <init_buddy>
8000ba94:	00000000 	nop
8000ba98:	00002025 	move	a0,zero
8000ba9c:	3c028002 	lui	v0,0x8002
8000baa0:	2445896c 	addiu	a1,v0,-30356
8000baa4:	0c005c6a 	jal	800171a8 <log>
8000baa8:	00000000 	nop
8000baac:	0c003887 	jal	8000e21c <init_slab>
8000bab0:	00000000 	nop
8000bab4:	00002025 	move	a0,zero
8000bab8:	3c028002 	lui	v0,0x8002
8000babc:	24458974 	addiu	a1,v0,-30348
8000bac0:	0c005c6a 	jal	800171a8 <log>
8000bac4:	00000000 	nop
8000bac8:	24040003 	li	a0,3
8000bacc:	3c028002 	lui	v0,0x8002
8000bad0:	24458950 	addiu	a1,v0,-30384
8000bad4:	0c005c6a 	jal	800171a8 <log>
8000bad8:	00000000 	nop
8000badc:	24040002 	li	a0,2
8000bae0:	3c028002 	lui	v0,0x8002
8000bae4:	2445897c 	addiu	a1,v0,-30340
8000bae8:	0c005c6a 	jal	800171a8 <log>
8000baec:	00000000 	nop
8000baf0:	0c002476 	jal	800091d8 <vfs_bootstrap>
8000baf4:	00000000 	nop
8000baf8:	00002025 	move	a0,zero
8000bafc:	3c028002 	lui	v0,0x8002
8000bb00:	24458994 	addiu	a1,v0,-30316
8000bb04:	0c005c6a 	jal	800171a8 <log>
8000bb08:	00000000 	nop
8000bb0c:	3c028002 	lui	v0,0x8002
8000bb10:	244489a4 	addiu	a0,v0,-30300
8000bb14:	0c002936 	jal	8000a4d8 <vfs_setbootfs>
8000bb18:	00000000 	nop
8000bb1c:	00002025 	move	a0,zero
8000bb20:	3c028002 	lui	v0,0x8002
8000bb24:	244589ac 	addiu	a1,v0,-30292
8000bb28:	0c005c6a 	jal	800171a8 <log>
8000bb2c:	00000000 	nop
8000bb30:	24040003 	li	a0,3
8000bb34:	3c028002 	lui	v0,0x8002
8000bb38:	2445897c 	addiu	a1,v0,-30340
8000bb3c:	0c005c6a 	jal	800171a8 <log>
8000bb40:	00000000 	nop
8000bb44:	24040002 	li	a0,2
8000bb48:	3c028002 	lui	v0,0x8002
8000bb4c:	244589c8 	addiu	a1,v0,-30264
8000bb50:	0c005c6a 	jal	800171a8 <log>
8000bb54:	00000000 	nop
8000bb58:	0c005071 	jal	800141c4 <init_syscall>
8000bb5c:	00000000 	nop
8000bb60:	24040003 	li	a0,3
8000bb64:	3c028002 	lui	v0,0x8002
8000bb68:	244589c8 	addiu	a1,v0,-30264
8000bb6c:	0c005c6a 	jal	800171a8 <log>
8000bb70:	00000000 	nop
8000bb74:	24040002 	li	a0,2
8000bb78:	3c028002 	lui	v0,0x8002
8000bb7c:	244589d8 	addiu	a1,v0,-30248
8000bb80:	0c005c6a 	jal	800171a8 <log>
8000bb84:	00000000 	nop
8000bb88:	0c004072 	jal	800101c8 <init_pc>
8000bb8c:	00000000 	nop
8000bb90:	24040003 	li	a0,3
8000bb94:	3c028002 	lui	v0,0x8002
8000bb98:	244589d8 	addiu	a1,v0,-30248
8000bb9c:	0c005c6a 	jal	800171a8 <log>
8000bba0:	00000000 	nop
8000bba4:	24040002 	li	a0,2
8000bba8:	3c028002 	lui	v0,0x8002
8000bbac:	244589f0 	addiu	a1,v0,-30224
8000bbb0:	0c005c6a 	jal	800171a8 <log>
8000bbb4:	00000000 	nop
8000bbb8:	0c000457 	jal	8000115c <init_interrupts>
8000bbbc:	00000000 	nop
8000bbc0:	24040003 	li	a0,3
8000bbc4:	3c028002 	lui	v0,0x8002
8000bbc8:	244589f0 	addiu	a1,v0,-30224
8000bbcc:	0c005c6a 	jal	800171a8 <log>
8000bbd0:	00000000 	nop
8000bbd4:	0c002e5a 	jal	8000b968 <machine_info>
8000bbd8:	00000000 	nop
8000bbdc:	8f828014 	lw	v0,-32748(gp)
8000bbe0:	3c031122 	lui	v1,0x1122
8000bbe4:	34633344 	ori	v1,v1,0x3344
8000bbe8:	ac430000 	sw	v1,0(v0)
8000bbec:	0c005a64 	jal	80016990 <menu>
8000bbf0:	00000000 	nop
8000bbf4:	03c0e825 	move	sp,s8
8000bbf8:	8fbf0014 	lw	ra,20(sp)
8000bbfc:	8fbe0010 	lw	s8,16(sp)
8000bc00:	27bd0018 	addiu	sp,sp,24
8000bc04:	03e00008 	jr	ra
8000bc08:	00000000 	nop

8000bc0c <init_lock>:
8000bc0c:	27bdfff8 	addiu	sp,sp,-8
8000bc10:	afbe0004 	sw	s8,4(sp)
8000bc14:	03a0f025 	move	s8,sp
8000bc18:	afc40008 	sw	a0,8(s8)
8000bc1c:	8fc20008 	lw	v0,8(s8)
8000bc20:	ac400000 	sw	zero,0(v0)
8000bc24:	8fc20008 	lw	v0,8(s8)
8000bc28:	24430004 	addiu	v1,v0,4
8000bc2c:	8fc20008 	lw	v0,8(s8)
8000bc30:	ac430008 	sw	v1,8(v0)
8000bc34:	8fc20008 	lw	v0,8(s8)
8000bc38:	24430004 	addiu	v1,v0,4
8000bc3c:	8fc20008 	lw	v0,8(s8)
8000bc40:	ac430004 	sw	v1,4(v0)
8000bc44:	03c0e825 	move	sp,s8
8000bc48:	8fbe0004 	lw	s8,4(sp)
8000bc4c:	27bd0008 	addiu	sp,sp,8
8000bc50:	03e00008 	jr	ra
8000bc54:	00000000 	nop

8000bc58 <cleanup_lock>:
8000bc58:	27bdffe8 	addiu	sp,sp,-24
8000bc5c:	afbf0014 	sw	ra,20(sp)
8000bc60:	afbe0010 	sw	s8,16(sp)
8000bc64:	03a0f025 	move	s8,sp
8000bc68:	afc40018 	sw	a0,24(s8)
8000bc6c:	8fc20018 	lw	v0,24(s8)
8000bc70:	8c420000 	lw	v0,0(v0)
8000bc74:	10400007 	beqz	v0,8000bc94 <cleanup_lock+0x3c>
8000bc78:	00000000 	nop
8000bc7c:	3c028002 	lui	v0,0x8002
8000bc80:	24448a04 	addiu	a0,v0,-30204
8000bc84:	3c028002 	lui	v0,0x8002
8000bc88:	24458a14 	addiu	a1,v0,-30188
8000bc8c:	0c005c3f 	jal	800170fc <badassert>
8000bc90:	00000000 	nop
8000bc94:	03c0e825 	move	sp,s8
8000bc98:	8fbf0014 	lw	ra,20(sp)
8000bc9c:	8fbe0010 	lw	s8,16(sp)
8000bca0:	27bd0018 	addiu	sp,sp,24
8000bca4:	03e00008 	jr	ra
8000bca8:	00000000 	nop

8000bcac <lockup>:
8000bcac:	27bdffe0 	addiu	sp,sp,-32
8000bcb0:	afbf001c 	sw	ra,28(sp)
8000bcb4:	afbe0018 	sw	s8,24(sp)
8000bcb8:	03a0f025 	move	s8,sp
8000bcbc:	afc40020 	sw	a0,32(s8)
8000bcc0:	0c000473 	jal	800011cc <disable_interrupts>
8000bcc4:	00000000 	nop
8000bcc8:	afc20010 	sw	v0,16(s8)
8000bccc:	8fc20020 	lw	v0,32(s8)
8000bcd0:	24030001 	li	v1,1
8000bcd4:	ac430000 	sw	v1,0(v0)
8000bcd8:	8fc20010 	lw	v0,16(s8)
8000bcdc:	10400003 	beqz	v0,8000bcec <lockup+0x40>
8000bce0:	00000000 	nop
8000bce4:	0c000464 	jal	80001190 <enable_interrupts>
8000bce8:	00000000 	nop
8000bcec:	24020001 	li	v0,1
8000bcf0:	03c0e825 	move	sp,s8
8000bcf4:	8fbf001c 	lw	ra,28(sp)
8000bcf8:	8fbe0018 	lw	s8,24(sp)
8000bcfc:	27bd0020 	addiu	sp,sp,32
8000bd00:	03e00008 	jr	ra
8000bd04:	00000000 	nop

8000bd08 <unlock>:
8000bd08:	27bdffe0 	addiu	sp,sp,-32
8000bd0c:	afbf001c 	sw	ra,28(sp)
8000bd10:	afbe0018 	sw	s8,24(sp)
8000bd14:	03a0f025 	move	s8,sp
8000bd18:	afc40020 	sw	a0,32(s8)
8000bd1c:	0c000473 	jal	800011cc <disable_interrupts>
8000bd20:	00000000 	nop
8000bd24:	afc20010 	sw	v0,16(s8)
8000bd28:	8fc20020 	lw	v0,32(s8)
8000bd2c:	8c420000 	lw	v0,0(v0)
8000bd30:	10400003 	beqz	v0,8000bd40 <unlock+0x38>
8000bd34:	00000000 	nop
8000bd38:	8fc20020 	lw	v0,32(s8)
8000bd3c:	ac400000 	sw	zero,0(v0)
8000bd40:	8fc20010 	lw	v0,16(s8)
8000bd44:	10400003 	beqz	v0,8000bd54 <unlock+0x4c>
8000bd48:	00000000 	nop
8000bd4c:	0c000464 	jal	80001190 <enable_interrupts>
8000bd50:	00000000 	nop
8000bd54:	24020001 	li	v0,1
8000bd58:	03c0e825 	move	sp,s8
8000bd5c:	8fbf001c 	lw	ra,28(sp)
8000bd60:	8fbe0018 	lw	s8,24(sp)
8000bd64:	27bd0020 	addiu	sp,sp,32
8000bd68:	03e00008 	jr	ra
8000bd6c:	00000000 	nop

8000bd70 <set_mminfo>:
8000bd70:	27bdfff8 	addiu	sp,sp,-8
8000bd74:	afbe0004 	sw	s8,4(sp)
8000bd78:	03a0f025 	move	s8,sp
8000bd7c:	afc40008 	sw	a0,8(s8)
8000bd80:	afc5000c 	sw	a1,12(s8)
8000bd84:	afc60010 	sw	a2,16(s8)
8000bd88:	afc70014 	sw	a3,20(s8)
8000bd8c:	8fc20008 	lw	v0,8(s8)
8000bd90:	8fc3000c 	lw	v1,12(s8)
8000bd94:	ac430000 	sw	v1,0(v0)
8000bd98:	8fc20008 	lw	v0,8(s8)
8000bd9c:	8fc30010 	lw	v1,16(s8)
8000bda0:	ac430004 	sw	v1,4(v0)
8000bda4:	8fc20008 	lw	v0,8(s8)
8000bda8:	8fc30014 	lw	v1,20(s8)
8000bdac:	ac430008 	sw	v1,8(v0)
8000bdb0:	03c0e825 	move	sp,s8
8000bdb4:	8fbe0004 	lw	s8,4(sp)
8000bdb8:	27bd0008 	addiu	sp,sp,8
8000bdbc:	03e00008 	jr	ra
8000bdc0:	00000000 	nop

8000bdc4 <insert_mminfo>:
8000bdc4:	27bdffe0 	addiu	sp,sp,-32
8000bdc8:	afbf001c 	sw	ra,28(sp)
8000bdcc:	afbe0018 	sw	s8,24(sp)
8000bdd0:	03a0f025 	move	s8,sp
8000bdd4:	afc40020 	sw	a0,32(s8)
8000bdd8:	afc50024 	sw	a1,36(s8)
8000bddc:	afc60028 	sw	a2,40(s8)
8000bde0:	afc7002c 	sw	a3,44(s8)
8000bde4:	afc00010 	sw	zero,16(s8)
8000bde8:	1000008c 	b	8000c01c <insert_mminfo+0x258>
8000bdec:	00000000 	nop
8000bdf0:	8fc30020 	lw	v1,32(s8)
8000bdf4:	8fc20010 	lw	v0,16(s8)
8000bdf8:	00021080 	sll	v0,v0,0x2
8000bdfc:	00022080 	sll	a0,v0,0x2
8000be00:	00821023 	subu	v0,a0,v0
8000be04:	00621021 	addu	v0,v1,v0
8000be08:	8c420020 	lw	v0,32(v0)
8000be0c:	2c420001 	sltiu	v0,v0,1
8000be10:	304200ff 	andi	v0,v0,0xff
8000be14:	00401825 	move	v1,v0
8000be18:	8fc2002c 	lw	v0,44(s8)
8000be1c:	1062007c 	beq	v1,v0,8000c010 <insert_mminfo+0x24c>
8000be20:	00000000 	nop
8000be24:	8fc30020 	lw	v1,32(s8)
8000be28:	8fc20010 	lw	v0,16(s8)
8000be2c:	00021080 	sll	v0,v0,0x2
8000be30:	00022080 	sll	a0,v0,0x2
8000be34:	00821023 	subu	v0,a0,v0
8000be38:	00621021 	addu	v0,v1,v0
8000be3c:	8c43001c 	lw	v1,28(v0)
8000be40:	8fc20024 	lw	v0,36(s8)
8000be44:	2442ffff 	addiu	v0,v0,-1
8000be48:	1462004d 	bne	v1,v0,8000bf80 <insert_mminfo+0x1bc>
8000be4c:	00000000 	nop
8000be50:	8fc20010 	lw	v0,16(s8)
8000be54:	24430001 	addiu	v1,v0,1
8000be58:	8fc20020 	lw	v0,32(s8)
8000be5c:	8c420014 	lw	v0,20(v0)
8000be60:	0062102b 	sltu	v0,v1,v0
8000be64:	1040003b 	beqz	v0,8000bf54 <insert_mminfo+0x190>
8000be68:	00000000 	nop
8000be6c:	8fc20010 	lw	v0,16(s8)
8000be70:	24420001 	addiu	v0,v0,1
8000be74:	8fc30020 	lw	v1,32(s8)
8000be78:	00021080 	sll	v0,v0,0x2
8000be7c:	00022080 	sll	a0,v0,0x2
8000be80:	00821023 	subu	v0,a0,v0
8000be84:	00621021 	addu	v0,v1,v0
8000be88:	8c430020 	lw	v1,32(v0)
8000be8c:	8fc2002c 	lw	v0,44(s8)
8000be90:	1062000c 	beq	v1,v0,8000bec4 <insert_mminfo+0x100>
8000be94:	00000000 	nop
8000be98:	8fc30020 	lw	v1,32(s8)
8000be9c:	8fc20010 	lw	v0,16(s8)
8000bea0:	00021080 	sll	v0,v0,0x2
8000bea4:	00022080 	sll	a0,v0,0x2
8000bea8:	00821023 	subu	v0,a0,v0
8000beac:	00621021 	addu	v0,v1,v0
8000beb0:	8fc30028 	lw	v1,40(s8)
8000beb4:	ac43001c 	sw	v1,28(v0)
8000beb8:	24020002 	li	v0,2
8000bebc:	1000007b 	b	8000c0ac <insert_mminfo+0x2e8>
8000bec0:	00000000 	nop
8000bec4:	8fc20010 	lw	v0,16(s8)
8000bec8:	24420001 	addiu	v0,v0,1
8000becc:	8fc30020 	lw	v1,32(s8)
8000bed0:	00021080 	sll	v0,v0,0x2
8000bed4:	00022080 	sll	a0,v0,0x2
8000bed8:	00821023 	subu	v0,a0,v0
8000bedc:	00621021 	addu	v0,v1,v0
8000bee0:	8c420018 	lw	v0,24(v0)
8000bee4:	2443ffff 	addiu	v1,v0,-1
8000bee8:	8fc20028 	lw	v0,40(s8)
8000beec:	14620024 	bne	v1,v0,8000bf80 <insert_mminfo+0x1bc>
8000bef0:	00000000 	nop
8000bef4:	8fc20010 	lw	v0,16(s8)
8000bef8:	24420001 	addiu	v0,v0,1
8000befc:	8fc30020 	lw	v1,32(s8)
8000bf00:	00021080 	sll	v0,v0,0x2
8000bf04:	00022080 	sll	a0,v0,0x2
8000bf08:	00821023 	subu	v0,a0,v0
8000bf0c:	00621021 	addu	v0,v1,v0
8000bf10:	8c43001c 	lw	v1,28(v0)
8000bf14:	8fc40020 	lw	a0,32(s8)
8000bf18:	8fc20010 	lw	v0,16(s8)
8000bf1c:	00021080 	sll	v0,v0,0x2
8000bf20:	00022880 	sll	a1,v0,0x2
8000bf24:	00a21023 	subu	v0,a1,v0
8000bf28:	00821021 	addu	v0,a0,v0
8000bf2c:	ac43001c 	sw	v1,28(v0)
8000bf30:	8fc20010 	lw	v0,16(s8)
8000bf34:	24420001 	addiu	v0,v0,1
8000bf38:	8fc40020 	lw	a0,32(s8)
8000bf3c:	00402825 	move	a1,v0
8000bf40:	0c00309e 	jal	8000c278 <remove_mminfo>
8000bf44:	00000000 	nop
8000bf48:	24020004 	li	v0,4
8000bf4c:	10000057 	b	8000c0ac <insert_mminfo+0x2e8>
8000bf50:	00000000 	nop
8000bf54:	8fc30020 	lw	v1,32(s8)
8000bf58:	8fc20010 	lw	v0,16(s8)
8000bf5c:	00021080 	sll	v0,v0,0x2
8000bf60:	00022080 	sll	a0,v0,0x2
8000bf64:	00821023 	subu	v0,a0,v0
8000bf68:	00621021 	addu	v0,v1,v0
8000bf6c:	8fc30028 	lw	v1,40(s8)
8000bf70:	ac43001c 	sw	v1,28(v0)
8000bf74:	24020002 	li	v0,2
8000bf78:	1000004c 	b	8000c0ac <insert_mminfo+0x2e8>
8000bf7c:	00000000 	nop
8000bf80:	8fc30020 	lw	v1,32(s8)
8000bf84:	8fc20010 	lw	v0,16(s8)
8000bf88:	00021080 	sll	v0,v0,0x2
8000bf8c:	00022080 	sll	a0,v0,0x2
8000bf90:	00821023 	subu	v0,a0,v0
8000bf94:	00621021 	addu	v0,v1,v0
8000bf98:	8c420018 	lw	v0,24(v0)
8000bf9c:	2443ffff 	addiu	v1,v0,-1
8000bfa0:	8fc20028 	lw	v0,40(s8)
8000bfa4:	1462001a 	bne	v1,v0,8000c010 <insert_mminfo+0x24c>
8000bfa8:	00000000 	nop
8000bfac:	8fc30020 	lw	v1,32(s8)
8000bfb0:	8fc20010 	lw	v0,16(s8)
8000bfb4:	00021080 	sll	v0,v0,0x2
8000bfb8:	00022080 	sll	a0,v0,0x2
8000bfbc:	00821023 	subu	v0,a0,v0
8000bfc0:	00621021 	addu	v0,v1,v0
8000bfc4:	8c430020 	lw	v1,32(v0)
8000bfc8:	3c028002 	lui	v0,0x8002
8000bfcc:	24448a94 	addiu	a0,v0,-30060
8000bfd0:	8fc50010 	lw	a1,16(s8)
8000bfd4:	00603025 	move	a2,v1
8000bfd8:	8fc7002c 	lw	a3,44(s8)
8000bfdc:	0c000aaa 	jal	80002aa8 <kernel_printf>
8000bfe0:	00000000 	nop
8000bfe4:	8fc30020 	lw	v1,32(s8)
8000bfe8:	8fc20010 	lw	v0,16(s8)
8000bfec:	00021080 	sll	v0,v0,0x2
8000bff0:	00022080 	sll	a0,v0,0x2
8000bff4:	00821023 	subu	v0,a0,v0
8000bff8:	00621021 	addu	v0,v1,v0
8000bffc:	8fc30024 	lw	v1,36(s8)
8000c000:	ac430018 	sw	v1,24(v0)
8000c004:	24020003 	li	v0,3
8000c008:	10000028 	b	8000c0ac <insert_mminfo+0x2e8>
8000c00c:	00000000 	nop
8000c010:	8fc20010 	lw	v0,16(s8)
8000c014:	24420001 	addiu	v0,v0,1
8000c018:	afc20010 	sw	v0,16(s8)
8000c01c:	8fc20020 	lw	v0,32(s8)
8000c020:	8c430014 	lw	v1,20(v0)
8000c024:	8fc20010 	lw	v0,16(s8)
8000c028:	0043102b 	sltu	v0,v0,v1
8000c02c:	1440ff70 	bnez	v0,8000bdf0 <insert_mminfo+0x2c>
8000c030:	00000000 	nop
8000c034:	8fc20020 	lw	v0,32(s8)
8000c038:	8c420014 	lw	v0,20(v0)
8000c03c:	2c42000a 	sltiu	v0,v0,10
8000c040:	14400004 	bnez	v0,8000c054 <insert_mminfo+0x290>
8000c044:	00000000 	nop
8000c048:	00001025 	move	v0,zero
8000c04c:	10000017 	b	8000c0ac <insert_mminfo+0x2e8>
8000c050:	00000000 	nop
8000c054:	8fc20020 	lw	v0,32(s8)
8000c058:	8c420014 	lw	v0,20(v0)
8000c05c:	00401825 	move	v1,v0
8000c060:	00031080 	sll	v0,v1,0x2
8000c064:	00401825 	move	v1,v0
8000c068:	00031080 	sll	v0,v1,0x2
8000c06c:	00431023 	subu	v0,v0,v1
8000c070:	24420018 	addiu	v0,v0,24
8000c074:	8fc30020 	lw	v1,32(s8)
8000c078:	00621021 	addu	v0,v1,v0
8000c07c:	00402025 	move	a0,v0
8000c080:	8fc50024 	lw	a1,36(s8)
8000c084:	8fc60028 	lw	a2,40(s8)
8000c088:	8fc7002c 	lw	a3,44(s8)
8000c08c:	0c002f5c 	jal	8000bd70 <set_mminfo>
8000c090:	00000000 	nop
8000c094:	8fc20020 	lw	v0,32(s8)
8000c098:	8c420014 	lw	v0,20(v0)
8000c09c:	24430001 	addiu	v1,v0,1
8000c0a0:	8fc20020 	lw	v0,32(s8)
8000c0a4:	ac430014 	sw	v1,20(v0)
8000c0a8:	24020001 	li	v0,1
8000c0ac:	03c0e825 	move	sp,s8
8000c0b0:	8fbf001c 	lw	ra,28(sp)
8000c0b4:	8fbe0018 	lw	s8,24(sp)
8000c0b8:	27bd0020 	addiu	sp,sp,32
8000c0bc:	03e00008 	jr	ra
8000c0c0:	00000000 	nop

8000c0c4 <split_mminfo>:
8000c0c4:	27bdffe8 	addiu	sp,sp,-24
8000c0c8:	afbe0014 	sw	s8,20(sp)
8000c0cc:	03a0f025 	move	s8,sp
8000c0d0:	afc40018 	sw	a0,24(s8)
8000c0d4:	afc5001c 	sw	a1,28(s8)
8000c0d8:	afc60020 	sw	a2,32(s8)
8000c0dc:	8fc30018 	lw	v1,24(s8)
8000c0e0:	8fc2001c 	lw	v0,28(s8)
8000c0e4:	00021080 	sll	v0,v0,0x2
8000c0e8:	00022080 	sll	a0,v0,0x2
8000c0ec:	00821023 	subu	v0,a0,v0
8000c0f0:	00621021 	addu	v0,v1,v0
8000c0f4:	8c420018 	lw	v0,24(v0)
8000c0f8:	afc20004 	sw	v0,4(s8)
8000c0fc:	8fc30018 	lw	v1,24(s8)
8000c100:	8fc2001c 	lw	v0,28(s8)
8000c104:	00021080 	sll	v0,v0,0x2
8000c108:	00022080 	sll	a0,v0,0x2
8000c10c:	00821023 	subu	v0,a0,v0
8000c110:	00621021 	addu	v0,v1,v0
8000c114:	8c42001c 	lw	v0,28(v0)
8000c118:	afc20008 	sw	v0,8(s8)
8000c11c:	8fc30020 	lw	v1,32(s8)
8000c120:	2402f000 	li	v0,-4096
8000c124:	00621024 	and	v0,v1,v0
8000c128:	afc20020 	sw	v0,32(s8)
8000c12c:	8fc30020 	lw	v1,32(s8)
8000c130:	8fc20004 	lw	v0,4(s8)
8000c134:	0043102b 	sltu	v0,v0,v1
8000c138:	10400006 	beqz	v0,8000c154 <split_mminfo+0x90>
8000c13c:	00000000 	nop
8000c140:	8fc30020 	lw	v1,32(s8)
8000c144:	8fc20008 	lw	v0,8(s8)
8000c148:	0062102b 	sltu	v0,v1,v0
8000c14c:	14400004 	bnez	v0,8000c160 <split_mminfo+0x9c>
8000c150:	00000000 	nop
8000c154:	00001025 	move	v0,zero
8000c158:	10000042 	b	8000c264 <split_mminfo+0x1a0>
8000c15c:	00000000 	nop
8000c160:	8fc20018 	lw	v0,24(s8)
8000c164:	8c430014 	lw	v1,20(v0)
8000c168:	2402000a 	li	v0,10
8000c16c:	14620004 	bne	v1,v0,8000c180 <split_mminfo+0xbc>
8000c170:	00000000 	nop
8000c174:	00001025 	move	v0,zero
8000c178:	1000003a 	b	8000c264 <split_mminfo+0x1a0>
8000c17c:	00000000 	nop
8000c180:	8fc20018 	lw	v0,24(s8)
8000c184:	8c420014 	lw	v0,20(v0)
8000c188:	2442ffff 	addiu	v0,v0,-1
8000c18c:	afc20000 	sw	v0,0(s8)
8000c190:	10000017 	b	8000c1f0 <split_mminfo+0x12c>
8000c194:	00000000 	nop
8000c198:	8fc20000 	lw	v0,0(s8)
8000c19c:	24420001 	addiu	v0,v0,1
8000c1a0:	8fc30018 	lw	v1,24(s8)
8000c1a4:	00021080 	sll	v0,v0,0x2
8000c1a8:	00022080 	sll	a0,v0,0x2
8000c1ac:	00821023 	subu	v0,a0,v0
8000c1b0:	00621021 	addu	v0,v1,v0
8000c1b4:	8fc40018 	lw	a0,24(s8)
8000c1b8:	8fc30000 	lw	v1,0(s8)
8000c1bc:	00031880 	sll	v1,v1,0x2
8000c1c0:	00032880 	sll	a1,v1,0x2
8000c1c4:	00a31823 	subu	v1,a1,v1
8000c1c8:	00831821 	addu	v1,a0,v1
8000c1cc:	8c650018 	lw	a1,24(v1)
8000c1d0:	8c64001c 	lw	a0,28(v1)
8000c1d4:	8c630020 	lw	v1,32(v1)
8000c1d8:	ac450018 	sw	a1,24(v0)
8000c1dc:	ac44001c 	sw	a0,28(v0)
8000c1e0:	ac430020 	sw	v1,32(v0)
8000c1e4:	8fc20000 	lw	v0,0(s8)
8000c1e8:	2442ffff 	addiu	v0,v0,-1
8000c1ec:	afc20000 	sw	v0,0(s8)
8000c1f0:	8fc30000 	lw	v1,0(s8)
8000c1f4:	8fc2001c 	lw	v0,28(s8)
8000c1f8:	0062102b 	sltu	v0,v1,v0
8000c1fc:	1040ffe6 	beqz	v0,8000c198 <split_mminfo+0xd4>
8000c200:	00000000 	nop
8000c204:	8fc20020 	lw	v0,32(s8)
8000c208:	2443ffff 	addiu	v1,v0,-1
8000c20c:	8fc40018 	lw	a0,24(s8)
8000c210:	8fc2001c 	lw	v0,28(s8)
8000c214:	00021080 	sll	v0,v0,0x2
8000c218:	00022880 	sll	a1,v0,0x2
8000c21c:	00a21023 	subu	v0,a1,v0
8000c220:	00821021 	addu	v0,a0,v0
8000c224:	ac43001c 	sw	v1,28(v0)
8000c228:	8fc2001c 	lw	v0,28(s8)
8000c22c:	24420001 	addiu	v0,v0,1
8000c230:	8fc30018 	lw	v1,24(s8)
8000c234:	00021080 	sll	v0,v0,0x2
8000c238:	00022080 	sll	a0,v0,0x2
8000c23c:	00821023 	subu	v0,a0,v0
8000c240:	00621021 	addu	v0,v1,v0
8000c244:	8fc30020 	lw	v1,32(s8)
8000c248:	ac430018 	sw	v1,24(v0)
8000c24c:	8fc20018 	lw	v0,24(s8)
8000c250:	8c420014 	lw	v0,20(v0)
8000c254:	24430001 	addiu	v1,v0,1
8000c258:	8fc20018 	lw	v0,24(s8)
8000c25c:	ac430014 	sw	v1,20(v0)
8000c260:	24020001 	li	v0,1
8000c264:	03c0e825 	move	sp,s8
8000c268:	8fbe0014 	lw	s8,20(sp)
8000c26c:	27bd0018 	addiu	sp,sp,24
8000c270:	03e00008 	jr	ra
8000c274:	00000000 	nop

8000c278 <remove_mminfo>:
8000c278:	27bdfff0 	addiu	sp,sp,-16
8000c27c:	afbe000c 	sw	s8,12(sp)
8000c280:	03a0f025 	move	s8,sp
8000c284:	afc40010 	sw	a0,16(s8)
8000c288:	afc50014 	sw	a1,20(s8)
8000c28c:	8fc20010 	lw	v0,16(s8)
8000c290:	8c430014 	lw	v1,20(v0)
8000c294:	8fc20014 	lw	v0,20(s8)
8000c298:	0043102b 	sltu	v0,v0,v1
8000c29c:	14400003 	bnez	v0,8000c2ac <remove_mminfo+0x34>
8000c2a0:	00000000 	nop
8000c2a4:	1000002e 	b	8000c360 <remove_mminfo+0xe8>
8000c2a8:	00000000 	nop
8000c2ac:	8fc20014 	lw	v0,20(s8)
8000c2b0:	24430001 	addiu	v1,v0,1
8000c2b4:	8fc20010 	lw	v0,16(s8)
8000c2b8:	8c420014 	lw	v0,20(v0)
8000c2bc:	0062102b 	sltu	v0,v1,v0
8000c2c0:	10400022 	beqz	v0,8000c34c <remove_mminfo+0xd4>
8000c2c4:	00000000 	nop
8000c2c8:	8fc20014 	lw	v0,20(s8)
8000c2cc:	24420001 	addiu	v0,v0,1
8000c2d0:	afc20000 	sw	v0,0(s8)
8000c2d4:	10000017 	b	8000c334 <remove_mminfo+0xbc>
8000c2d8:	00000000 	nop
8000c2dc:	8fc20000 	lw	v0,0(s8)
8000c2e0:	2442ffff 	addiu	v0,v0,-1
8000c2e4:	8fc30010 	lw	v1,16(s8)
8000c2e8:	00021080 	sll	v0,v0,0x2
8000c2ec:	00022080 	sll	a0,v0,0x2
8000c2f0:	00821023 	subu	v0,a0,v0
8000c2f4:	00621021 	addu	v0,v1,v0
8000c2f8:	8fc40010 	lw	a0,16(s8)
8000c2fc:	8fc30000 	lw	v1,0(s8)
8000c300:	00031880 	sll	v1,v1,0x2
8000c304:	00032880 	sll	a1,v1,0x2
8000c308:	00a31823 	subu	v1,a1,v1
8000c30c:	00831821 	addu	v1,a0,v1
8000c310:	8c650018 	lw	a1,24(v1)
8000c314:	8c64001c 	lw	a0,28(v1)
8000c318:	8c630020 	lw	v1,32(v1)
8000c31c:	ac450018 	sw	a1,24(v0)
8000c320:	ac44001c 	sw	a0,28(v0)
8000c324:	ac430020 	sw	v1,32(v0)
8000c328:	8fc20000 	lw	v0,0(s8)
8000c32c:	24420001 	addiu	v0,v0,1
8000c330:	afc20000 	sw	v0,0(s8)
8000c334:	8fc20010 	lw	v0,16(s8)
8000c338:	8c430014 	lw	v1,20(v0)
8000c33c:	8fc20000 	lw	v0,0(s8)
8000c340:	0043102b 	sltu	v0,v0,v1
8000c344:	1440ffe5 	bnez	v0,8000c2dc <remove_mminfo+0x64>
8000c348:	00000000 	nop
8000c34c:	8fc20010 	lw	v0,16(s8)
8000c350:	8c420014 	lw	v0,20(v0)
8000c354:	2443ffff 	addiu	v1,v0,-1
8000c358:	8fc20010 	lw	v0,16(s8)
8000c35c:	ac430014 	sw	v1,20(v0)
8000c360:	03c0e825 	move	sp,s8
8000c364:	8fbe000c 	lw	s8,12(sp)
8000c368:	27bd0010 	addiu	sp,sp,16
8000c36c:	03e00008 	jr	ra
8000c370:	00000000 	nop

8000c374 <init_bootmm>:
8000c374:	27bdffe0 	addiu	sp,sp,-32
8000c378:	afbf001c 	sw	ra,28(sp)
8000c37c:	afbe0018 	sw	s8,24(sp)
8000c380:	03a0f025 	move	s8,sp
8000c384:	3c020100 	lui	v0,0x100
8000c388:	afc20014 	sw	v0,20(s8)
8000c38c:	3c028003 	lui	v0,0x8003
8000c390:	2444cec4 	addiu	a0,v0,-12604
8000c394:	00002825 	move	a1,zero
8000c398:	24060090 	li	a2,144
8000c39c:	0c005d92 	jal	80017648 <kernel_memset>
8000c3a0:	00000000 	nop
8000c3a4:	0c000405 	jal	80001014 <get_phymm_size>
8000c3a8:	00000000 	nop
8000c3ac:	00401825 	move	v1,v0
8000c3b0:	3c028003 	lui	v0,0x8003
8000c3b4:	ac43cec4 	sw	v1,-12604(v0)
8000c3b8:	3c028003 	lui	v0,0x8003
8000c3bc:	8c42cec4 	lw	v0,-12604(v0)
8000c3c0:	00021b02 	srl	v1,v0,0xc
8000c3c4:	3c028003 	lui	v0,0x8003
8000c3c8:	2442cec4 	addiu	v0,v0,-12604
8000c3cc:	ac430004 	sw	v1,4(v0)
8000c3d0:	3c028003 	lui	v0,0x8003
8000c3d4:	2442cec4 	addiu	v0,v0,-12604
8000c3d8:	3c038002 	lui	v1,0x8002
8000c3dc:	24634ec4 	addiu	v1,v1,20164
8000c3e0:	ac430008 	sw	v1,8(v0)
8000c3e4:	3c028003 	lui	v0,0x8003
8000c3e8:	2442cec4 	addiu	v0,v0,-12604
8000c3ec:	3c038003 	lui	v1,0x8003
8000c3f0:	2463cec4 	addiu	v1,v1,-12604
8000c3f4:	ac43000c 	sw	v1,12(v0)
8000c3f8:	3c028003 	lui	v0,0x8003
8000c3fc:	2442cec4 	addiu	v0,v0,-12604
8000c400:	ac400014 	sw	zero,20(v0)
8000c404:	3c028003 	lui	v0,0x8003
8000c408:	2442cec4 	addiu	v0,v0,-12604
8000c40c:	8c420008 	lw	v0,8(v0)
8000c410:	00402025 	move	a0,v0
8000c414:	00002825 	move	a1,zero
8000c418:	34068000 	li	a2,0x8000
8000c41c:	0c005d92 	jal	80017648 <kernel_memset>
8000c420:	00000000 	nop
8000c424:	8fc20014 	lw	v0,20(s8)
8000c428:	2443ffff 	addiu	v1,v0,-1
8000c42c:	3c028003 	lui	v0,0x8003
8000c430:	2444cec4 	addiu	a0,v0,-12604
8000c434:	00002825 	move	a1,zero
8000c438:	00603025 	move	a2,v1
8000c43c:	00003825 	move	a3,zero
8000c440:	0c002f71 	jal	8000bdc4 <insert_mminfo>
8000c444:	00000000 	nop
8000c448:	8fc20014 	lw	v0,20(s8)
8000c44c:	00021302 	srl	v0,v0,0xc
8000c450:	2443ffff 	addiu	v1,v0,-1
8000c454:	3c028003 	lui	v0,0x8003
8000c458:	2442cec4 	addiu	v0,v0,-12604
8000c45c:	ac430010 	sw	v1,16(v0)
8000c460:	afc00010 	sw	zero,16(s8)
8000c464:	1000000b 	b	8000c494 <init_bootmm+0x120>
8000c468:	00000000 	nop
8000c46c:	3c028003 	lui	v0,0x8003
8000c470:	2442cec4 	addiu	v0,v0,-12604
8000c474:	8c430008 	lw	v1,8(v0)
8000c478:	8fc20010 	lw	v0,16(s8)
8000c47c:	00621021 	addu	v0,v1,v0
8000c480:	2403ffff 	li	v1,-1
8000c484:	a0430000 	sb	v1,0(v0)
8000c488:	8fc20010 	lw	v0,16(s8)
8000c48c:	24420001 	addiu	v0,v0,1
8000c490:	afc20010 	sw	v0,16(s8)
8000c494:	8fc20014 	lw	v0,20(s8)
8000c498:	00021b02 	srl	v1,v0,0xc
8000c49c:	8fc20010 	lw	v0,16(s8)
8000c4a0:	0043102b 	sltu	v0,v0,v1
8000c4a4:	1440fff1 	bnez	v0,8000c46c <init_bootmm+0xf8>
8000c4a8:	00000000 	nop
8000c4ac:	03c0e825 	move	sp,s8
8000c4b0:	8fbf001c 	lw	ra,28(sp)
8000c4b4:	8fbe0018 	lw	s8,24(sp)
8000c4b8:	27bd0020 	addiu	sp,sp,32
8000c4bc:	03e00008 	jr	ra
8000c4c0:	00000000 	nop

8000c4c4 <set_maps>:
8000c4c4:	27bdfff0 	addiu	sp,sp,-16
8000c4c8:	afbe000c 	sw	s8,12(sp)
8000c4cc:	03a0f025 	move	s8,sp
8000c4d0:	afc40010 	sw	a0,16(s8)
8000c4d4:	afc50014 	sw	a1,20(s8)
8000c4d8:	00c01025 	move	v0,a2
8000c4dc:	a3c20018 	sb	v0,24(s8)
8000c4e0:	8fc20014 	lw	v0,20(s8)
8000c4e4:	afc20000 	sw	v0,0(s8)
8000c4e8:	8fc20014 	lw	v0,20(s8)
8000c4ec:	afc20000 	sw	v0,0(s8)
8000c4f0:	1000000d 	b	8000c528 <set_maps+0x64>
8000c4f4:	00000000 	nop
8000c4f8:	3c028003 	lui	v0,0x8003
8000c4fc:	2442cec4 	addiu	v0,v0,-12604
8000c500:	8c430008 	lw	v1,8(v0)
8000c504:	8fc20010 	lw	v0,16(s8)
8000c508:	24440001 	addiu	a0,v0,1
8000c50c:	afc40010 	sw	a0,16(s8)
8000c510:	00621021 	addu	v0,v1,v0
8000c514:	93c30018 	lbu	v1,24(s8)
8000c518:	a0430000 	sb	v1,0(v0)
8000c51c:	8fc20000 	lw	v0,0(s8)
8000c520:	2442ffff 	addiu	v0,v0,-1
8000c524:	afc20000 	sw	v0,0(s8)
8000c528:	8fc20000 	lw	v0,0(s8)
8000c52c:	1440fff2 	bnez	v0,8000c4f8 <set_maps+0x34>
8000c530:	00000000 	nop
8000c534:	03c0e825 	move	sp,s8
8000c538:	8fbe000c 	lw	s8,12(sp)
8000c53c:	27bd0010 	addiu	sp,sp,16
8000c540:	03e00008 	jr	ra
8000c544:	00000000 	nop

8000c548 <find_pages>:
8000c548:	27bdffd8 	addiu	sp,sp,-40
8000c54c:	afbf0024 	sw	ra,36(sp)
8000c550:	afbe0020 	sw	s8,32(sp)
8000c554:	03a0f025 	move	s8,sp
8000c558:	afc40028 	sw	a0,40(s8)
8000c55c:	afc5002c 	sw	a1,44(s8)
8000c560:	afc60030 	sw	a2,48(s8)
8000c564:	afc70034 	sw	a3,52(s8)
8000c568:	8fc30034 	lw	v1,52(s8)
8000c56c:	8fc2002c 	lw	v0,44(s8)
8000c570:	00621021 	addu	v0,v1,v0
8000c574:	2442ffff 	addiu	v0,v0,-1
8000c578:	afc2002c 	sw	v0,44(s8)
8000c57c:	8fc20034 	lw	v0,52(s8)
8000c580:	00021023 	negu	v0,v0
8000c584:	8fc3002c 	lw	v1,44(s8)
8000c588:	00621024 	and	v0,v1,v0
8000c58c:	afc2002c 	sw	v0,44(s8)
8000c590:	8fc2002c 	lw	v0,44(s8)
8000c594:	afc20010 	sw	v0,16(s8)
8000c598:	1000004e 	b	8000c6d4 <find_pages+0x18c>
8000c59c:	00000000 	nop
8000c5a0:	3c028003 	lui	v0,0x8003
8000c5a4:	2442cec4 	addiu	v0,v0,-12604
8000c5a8:	8c430008 	lw	v1,8(v0)
8000c5ac:	8fc20010 	lw	v0,16(s8)
8000c5b0:	00621021 	addu	v0,v1,v0
8000c5b4:	90430000 	lbu	v1,0(v0)
8000c5b8:	240200ff 	li	v0,255
8000c5bc:	14620006 	bne	v1,v0,8000c5d8 <find_pages+0x90>
8000c5c0:	00000000 	nop
8000c5c4:	8fc20010 	lw	v0,16(s8)
8000c5c8:	24420001 	addiu	v0,v0,1
8000c5cc:	afc20010 	sw	v0,16(s8)
8000c5d0:	10000040 	b	8000c6d4 <find_pages+0x18c>
8000c5d4:	00000000 	nop
8000c5d8:	8fc20028 	lw	v0,40(s8)
8000c5dc:	afc20018 	sw	v0,24(s8)
8000c5e0:	8fc20010 	lw	v0,16(s8)
8000c5e4:	afc20014 	sw	v0,20(s8)
8000c5e8:	10000022 	b	8000c674 <find_pages+0x12c>
8000c5ec:	00000000 	nop
8000c5f0:	8fc30014 	lw	v1,20(s8)
8000c5f4:	8fc20030 	lw	v0,48(s8)
8000c5f8:	0062102b 	sltu	v0,v1,v0
8000c5fc:	14400004 	bnez	v0,8000c610 <find_pages+0xc8>
8000c600:	00000000 	nop
8000c604:	00001025 	move	v0,zero
8000c608:	10000038 	b	8000c6ec <find_pages+0x1a4>
8000c60c:	00000000 	nop
8000c610:	3c028003 	lui	v0,0x8003
8000c614:	2442cec4 	addiu	v0,v0,-12604
8000c618:	8c430008 	lw	v1,8(v0)
8000c61c:	8fc20014 	lw	v0,20(s8)
8000c620:	00621021 	addu	v0,v1,v0
8000c624:	90420000 	lbu	v0,0(v0)
8000c628:	14400007 	bnez	v0,8000c648 <find_pages+0x100>
8000c62c:	00000000 	nop
8000c630:	8fc20014 	lw	v0,20(s8)
8000c634:	24420001 	addiu	v0,v0,1
8000c638:	afc20014 	sw	v0,20(s8)
8000c63c:	8fc20018 	lw	v0,24(s8)
8000c640:	2442ffff 	addiu	v0,v0,-1
8000c644:	afc20018 	sw	v0,24(s8)
8000c648:	3c028003 	lui	v0,0x8003
8000c64c:	2442cec4 	addiu	v0,v0,-12604
8000c650:	8c430008 	lw	v1,8(v0)
8000c654:	8fc20014 	lw	v0,20(s8)
8000c658:	00621021 	addu	v0,v1,v0
8000c65c:	90430000 	lbu	v1,0(v0)
8000c660:	240200ff 	li	v0,255
8000c664:	14620003 	bne	v1,v0,8000c674 <find_pages+0x12c>
8000c668:	00000000 	nop
8000c66c:	10000004 	b	8000c680 <find_pages+0x138>
8000c670:	00000000 	nop
8000c674:	8fc20018 	lw	v0,24(s8)
8000c678:	1440ffdd 	bnez	v0,8000c5f0 <find_pages+0xa8>
8000c67c:	00000000 	nop
8000c680:	8fc20018 	lw	v0,24(s8)
8000c684:	1440000f 	bnez	v0,8000c6c4 <find_pages+0x17c>
8000c688:	00000000 	nop
8000c68c:	8fc20014 	lw	v0,20(s8)
8000c690:	2443ffff 	addiu	v1,v0,-1
8000c694:	3c028003 	lui	v0,0x8003
8000c698:	2442cec4 	addiu	v0,v0,-12604
8000c69c:	ac430010 	sw	v1,16(v0)
8000c6a0:	8fc40010 	lw	a0,16(s8)
8000c6a4:	8fc50028 	lw	a1,40(s8)
8000c6a8:	240600ff 	li	a2,255
8000c6ac:	0c003131 	jal	8000c4c4 <set_maps>
8000c6b0:	00000000 	nop
8000c6b4:	8fc20010 	lw	v0,16(s8)
8000c6b8:	00021300 	sll	v0,v0,0xc
8000c6bc:	1000000b 	b	8000c6ec <find_pages+0x1a4>
8000c6c0:	00000000 	nop
8000c6c4:	8fc30014 	lw	v1,20(s8)
8000c6c8:	8fc20034 	lw	v0,52(s8)
8000c6cc:	00621021 	addu	v0,v1,v0
8000c6d0:	afc20010 	sw	v0,16(s8)
8000c6d4:	8fc30010 	lw	v1,16(s8)
8000c6d8:	8fc20030 	lw	v0,48(s8)
8000c6dc:	0062102b 	sltu	v0,v1,v0
8000c6e0:	1440ffaf 	bnez	v0,8000c5a0 <find_pages+0x58>
8000c6e4:	00000000 	nop
8000c6e8:	00001025 	move	v0,zero
8000c6ec:	03c0e825 	move	sp,s8
8000c6f0:	8fbf0024 	lw	ra,36(sp)
8000c6f4:	8fbe0020 	lw	s8,32(sp)
8000c6f8:	27bd0028 	addiu	sp,sp,40
8000c6fc:	03e00008 	jr	ra
8000c700:	00000000 	nop

8000c704 <bootmm_alloc_pages>:
8000c704:	27bdffd8 	addiu	sp,sp,-40
8000c708:	afbf0024 	sw	ra,36(sp)
8000c70c:	afbe0020 	sw	s8,32(sp)
8000c710:	03a0f025 	move	s8,sp
8000c714:	afc40028 	sw	a0,40(s8)
8000c718:	afc5002c 	sw	a1,44(s8)
8000c71c:	afc60030 	sw	a2,48(s8)
8000c720:	8fc20028 	lw	v0,40(s8)
8000c724:	24420fff 	addiu	v0,v0,4095
8000c728:	afc20028 	sw	v0,40(s8)
8000c72c:	8fc30028 	lw	v1,40(s8)
8000c730:	2402f000 	li	v0,-4096
8000c734:	00621024 	and	v0,v1,v0
8000c738:	afc20028 	sw	v0,40(s8)
8000c73c:	8fc20028 	lw	v0,40(s8)
8000c740:	00021302 	srl	v0,v0,0xc
8000c744:	afc20010 	sw	v0,16(s8)
8000c748:	8fc20030 	lw	v0,48(s8)
8000c74c:	00021302 	srl	v0,v0,0xc
8000c750:	afc20014 	sw	v0,20(s8)
8000c754:	3c028003 	lui	v0,0x8003
8000c758:	2442cec4 	addiu	v0,v0,-12604
8000c75c:	8c420010 	lw	v0,16(v0)
8000c760:	24430001 	addiu	v1,v0,1
8000c764:	3c028003 	lui	v0,0x8003
8000c768:	2442cec4 	addiu	v0,v0,-12604
8000c76c:	8c420004 	lw	v0,4(v0)
8000c770:	8fc40010 	lw	a0,16(s8)
8000c774:	00602825 	move	a1,v1
8000c778:	00403025 	move	a2,v0
8000c77c:	8fc70014 	lw	a3,20(s8)
8000c780:	0c003152 	jal	8000c548 <find_pages>
8000c784:	00000000 	nop
8000c788:	afc20018 	sw	v0,24(s8)
8000c78c:	8fc20018 	lw	v0,24(s8)
8000c790:	10400015 	beqz	v0,8000c7e8 <bootmm_alloc_pages+0xe4>
8000c794:	00000000 	nop
8000c798:	8fc50018 	lw	a1,24(s8)
8000c79c:	8fc30018 	lw	v1,24(s8)
8000c7a0:	8fc20028 	lw	v0,40(s8)
8000c7a4:	00621021 	addu	v0,v1,v0
8000c7a8:	2443ffff 	addiu	v1,v0,-1
8000c7ac:	3c028003 	lui	v0,0x8003
8000c7b0:	2444cec4 	addiu	a0,v0,-12604
8000c7b4:	00603025 	move	a2,v1
8000c7b8:	8fc7002c 	lw	a3,44(s8)
8000c7bc:	0c002f71 	jal	8000bdc4 <insert_mminfo>
8000c7c0:	00000000 	nop
8000c7c4:	14400005 	bnez	v0,8000c7dc <bootmm_alloc_pages+0xd8>
8000c7c8:	00000000 	nop
8000c7cc:	3c028002 	lui	v0,0x8002
8000c7d0:	24448ab0 	addiu	a0,v0,-30032
8000c7d4:	0c000aaa 	jal	80002aa8 <kernel_printf>
8000c7d8:	00000000 	nop
8000c7dc:	8fc20018 	lw	v0,24(s8)
8000c7e0:	10000023 	b	8000c870 <bootmm_alloc_pages+0x16c>
8000c7e4:	00000000 	nop
8000c7e8:	3c028003 	lui	v0,0x8003
8000c7ec:	2442cec4 	addiu	v0,v0,-12604
8000c7f0:	8c420010 	lw	v0,16(v0)
8000c7f4:	8fc40010 	lw	a0,16(s8)
8000c7f8:	00002825 	move	a1,zero
8000c7fc:	00403025 	move	a2,v0
8000c800:	8fc70014 	lw	a3,20(s8)
8000c804:	0c003152 	jal	8000c548 <find_pages>
8000c808:	00000000 	nop
8000c80c:	afc20018 	sw	v0,24(s8)
8000c810:	8fc20018 	lw	v0,24(s8)
8000c814:	10400015 	beqz	v0,8000c86c <bootmm_alloc_pages+0x168>
8000c818:	00000000 	nop
8000c81c:	8fc50018 	lw	a1,24(s8)
8000c820:	8fc30018 	lw	v1,24(s8)
8000c824:	8fc20028 	lw	v0,40(s8)
8000c828:	00621021 	addu	v0,v1,v0
8000c82c:	2443ffff 	addiu	v1,v0,-1
8000c830:	3c028003 	lui	v0,0x8003
8000c834:	2444cec4 	addiu	a0,v0,-12604
8000c838:	00603025 	move	a2,v1
8000c83c:	8fc7002c 	lw	a3,44(s8)
8000c840:	0c002f71 	jal	8000bdc4 <insert_mminfo>
8000c844:	00000000 	nop
8000c848:	14400005 	bnez	v0,8000c860 <bootmm_alloc_pages+0x15c>
8000c84c:	00000000 	nop
8000c850:	3c028002 	lui	v0,0x8002
8000c854:	24448ab0 	addiu	a0,v0,-30032
8000c858:	0c000aaa 	jal	80002aa8 <kernel_printf>
8000c85c:	00000000 	nop
8000c860:	8fc20018 	lw	v0,24(s8)
8000c864:	10000002 	b	8000c870 <bootmm_alloc_pages+0x16c>
8000c868:	00000000 	nop
8000c86c:	00001025 	move	v0,zero
8000c870:	03c0e825 	move	sp,s8
8000c874:	8fbf0024 	lw	ra,36(sp)
8000c878:	8fbe0020 	lw	s8,32(sp)
8000c87c:	27bd0028 	addiu	sp,sp,40
8000c880:	03e00008 	jr	ra
8000c884:	00000000 	nop

8000c888 <bootmap_info>:
8000c888:	27bdffe0 	addiu	sp,sp,-32
8000c88c:	afbf001c 	sw	ra,28(sp)
8000c890:	afbe0018 	sw	s8,24(sp)
8000c894:	03a0f025 	move	s8,sp
8000c898:	3c028002 	lui	v0,0x8002
8000c89c:	24448ac8 	addiu	a0,v0,-30008
8000c8a0:	0c000aaa 	jal	80002aa8 <kernel_printf>
8000c8a4:	00000000 	nop
8000c8a8:	afc00010 	sw	zero,16(s8)
8000c8ac:	1000002c 	b	8000c960 <bootmap_info+0xd8>
8000c8b0:	00000000 	nop
8000c8b4:	3c048003 	lui	a0,0x8003
8000c8b8:	8fc20010 	lw	v0,16(s8)
8000c8bc:	00401825 	move	v1,v0
8000c8c0:	00031080 	sll	v0,v1,0x2
8000c8c4:	00401825 	move	v1,v0
8000c8c8:	00031080 	sll	v0,v1,0x2
8000c8cc:	00431023 	subu	v0,v0,v1
8000c8d0:	2483cec4 	addiu	v1,a0,-12604
8000c8d4:	00431021 	addu	v0,v0,v1
8000c8d8:	8c450018 	lw	a1,24(v0)
8000c8dc:	3c048003 	lui	a0,0x8003
8000c8e0:	8fc20010 	lw	v0,16(s8)
8000c8e4:	00401825 	move	v1,v0
8000c8e8:	00031080 	sll	v0,v1,0x2
8000c8ec:	00401825 	move	v1,v0
8000c8f0:	00031080 	sll	v0,v1,0x2
8000c8f4:	00431023 	subu	v0,v0,v1
8000c8f8:	2483cec4 	addiu	v1,a0,-12604
8000c8fc:	00431021 	addu	v0,v0,v1
8000c900:	8c46001c 	lw	a2,28(v0)
8000c904:	3c048003 	lui	a0,0x8003
8000c908:	8fc20010 	lw	v0,16(s8)
8000c90c:	00401825 	move	v1,v0
8000c910:	00031080 	sll	v0,v1,0x2
8000c914:	00401825 	move	v1,v0
8000c918:	00031080 	sll	v0,v1,0x2
8000c91c:	00431023 	subu	v0,v0,v1
8000c920:	2483cec4 	addiu	v1,a0,-12604
8000c924:	00431021 	addu	v0,v0,v1
8000c928:	8c430020 	lw	v1,32(v0)
8000c92c:	3c028002 	lui	v0,0x8002
8000c930:	00031880 	sll	v1,v1,0x2
8000c934:	2442a738 	addiu	v0,v0,-22728
8000c938:	00621021 	addu	v0,v1,v0
8000c93c:	8c430000 	lw	v1,0(v0)
8000c940:	3c028002 	lui	v0,0x8002
8000c944:	24448ad8 	addiu	a0,v0,-29992
8000c948:	00603825 	move	a3,v1
8000c94c:	0c000aaa 	jal	80002aa8 <kernel_printf>
8000c950:	00000000 	nop
8000c954:	8fc20010 	lw	v0,16(s8)
8000c958:	24420001 	addiu	v0,v0,1
8000c95c:	afc20010 	sw	v0,16(s8)
8000c960:	3c028003 	lui	v0,0x8003
8000c964:	2442cec4 	addiu	v0,v0,-12604
8000c968:	8c430014 	lw	v1,20(v0)
8000c96c:	8fc20010 	lw	v0,16(s8)
8000c970:	0043102b 	sltu	v0,v0,v1
8000c974:	1440ffcf 	bnez	v0,8000c8b4 <bootmap_info+0x2c>
8000c978:	00000000 	nop
8000c97c:	03c0e825 	move	sp,s8
8000c980:	8fbf001c 	lw	ra,28(sp)
8000c984:	8fbe0018 	lw	s8,24(sp)
8000c988:	27bd0020 	addiu	sp,sp,32
8000c98c:	03e00008 	jr	ra
8000c990:	00000000 	nop

8000c994 <bootmm_free_pages>:
8000c994:	27bdffd8 	addiu	sp,sp,-40
8000c998:	afbf0024 	sw	ra,36(sp)
8000c99c:	afbe0020 	sw	s8,32(sp)
8000c9a0:	03a0f025 	move	s8,sp
8000c9a4:	afc40028 	sw	a0,40(s8)
8000c9a8:	afc5002c 	sw	a1,44(s8)
8000c9ac:	8fc3002c 	lw	v1,44(s8)
8000c9b0:	2402f000 	li	v0,-4096
8000c9b4:	00621024 	and	v0,v1,v0
8000c9b8:	afc2002c 	sw	v0,44(s8)
8000c9bc:	8fc2002c 	lw	v0,44(s8)
8000c9c0:	00021302 	srl	v0,v0,0xc
8000c9c4:	afc20014 	sw	v0,20(s8)
8000c9c8:	8fc20014 	lw	v0,20(s8)
8000c9cc:	14400003 	bnez	v0,8000c9dc <bootmm_free_pages+0x48>
8000c9d0:	00000000 	nop
8000c9d4:	100000f5 	b	8000cdac <bootmm_free_pages+0x418>
8000c9d8:	00000000 	nop
8000c9dc:	8fc30028 	lw	v1,40(s8)
8000c9e0:	2402f000 	li	v0,-4096
8000c9e4:	00621024 	and	v0,v1,v0
8000c9e8:	afc20028 	sw	v0,40(s8)
8000c9ec:	afc00010 	sw	zero,16(s8)
8000c9f0:	10000039 	b	8000cad8 <bootmm_free_pages+0x144>
8000c9f4:	00000000 	nop
8000c9f8:	3c048003 	lui	a0,0x8003
8000c9fc:	8fc20010 	lw	v0,16(s8)
8000ca00:	00401825 	move	v1,v0
8000ca04:	00031080 	sll	v0,v1,0x2
8000ca08:	00401825 	move	v1,v0
8000ca0c:	00031080 	sll	v0,v1,0x2
8000ca10:	00431023 	subu	v0,v0,v1
8000ca14:	2483cec4 	addiu	v1,a0,-12604
8000ca18:	00431021 	addu	v0,v0,v1
8000ca1c:	8c43001c 	lw	v1,28(v0)
8000ca20:	8fc20028 	lw	v0,40(s8)
8000ca24:	0062102b 	sltu	v0,v1,v0
8000ca28:	10400003 	beqz	v0,8000ca38 <bootmm_free_pages+0xa4>
8000ca2c:	00000000 	nop
8000ca30:	10000026 	b	8000cacc <bootmm_free_pages+0x138>
8000ca34:	00000000 	nop
8000ca38:	3c048003 	lui	a0,0x8003
8000ca3c:	8fc20010 	lw	v0,16(s8)
8000ca40:	00401825 	move	v1,v0
8000ca44:	00031080 	sll	v0,v1,0x2
8000ca48:	00401825 	move	v1,v0
8000ca4c:	00031080 	sll	v0,v1,0x2
8000ca50:	00431023 	subu	v0,v0,v1
8000ca54:	2483cec4 	addiu	v1,a0,-12604
8000ca58:	00431021 	addu	v0,v0,v1
8000ca5c:	8c430018 	lw	v1,24(v0)
8000ca60:	8fc20028 	lw	v0,40(s8)
8000ca64:	0043102b 	sltu	v0,v0,v1
8000ca68:	10400003 	beqz	v0,8000ca78 <bootmm_free_pages+0xe4>
8000ca6c:	00000000 	nop
8000ca70:	10000016 	b	8000cacc <bootmm_free_pages+0x138>
8000ca74:	00000000 	nop
8000ca78:	8fc30028 	lw	v1,40(s8)
8000ca7c:	8fc2002c 	lw	v0,44(s8)
8000ca80:	00621021 	addu	v0,v1,v0
8000ca84:	2444ffff 	addiu	a0,v0,-1
8000ca88:	3c058003 	lui	a1,0x8003
8000ca8c:	8fc20010 	lw	v0,16(s8)
8000ca90:	00401825 	move	v1,v0
8000ca94:	00031080 	sll	v0,v1,0x2
8000ca98:	00401825 	move	v1,v0
8000ca9c:	00031080 	sll	v0,v1,0x2
8000caa0:	00431023 	subu	v0,v0,v1
8000caa4:	24a3cec4 	addiu	v1,a1,-12604
8000caa8:	00431021 	addu	v0,v0,v1
8000caac:	8c42001c 	lw	v0,28(v0)
8000cab0:	0044102b 	sltu	v0,v0,a0
8000cab4:	10400003 	beqz	v0,8000cac4 <bootmm_free_pages+0x130>
8000cab8:	00000000 	nop
8000cabc:	10000003 	b	8000cacc <bootmm_free_pages+0x138>
8000cac0:	00000000 	nop
8000cac4:	1000000b 	b	8000caf4 <bootmm_free_pages+0x160>
8000cac8:	00000000 	nop
8000cacc:	8fc20010 	lw	v0,16(s8)
8000cad0:	24420001 	addiu	v0,v0,1
8000cad4:	afc20010 	sw	v0,16(s8)
8000cad8:	3c028003 	lui	v0,0x8003
8000cadc:	2442cec4 	addiu	v0,v0,-12604
8000cae0:	8c430014 	lw	v1,20(v0)
8000cae4:	8fc20010 	lw	v0,16(s8)
8000cae8:	0043102b 	sltu	v0,v0,v1
8000caec:	1440ffc2 	bnez	v0,8000c9f8 <bootmm_free_pages+0x64>
8000caf0:	00000000 	nop
8000caf4:	3c028003 	lui	v0,0x8003
8000caf8:	2442cec4 	addiu	v0,v0,-12604
8000cafc:	8c430014 	lw	v1,20(v0)
8000cb00:	8fc20010 	lw	v0,16(s8)
8000cb04:	14620009 	bne	v1,v0,8000cb2c <bootmm_free_pages+0x198>
8000cb08:	00000000 	nop
8000cb0c:	3c028002 	lui	v0,0x8002
8000cb10:	24448ae8 	addiu	a0,v0,-29976
8000cb14:	8fc50028 	lw	a1,40(s8)
8000cb18:	8fc6002c 	lw	a2,44(s8)
8000cb1c:	0c000aaa 	jal	80002aa8 <kernel_printf>
8000cb20:	00000000 	nop
8000cb24:	100000a1 	b	8000cdac <bootmm_free_pages+0x418>
8000cb28:	00000000 	nop
8000cb2c:	8fc20028 	lw	v0,40(s8)
8000cb30:	00021302 	srl	v0,v0,0xc
8000cb34:	afc20018 	sw	v0,24(s8)
8000cb38:	8fc40018 	lw	a0,24(s8)
8000cb3c:	8fc50014 	lw	a1,20(s8)
8000cb40:	00003025 	move	a2,zero
8000cb44:	0c003131 	jal	8000c4c4 <set_maps>
8000cb48:	00000000 	nop
8000cb4c:	3c048003 	lui	a0,0x8003
8000cb50:	8fc20010 	lw	v0,16(s8)
8000cb54:	00401825 	move	v1,v0
8000cb58:	00031080 	sll	v0,v1,0x2
8000cb5c:	00401825 	move	v1,v0
8000cb60:	00031080 	sll	v0,v1,0x2
8000cb64:	00431023 	subu	v0,v0,v1
8000cb68:	2483cec4 	addiu	v1,a0,-12604
8000cb6c:	00431021 	addu	v0,v0,v1
8000cb70:	8c430018 	lw	v1,24(v0)
8000cb74:	8fc20028 	lw	v0,40(s8)
8000cb78:	1462003f 	bne	v1,v0,8000cc78 <bootmm_free_pages+0x2e4>
8000cb7c:	00000000 	nop
8000cb80:	3c048003 	lui	a0,0x8003
8000cb84:	8fc20010 	lw	v0,16(s8)
8000cb88:	00401825 	move	v1,v0
8000cb8c:	00031080 	sll	v0,v1,0x2
8000cb90:	00401825 	move	v1,v0
8000cb94:	00031080 	sll	v0,v1,0x2
8000cb98:	00431023 	subu	v0,v0,v1
8000cb9c:	2483cec4 	addiu	v1,a0,-12604
8000cba0:	00431021 	addu	v0,v0,v1
8000cba4:	8c43001c 	lw	v1,28(v0)
8000cba8:	8fc40028 	lw	a0,40(s8)
8000cbac:	8fc2002c 	lw	v0,44(s8)
8000cbb0:	00821021 	addu	v0,a0,v0
8000cbb4:	2442ffff 	addiu	v0,v0,-1
8000cbb8:	14620008 	bne	v1,v0,8000cbdc <bootmm_free_pages+0x248>
8000cbbc:	00000000 	nop
8000cbc0:	3c028003 	lui	v0,0x8003
8000cbc4:	2444cec4 	addiu	a0,v0,-12604
8000cbc8:	8fc50010 	lw	a1,16(s8)
8000cbcc:	0c00309e 	jal	8000c278 <remove_mminfo>
8000cbd0:	00000000 	nop
8000cbd4:	10000075 	b	8000cdac <bootmm_free_pages+0x418>
8000cbd8:	00000000 	nop
8000cbdc:	8fc20010 	lw	v0,16(s8)
8000cbe0:	00401825 	move	v1,v0
8000cbe4:	00031080 	sll	v0,v1,0x2
8000cbe8:	00401825 	move	v1,v0
8000cbec:	00031080 	sll	v0,v1,0x2
8000cbf0:	00431023 	subu	v0,v0,v1
8000cbf4:	24430018 	addiu	v1,v0,24
8000cbf8:	3c028003 	lui	v0,0x8003
8000cbfc:	2442cec4 	addiu	v0,v0,-12604
8000cc00:	00623821 	addu	a3,v1,v0
8000cc04:	8fc30028 	lw	v1,40(s8)
8000cc08:	8fc2002c 	lw	v0,44(s8)
8000cc0c:	00622821 	addu	a1,v1,v0
8000cc10:	3c048003 	lui	a0,0x8003
8000cc14:	8fc20010 	lw	v0,16(s8)
8000cc18:	00401825 	move	v1,v0
8000cc1c:	00031080 	sll	v0,v1,0x2
8000cc20:	00401825 	move	v1,v0
8000cc24:	00031080 	sll	v0,v1,0x2
8000cc28:	00431023 	subu	v0,v0,v1
8000cc2c:	2483cec4 	addiu	v1,a0,-12604
8000cc30:	00431021 	addu	v0,v0,v1
8000cc34:	8c46001c 	lw	a2,28(v0)
8000cc38:	3c048003 	lui	a0,0x8003
8000cc3c:	8fc20010 	lw	v0,16(s8)
8000cc40:	00401825 	move	v1,v0
8000cc44:	00031080 	sll	v0,v1,0x2
8000cc48:	00401825 	move	v1,v0
8000cc4c:	00031080 	sll	v0,v1,0x2
8000cc50:	00431023 	subu	v0,v0,v1
8000cc54:	2483cec4 	addiu	v1,a0,-12604
8000cc58:	00431021 	addu	v0,v0,v1
8000cc5c:	8c420020 	lw	v0,32(v0)
8000cc60:	00e02025 	move	a0,a3
8000cc64:	00403825 	move	a3,v0
8000cc68:	0c002f5c 	jal	8000bd70 <set_mminfo>
8000cc6c:	00000000 	nop
8000cc70:	1000004e 	b	8000cdac <bootmm_free_pages+0x418>
8000cc74:	00000000 	nop
8000cc78:	3c048003 	lui	a0,0x8003
8000cc7c:	8fc20010 	lw	v0,16(s8)
8000cc80:	00401825 	move	v1,v0
8000cc84:	00031080 	sll	v0,v1,0x2
8000cc88:	00401825 	move	v1,v0
8000cc8c:	00031080 	sll	v0,v1,0x2
8000cc90:	00431023 	subu	v0,v0,v1
8000cc94:	2483cec4 	addiu	v1,a0,-12604
8000cc98:	00431021 	addu	v0,v0,v1
8000cc9c:	8c43001c 	lw	v1,28(v0)
8000cca0:	8fc40028 	lw	a0,40(s8)
8000cca4:	8fc2002c 	lw	v0,44(s8)
8000cca8:	00821021 	addu	v0,a0,v0
8000ccac:	2442ffff 	addiu	v0,v0,-1
8000ccb0:	14620027 	bne	v1,v0,8000cd50 <bootmm_free_pages+0x3bc>
8000ccb4:	00000000 	nop
8000ccb8:	8fc20010 	lw	v0,16(s8)
8000ccbc:	00401825 	move	v1,v0
8000ccc0:	00031080 	sll	v0,v1,0x2
8000ccc4:	00401825 	move	v1,v0
8000ccc8:	00031080 	sll	v0,v1,0x2
8000cccc:	00431023 	subu	v0,v0,v1
8000ccd0:	24430018 	addiu	v1,v0,24
8000ccd4:	3c028003 	lui	v0,0x8003
8000ccd8:	2442cec4 	addiu	v0,v0,-12604
8000ccdc:	00623821 	addu	a3,v1,v0
8000cce0:	3c048003 	lui	a0,0x8003
8000cce4:	8fc20010 	lw	v0,16(s8)
8000cce8:	00401825 	move	v1,v0
8000ccec:	00031080 	sll	v0,v1,0x2
8000ccf0:	00401825 	move	v1,v0
8000ccf4:	00031080 	sll	v0,v1,0x2
8000ccf8:	00431023 	subu	v0,v0,v1
8000ccfc:	2483cec4 	addiu	v1,a0,-12604
8000cd00:	00431021 	addu	v0,v0,v1
8000cd04:	8c450018 	lw	a1,24(v0)
8000cd08:	8fc20028 	lw	v0,40(s8)
8000cd0c:	2446ffff 	addiu	a2,v0,-1
8000cd10:	3c048003 	lui	a0,0x8003
8000cd14:	8fc20010 	lw	v0,16(s8)
8000cd18:	00401825 	move	v1,v0
8000cd1c:	00031080 	sll	v0,v1,0x2
8000cd20:	00401825 	move	v1,v0
8000cd24:	00031080 	sll	v0,v1,0x2
8000cd28:	00431023 	subu	v0,v0,v1
8000cd2c:	2483cec4 	addiu	v1,a0,-12604
8000cd30:	00431021 	addu	v0,v0,v1
8000cd34:	8c420020 	lw	v0,32(v0)
8000cd38:	00e02025 	move	a0,a3
8000cd3c:	00403825 	move	a3,v0
8000cd40:	0c002f5c 	jal	8000bd70 <set_mminfo>
8000cd44:	00000000 	nop
8000cd48:	10000018 	b	8000cdac <bootmm_free_pages+0x418>
8000cd4c:	00000000 	nop
8000cd50:	3c028003 	lui	v0,0x8003
8000cd54:	2444cec4 	addiu	a0,v0,-12604
8000cd58:	8fc50010 	lw	a1,16(s8)
8000cd5c:	8fc60028 	lw	a2,40(s8)
8000cd60:	0c003031 	jal	8000c0c4 <split_mminfo>
8000cd64:	00000000 	nop
8000cd68:	8fc20010 	lw	v0,16(s8)
8000cd6c:	24450001 	addiu	a1,v0,1
8000cd70:	8fc30028 	lw	v1,40(s8)
8000cd74:	8fc2002c 	lw	v0,44(s8)
8000cd78:	00621821 	addu	v1,v1,v0
8000cd7c:	3c028003 	lui	v0,0x8003
8000cd80:	2444cec4 	addiu	a0,v0,-12604
8000cd84:	00603025 	move	a2,v1
8000cd88:	0c003031 	jal	8000c0c4 <split_mminfo>
8000cd8c:	00000000 	nop
8000cd90:	8fc20010 	lw	v0,16(s8)
8000cd94:	24430001 	addiu	v1,v0,1
8000cd98:	3c028003 	lui	v0,0x8003
8000cd9c:	2444cec4 	addiu	a0,v0,-12604
8000cda0:	00602825 	move	a1,v1
8000cda4:	0c00309e 	jal	8000c278 <remove_mminfo>
8000cda8:	00000000 	nop
8000cdac:	03c0e825 	move	sp,s8
8000cdb0:	8fbf0024 	lw	ra,36(sp)
8000cdb4:	8fbe0020 	lw	s8,32(sp)
8000cdb8:	27bd0028 	addiu	sp,sp,40
8000cdbc:	03e00008 	jr	ra
8000cdc0:	00000000 	nop

8000cdc4 <__list_add>:
8000cdc4:	27bdfff8 	addiu	sp,sp,-8
8000cdc8:	afbe0004 	sw	s8,4(sp)
8000cdcc:	03a0f025 	move	s8,sp
8000cdd0:	afc40008 	sw	a0,8(s8)
8000cdd4:	afc5000c 	sw	a1,12(s8)
8000cdd8:	afc60010 	sw	a2,16(s8)
8000cddc:	8fc20008 	lw	v0,8(s8)
8000cde0:	8fc30010 	lw	v1,16(s8)
8000cde4:	ac430004 	sw	v1,4(v0)
8000cde8:	8fc20008 	lw	v0,8(s8)
8000cdec:	8fc3000c 	lw	v1,12(s8)
8000cdf0:	ac430000 	sw	v1,0(v0)
8000cdf4:	8fc2000c 	lw	v0,12(s8)
8000cdf8:	8fc30008 	lw	v1,8(s8)
8000cdfc:	ac430004 	sw	v1,4(v0)
8000ce00:	8fc20010 	lw	v0,16(s8)
8000ce04:	8fc30008 	lw	v1,8(s8)
8000ce08:	ac430000 	sw	v1,0(v0)
8000ce0c:	03c0e825 	move	sp,s8
8000ce10:	8fbe0004 	lw	s8,4(sp)
8000ce14:	27bd0008 	addiu	sp,sp,8
8000ce18:	03e00008 	jr	ra
8000ce1c:	00000000 	nop

8000ce20 <list_add>:
8000ce20:	27bdffe8 	addiu	sp,sp,-24
8000ce24:	afbf0014 	sw	ra,20(sp)
8000ce28:	afbe0010 	sw	s8,16(sp)
8000ce2c:	03a0f025 	move	s8,sp
8000ce30:	afc40018 	sw	a0,24(s8)
8000ce34:	afc5001c 	sw	a1,28(s8)
8000ce38:	8fc2001c 	lw	v0,28(s8)
8000ce3c:	8c420004 	lw	v0,4(v0)
8000ce40:	8fc40018 	lw	a0,24(s8)
8000ce44:	8fc5001c 	lw	a1,28(s8)
8000ce48:	00403025 	move	a2,v0
8000ce4c:	0c003371 	jal	8000cdc4 <__list_add>
8000ce50:	00000000 	nop
8000ce54:	03c0e825 	move	sp,s8
8000ce58:	8fbf0014 	lw	ra,20(sp)
8000ce5c:	8fbe0010 	lw	s8,16(sp)
8000ce60:	27bd0018 	addiu	sp,sp,24
8000ce64:	03e00008 	jr	ra
8000ce68:	00000000 	nop

8000ce6c <__list_del>:
8000ce6c:	27bdfff8 	addiu	sp,sp,-8
8000ce70:	afbe0004 	sw	s8,4(sp)
8000ce74:	03a0f025 	move	s8,sp
8000ce78:	afc40008 	sw	a0,8(s8)
8000ce7c:	afc5000c 	sw	a1,12(s8)
8000ce80:	8fc20008 	lw	v0,8(s8)
8000ce84:	8fc3000c 	lw	v1,12(s8)
8000ce88:	ac430004 	sw	v1,4(v0)
8000ce8c:	8fc2000c 	lw	v0,12(s8)
8000ce90:	8fc30008 	lw	v1,8(s8)
8000ce94:	ac430000 	sw	v1,0(v0)
8000ce98:	03c0e825 	move	sp,s8
8000ce9c:	8fbe0004 	lw	s8,4(sp)
8000cea0:	27bd0008 	addiu	sp,sp,8
8000cea4:	03e00008 	jr	ra
8000cea8:	00000000 	nop

8000ceac <list_del_init>:
8000ceac:	27bdffe8 	addiu	sp,sp,-24
8000ceb0:	afbf0014 	sw	ra,20(sp)
8000ceb4:	afbe0010 	sw	s8,16(sp)
8000ceb8:	03a0f025 	move	s8,sp
8000cebc:	afc40018 	sw	a0,24(s8)
8000cec0:	8fc20018 	lw	v0,24(s8)
8000cec4:	8c430000 	lw	v1,0(v0)
8000cec8:	8fc20018 	lw	v0,24(s8)
8000cecc:	8c420004 	lw	v0,4(v0)
8000ced0:	00602025 	move	a0,v1
8000ced4:	00402825 	move	a1,v0
8000ced8:	0c00339b 	jal	8000ce6c <__list_del>
8000cedc:	00000000 	nop
8000cee0:	8fc20018 	lw	v0,24(s8)
8000cee4:	8fc30018 	lw	v1,24(s8)
8000cee8:	ac430004 	sw	v1,4(v0)
8000ceec:	8fc20018 	lw	v0,24(s8)
8000cef0:	8fc30018 	lw	v1,24(s8)
8000cef4:	ac430000 	sw	v1,0(v0)
8000cef8:	03c0e825 	move	sp,s8
8000cefc:	8fbf0014 	lw	ra,20(sp)
8000cf00:	8fbe0010 	lw	s8,16(sp)
8000cf04:	27bd0018 	addiu	sp,sp,24
8000cf08:	03e00008 	jr	ra
8000cf0c:	00000000 	nop

8000cf10 <list_empty>:
8000cf10:	27bdfff8 	addiu	sp,sp,-8
8000cf14:	afbe0004 	sw	s8,4(sp)
8000cf18:	03a0f025 	move	s8,sp
8000cf1c:	afc40008 	sw	a0,8(s8)
8000cf20:	8fc20008 	lw	v0,8(s8)
8000cf24:	8c430004 	lw	v1,4(v0)
8000cf28:	8fc20008 	lw	v0,8(s8)
8000cf2c:	00621026 	xor	v0,v1,v0
8000cf30:	2c420001 	sltiu	v0,v0,1
8000cf34:	304200ff 	andi	v0,v0,0xff
8000cf38:	03c0e825 	move	sp,s8
8000cf3c:	8fbe0004 	lw	s8,4(sp)
8000cf40:	27bd0008 	addiu	sp,sp,8
8000cf44:	03e00008 	jr	ra
8000cf48:	00000000 	nop

8000cf4c <buddy_list_add>:
8000cf4c:	27bdffa8 	addiu	sp,sp,-88
8000cf50:	afbf0054 	sw	ra,84(sp)
8000cf54:	afbe0050 	sw	s8,80(sp)
8000cf58:	03a0f025 	move	s8,sp
8000cf5c:	afc40058 	sw	a0,88(s8)
8000cf60:	afc5005c 	sw	a1,92(s8)
8000cf64:	afc60060 	sw	a2,96(s8)
8000cf68:	8fc20058 	lw	v0,88(s8)
8000cf6c:	2442fff8 	addiu	v0,v0,-8
8000cf70:	afc20028 	sw	v0,40(s8)
8000cf74:	8fc20028 	lw	v0,40(s8)
8000cf78:	8f8380c4 	lw	v1,-32572(gp)
8000cf7c:	00431023 	subu	v0,v0,v1
8000cf80:	00021883 	sra	v1,v0,0x2
8000cf84:	3c02b6db 	lui	v0,0xb6db
8000cf88:	34426db7 	ori	v0,v0,0x6db7
8000cf8c:	70621002 	mul	v0,v1,v0
8000cf90:	afc2002c 	sw	v0,44(s8)
8000cf94:	8fc2005c 	lw	v0,92(s8)
8000cf98:	8c430000 	lw	v1,0(v0)
8000cf9c:	8fc2005c 	lw	v0,92(s8)
8000cfa0:	14620007 	bne	v1,v0,8000cfc0 <buddy_list_add+0x74>
8000cfa4:	00000000 	nop
8000cfa8:	8fc40058 	lw	a0,88(s8)
8000cfac:	8fc5005c 	lw	a1,92(s8)
8000cfb0:	0c003388 	jal	8000ce20 <list_add>
8000cfb4:	00000000 	nop
8000cfb8:	100000af 	b	8000d278 <buddy_list_add+0x32c>
8000cfbc:	00000000 	nop
8000cfc0:	8fc20060 	lw	v0,96(s8)
8000cfc4:	14400057 	bnez	v0,8000d124 <buddy_list_add+0x1d8>
8000cfc8:	00000000 	nop
8000cfcc:	afc00010 	sw	zero,16(s8)
8000cfd0:	8fc2005c 	lw	v0,92(s8)
8000cfd4:	8c420004 	lw	v0,4(v0)
8000cfd8:	afc20014 	sw	v0,20(s8)
8000cfdc:	8fc2005c 	lw	v0,92(s8)
8000cfe0:	8c420000 	lw	v0,0(v0)
8000cfe4:	afc20030 	sw	v0,48(s8)
8000cfe8:	8fc2005c 	lw	v0,92(s8)
8000cfec:	8c420004 	lw	v0,4(v0)
8000cff0:	2442fff8 	addiu	v0,v0,-8
8000cff4:	afc20018 	sw	v0,24(s8)
8000cff8:	8fc2005c 	lw	v0,92(s8)
8000cffc:	8c420000 	lw	v0,0(v0)
8000d000:	2442fff8 	addiu	v0,v0,-8
8000d004:	afc20034 	sw	v0,52(s8)
8000d008:	1000001e 	b	8000d084 <buddy_list_add+0x138>
8000d00c:	00000000 	nop
8000d010:	8fc20018 	lw	v0,24(s8)
8000d014:	8f8380c4 	lw	v1,-32572(gp)
8000d018:	00431023 	subu	v0,v0,v1
8000d01c:	00021883 	sra	v1,v0,0x2
8000d020:	3c02b6db 	lui	v0,0xb6db
8000d024:	34426db7 	ori	v0,v0,0x6db7
8000d028:	70621002 	mul	v0,v1,v0
8000d02c:	afc20038 	sw	v0,56(s8)
8000d030:	8fc30038 	lw	v1,56(s8)
8000d034:	8fc2002c 	lw	v0,44(s8)
8000d038:	0062102b 	sltu	v0,v1,v0
8000d03c:	1440000b 	bnez	v0,8000d06c <buddy_list_add+0x120>
8000d040:	00000000 	nop
8000d044:	24020001 	li	v0,1
8000d048:	afc20010 	sw	v0,16(s8)
8000d04c:	8fc20014 	lw	v0,20(s8)
8000d050:	8c420000 	lw	v0,0(v0)
8000d054:	8fc40058 	lw	a0,88(s8)
8000d058:	00402825 	move	a1,v0
8000d05c:	0c003388 	jal	8000ce20 <list_add>
8000d060:	00000000 	nop
8000d064:	1000000b 	b	8000d094 <buddy_list_add+0x148>
8000d068:	00000000 	nop
8000d06c:	8fc20014 	lw	v0,20(s8)
8000d070:	8c420004 	lw	v0,4(v0)
8000d074:	afc20014 	sw	v0,20(s8)
8000d078:	8fc20014 	lw	v0,20(s8)
8000d07c:	2442fff8 	addiu	v0,v0,-8
8000d080:	afc20018 	sw	v0,24(s8)
8000d084:	8fc30018 	lw	v1,24(s8)
8000d088:	8fc20034 	lw	v0,52(s8)
8000d08c:	1462ffe0 	bne	v1,v0,8000d010 <buddy_list_add+0xc4>
8000d090:	00000000 	nop
8000d094:	8fc20010 	lw	v0,16(s8)
8000d098:	14400020 	bnez	v0,8000d11c <buddy_list_add+0x1d0>
8000d09c:	00000000 	nop
8000d0a0:	8fc20034 	lw	v0,52(s8)
8000d0a4:	8f8380c4 	lw	v1,-32572(gp)
8000d0a8:	00431023 	subu	v0,v0,v1
8000d0ac:	00021883 	sra	v1,v0,0x2
8000d0b0:	3c02b6db 	lui	v0,0xb6db
8000d0b4:	34426db7 	ori	v0,v0,0x6db7
8000d0b8:	70621002 	mul	v0,v1,v0
8000d0bc:	afc2003c 	sw	v0,60(s8)
8000d0c0:	8fc3003c 	lw	v1,60(s8)
8000d0c4:	8fc2002c 	lw	v0,44(s8)
8000d0c8:	0062102b 	sltu	v0,v1,v0
8000d0cc:	1440000b 	bnez	v0,8000d0fc <buddy_list_add+0x1b0>
8000d0d0:	00000000 	nop
8000d0d4:	24020001 	li	v0,1
8000d0d8:	afc20010 	sw	v0,16(s8)
8000d0dc:	8fc20030 	lw	v0,48(s8)
8000d0e0:	8c420000 	lw	v0,0(v0)
8000d0e4:	8fc40058 	lw	a0,88(s8)
8000d0e8:	00402825 	move	a1,v0
8000d0ec:	0c003388 	jal	8000ce20 <list_add>
8000d0f0:	00000000 	nop
8000d0f4:	10000009 	b	8000d11c <buddy_list_add+0x1d0>
8000d0f8:	00000000 	nop
8000d0fc:	24020001 	li	v0,1
8000d100:	afc20010 	sw	v0,16(s8)
8000d104:	8fc40058 	lw	a0,88(s8)
8000d108:	8fc50030 	lw	a1,48(s8)
8000d10c:	0c003388 	jal	8000ce20 <list_add>
8000d110:	00000000 	nop
8000d114:	10000058 	b	8000d278 <buddy_list_add+0x32c>
8000d118:	00000000 	nop
8000d11c:	10000056 	b	8000d278 <buddy_list_add+0x32c>
8000d120:	00000000 	nop
8000d124:	8fc20060 	lw	v0,96(s8)
8000d128:	18400053 	blez	v0,8000d278 <buddy_list_add+0x32c>
8000d12c:	00000000 	nop
8000d130:	afc0001c 	sw	zero,28(s8)
8000d134:	8fc2005c 	lw	v0,92(s8)
8000d138:	8c420004 	lw	v0,4(v0)
8000d13c:	afc20020 	sw	v0,32(s8)
8000d140:	8fc2005c 	lw	v0,92(s8)
8000d144:	8c420000 	lw	v0,0(v0)
8000d148:	afc20040 	sw	v0,64(s8)
8000d14c:	8fc2005c 	lw	v0,92(s8)
8000d150:	8c420004 	lw	v0,4(v0)
8000d154:	2442fff8 	addiu	v0,v0,-8
8000d158:	afc20024 	sw	v0,36(s8)
8000d15c:	8fc2005c 	lw	v0,92(s8)
8000d160:	8c420000 	lw	v0,0(v0)
8000d164:	2442fff8 	addiu	v0,v0,-8
8000d168:	afc20044 	sw	v0,68(s8)
8000d16c:	1000001e 	b	8000d1e8 <buddy_list_add+0x29c>
8000d170:	00000000 	nop
8000d174:	8fc20024 	lw	v0,36(s8)
8000d178:	8f8380c4 	lw	v1,-32572(gp)
8000d17c:	00431023 	subu	v0,v0,v1
8000d180:	00021883 	sra	v1,v0,0x2
8000d184:	3c02b6db 	lui	v0,0xb6db
8000d188:	34426db7 	ori	v0,v0,0x6db7
8000d18c:	70621002 	mul	v0,v1,v0
8000d190:	afc20048 	sw	v0,72(s8)
8000d194:	8fc30048 	lw	v1,72(s8)
8000d198:	8fc2002c 	lw	v0,44(s8)
8000d19c:	0043102b 	sltu	v0,v0,v1
8000d1a0:	1440000b 	bnez	v0,8000d1d0 <buddy_list_add+0x284>
8000d1a4:	00000000 	nop
8000d1a8:	24020001 	li	v0,1
8000d1ac:	afc2001c 	sw	v0,28(s8)
8000d1b0:	8fc20020 	lw	v0,32(s8)
8000d1b4:	8c420000 	lw	v0,0(v0)
8000d1b8:	8fc40058 	lw	a0,88(s8)
8000d1bc:	00402825 	move	a1,v0
8000d1c0:	0c003388 	jal	8000ce20 <list_add>
8000d1c4:	00000000 	nop
8000d1c8:	1000000b 	b	8000d1f8 <buddy_list_add+0x2ac>
8000d1cc:	00000000 	nop
8000d1d0:	8fc20020 	lw	v0,32(s8)
8000d1d4:	8c420004 	lw	v0,4(v0)
8000d1d8:	afc20020 	sw	v0,32(s8)
8000d1dc:	8fc20020 	lw	v0,32(s8)
8000d1e0:	2442fff8 	addiu	v0,v0,-8
8000d1e4:	afc20024 	sw	v0,36(s8)
8000d1e8:	8fc30024 	lw	v1,36(s8)
8000d1ec:	8fc20044 	lw	v0,68(s8)
8000d1f0:	1462ffe0 	bne	v1,v0,8000d174 <buddy_list_add+0x228>
8000d1f4:	00000000 	nop
8000d1f8:	8fc2001c 	lw	v0,28(s8)
8000d1fc:	1440001e 	bnez	v0,8000d278 <buddy_list_add+0x32c>
8000d200:	00000000 	nop
8000d204:	8fc20044 	lw	v0,68(s8)
8000d208:	8f8380c4 	lw	v1,-32572(gp)
8000d20c:	00431023 	subu	v0,v0,v1
8000d210:	00021883 	sra	v1,v0,0x2
8000d214:	3c02b6db 	lui	v0,0xb6db
8000d218:	34426db7 	ori	v0,v0,0x6db7
8000d21c:	70621002 	mul	v0,v1,v0
8000d220:	afc2004c 	sw	v0,76(s8)
8000d224:	8fc3004c 	lw	v1,76(s8)
8000d228:	8fc2002c 	lw	v0,44(s8)
8000d22c:	0043102b 	sltu	v0,v0,v1
8000d230:	1440000b 	bnez	v0,8000d260 <buddy_list_add+0x314>
8000d234:	00000000 	nop
8000d238:	24020001 	li	v0,1
8000d23c:	afc2001c 	sw	v0,28(s8)
8000d240:	8fc20040 	lw	v0,64(s8)
8000d244:	8c420000 	lw	v0,0(v0)
8000d248:	8fc40058 	lw	a0,88(s8)
8000d24c:	00402825 	move	a1,v0
8000d250:	0c003388 	jal	8000ce20 <list_add>
8000d254:	00000000 	nop
8000d258:	10000007 	b	8000d278 <buddy_list_add+0x32c>
8000d25c:	00000000 	nop
8000d260:	24020001 	li	v0,1
8000d264:	afc2001c 	sw	v0,28(s8)
8000d268:	8fc40058 	lw	a0,88(s8)
8000d26c:	8fc50040 	lw	a1,64(s8)
8000d270:	0c003388 	jal	8000ce20 <list_add>
8000d274:	00000000 	nop
8000d278:	03c0e825 	move	sp,s8
8000d27c:	8fbf0054 	lw	ra,84(sp)
8000d280:	8fbe0050 	lw	s8,80(sp)
8000d284:	27bd0058 	addiu	sp,sp,88
8000d288:	03e00008 	jr	ra
8000d28c:	00000000 	nop

8000d290 <buddy_info>:
8000d290:	27bdffe0 	addiu	sp,sp,-32
8000d294:	afbf001c 	sw	ra,28(sp)
8000d298:	afbe0018 	sw	s8,24(sp)
8000d29c:	03a0f025 	move	s8,sp
8000d2a0:	3c028002 	lui	v0,0x8002
8000d2a4:	24448b14 	addiu	a0,v0,-29932
8000d2a8:	0c000aaa 	jal	80002aa8 <kernel_printf>
8000d2ac:	00000000 	nop
8000d2b0:	3c028003 	lui	v0,0x8003
8000d2b4:	8c43cf54 	lw	v1,-12460(v0)
8000d2b8:	3c028002 	lui	v0,0x8002
8000d2bc:	24448b24 	addiu	a0,v0,-29916
8000d2c0:	00602825 	move	a1,v1
8000d2c4:	0c000aaa 	jal	80002aa8 <kernel_printf>
8000d2c8:	00000000 	nop
8000d2cc:	3c028003 	lui	v0,0x8003
8000d2d0:	2442cf54 	addiu	v0,v0,-12460
8000d2d4:	8c430004 	lw	v1,4(v0)
8000d2d8:	3c028002 	lui	v0,0x8002
8000d2dc:	24448b44 	addiu	a0,v0,-29884
8000d2e0:	00602825 	move	a1,v1
8000d2e4:	0c000aaa 	jal	80002aa8 <kernel_printf>
8000d2e8:	00000000 	nop
8000d2ec:	afc00010 	sw	zero,16(s8)
8000d2f0:	10000014 	b	8000d344 <buddy_info+0xb4>
8000d2f4:	00000000 	nop
8000d2f8:	3c048003 	lui	a0,0x8003
8000d2fc:	8fc20010 	lw	v0,16(s8)
8000d300:	00401825 	move	v1,v0
8000d304:	00031080 	sll	v0,v1,0x2
8000d308:	00401825 	move	v1,v0
8000d30c:	00031080 	sll	v0,v1,0x2
8000d310:	00431023 	subu	v0,v0,v1
8000d314:	2483cf54 	addiu	v1,a0,-12460
8000d318:	00431021 	addu	v0,v0,v1
8000d31c:	8c430018 	lw	v1,24(v0)
8000d320:	3c028002 	lui	v0,0x8002
8000d324:	24448b64 	addiu	a0,v0,-29852
8000d328:	8fc50010 	lw	a1,16(s8)
8000d32c:	00603025 	move	a2,v1
8000d330:	0c000aaa 	jal	80002aa8 <kernel_printf>
8000d334:	00000000 	nop
8000d338:	8fc20010 	lw	v0,16(s8)
8000d33c:	24420001 	addiu	v0,v0,1
8000d340:	afc20010 	sw	v0,16(s8)
8000d344:	8fc20010 	lw	v0,16(s8)
8000d348:	2c420005 	sltiu	v0,v0,5
8000d34c:	1440ffea 	bnez	v0,8000d2f8 <buddy_info+0x68>
8000d350:	00000000 	nop
8000d354:	03c0e825 	move	sp,s8
8000d358:	8fbf001c 	lw	ra,28(sp)
8000d35c:	8fbe0018 	lw	s8,24(sp)
8000d360:	27bd0020 	addiu	sp,sp,32
8000d364:	03e00008 	jr	ra
8000d368:	00000000 	nop

8000d36c <init_pages>:
8000d36c:	27bdfff0 	addiu	sp,sp,-16
8000d370:	afbe000c 	sw	s8,12(sp)
8000d374:	03a0f025 	move	s8,sp
8000d378:	afc40010 	sw	a0,16(s8)
8000d37c:	afc50014 	sw	a1,20(s8)
8000d380:	8fc20010 	lw	v0,16(s8)
8000d384:	afc20000 	sw	v0,0(s8)
8000d388:	1000004e 	b	8000d4c4 <init_pages+0x158>
8000d38c:	00000000 	nop
8000d390:	8f8380c4 	lw	v1,-32572(gp)
8000d394:	8fc20000 	lw	v0,0(s8)
8000d398:	00021080 	sll	v0,v0,0x2
8000d39c:	000220c0 	sll	a0,v0,0x3
8000d3a0:	00821023 	subu	v0,a0,v0
8000d3a4:	00621021 	addu	v0,v1,v0
8000d3a8:	ac400000 	sw	zero,0(v0)
8000d3ac:	8f8380c4 	lw	v1,-32572(gp)
8000d3b0:	8fc20000 	lw	v0,0(s8)
8000d3b4:	00021080 	sll	v0,v0,0x2
8000d3b8:	000220c0 	sll	a0,v0,0x3
8000d3bc:	00821023 	subu	v0,a0,v0
8000d3c0:	00621021 	addu	v0,v1,v0
8000d3c4:	3c034000 	lui	v1,0x4000
8000d3c8:	ac430000 	sw	v1,0(v0)
8000d3cc:	8f8380c4 	lw	v1,-32572(gp)
8000d3d0:	8fc20000 	lw	v0,0(s8)
8000d3d4:	00021080 	sll	v0,v0,0x2
8000d3d8:	000220c0 	sll	a0,v0,0x3
8000d3dc:	00821023 	subu	v0,a0,v0
8000d3e0:	00621021 	addu	v0,v1,v0
8000d3e4:	24030001 	li	v1,1
8000d3e8:	ac430004 	sw	v1,4(v0)
8000d3ec:	8f8380c4 	lw	v1,-32572(gp)
8000d3f0:	8fc20000 	lw	v0,0(s8)
8000d3f4:	00021080 	sll	v0,v0,0x2
8000d3f8:	000220c0 	sll	a0,v0,0x3
8000d3fc:	00821023 	subu	v0,a0,v0
8000d400:	00621021 	addu	v0,v1,v0
8000d404:	2403ffff 	li	v1,-1
8000d408:	ac430010 	sw	v1,16(v0)
8000d40c:	8f8380c4 	lw	v1,-32572(gp)
8000d410:	8fc20000 	lw	v0,0(s8)
8000d414:	00021080 	sll	v0,v0,0x2
8000d418:	000220c0 	sll	a0,v0,0x3
8000d41c:	00821023 	subu	v0,a0,v0
8000d420:	00621021 	addu	v0,v1,v0
8000d424:	2403ffff 	li	v1,-1
8000d428:	ac430014 	sw	v1,20(v0)
8000d42c:	8f8380c4 	lw	v1,-32572(gp)
8000d430:	8fc20000 	lw	v0,0(s8)
8000d434:	00021080 	sll	v0,v0,0x2
8000d438:	000220c0 	sll	a0,v0,0x3
8000d43c:	00821023 	subu	v0,a0,v0
8000d440:	00621021 	addu	v0,v1,v0
8000d444:	ac400018 	sw	zero,24(v0)
8000d448:	8f8380c4 	lw	v1,-32572(gp)
8000d44c:	8fc20000 	lw	v0,0(s8)
8000d450:	00021080 	sll	v0,v0,0x2
8000d454:	000220c0 	sll	a0,v0,0x3
8000d458:	00821023 	subu	v0,a0,v0
8000d45c:	00621821 	addu	v1,v1,v0
8000d460:	8f8480c4 	lw	a0,-32572(gp)
8000d464:	8fc20000 	lw	v0,0(s8)
8000d468:	00021080 	sll	v0,v0,0x2
8000d46c:	000228c0 	sll	a1,v0,0x3
8000d470:	00a21023 	subu	v0,a1,v0
8000d474:	00821021 	addu	v0,a0,v0
8000d478:	24420008 	addiu	v0,v0,8
8000d47c:	ac62000c 	sw	v0,12(v1)
8000d480:	8f8380c4 	lw	v1,-32572(gp)
8000d484:	8fc20000 	lw	v0,0(s8)
8000d488:	00021080 	sll	v0,v0,0x2
8000d48c:	000220c0 	sll	a0,v0,0x3
8000d490:	00821023 	subu	v0,a0,v0
8000d494:	00621821 	addu	v1,v1,v0
8000d498:	8f8480c4 	lw	a0,-32572(gp)
8000d49c:	8fc20000 	lw	v0,0(s8)
8000d4a0:	00021080 	sll	v0,v0,0x2
8000d4a4:	000228c0 	sll	a1,v0,0x3
8000d4a8:	00a21023 	subu	v0,a1,v0
8000d4ac:	00821021 	addu	v0,a0,v0
8000d4b0:	24420008 	addiu	v0,v0,8
8000d4b4:	ac620008 	sw	v0,8(v1)
8000d4b8:	8fc20000 	lw	v0,0(s8)
8000d4bc:	24420001 	addiu	v0,v0,1
8000d4c0:	afc20000 	sw	v0,0(s8)
8000d4c4:	8fc30000 	lw	v1,0(s8)
8000d4c8:	8fc20014 	lw	v0,20(s8)
8000d4cc:	0062102b 	sltu	v0,v1,v0
8000d4d0:	1440ffaf 	bnez	v0,8000d390 <init_pages+0x24>
8000d4d4:	00000000 	nop
8000d4d8:	03c0e825 	move	sp,s8
8000d4dc:	8fbe000c 	lw	s8,12(sp)
8000d4e0:	27bd0010 	addiu	sp,sp,16
8000d4e4:	03e00008 	jr	ra
8000d4e8:	00000000 	nop

8000d4ec <init_buddy>:
8000d4ec:	27bdffd8 	addiu	sp,sp,-40
8000d4f0:	afbf0024 	sw	ra,36(sp)
8000d4f4:	afbe0020 	sw	s8,32(sp)
8000d4f8:	03a0f025 	move	s8,sp
8000d4fc:	2402001c 	li	v0,28
8000d500:	afc20014 	sw	v0,20(s8)
8000d504:	3c028003 	lui	v0,0x8003
8000d508:	2442cec4 	addiu	v0,v0,-12604
8000d50c:	8c430004 	lw	v1,4(v0)
8000d510:	8fc20014 	lw	v0,20(s8)
8000d514:	70621002 	mul	v0,v1,v0
8000d518:	00402025 	move	a0,v0
8000d51c:	00002825 	move	a1,zero
8000d520:	24061000 	li	a2,4096
8000d524:	0c0031c1 	jal	8000c704 <bootmm_alloc_pages>
8000d528:	00000000 	nop
8000d52c:	afc20018 	sw	v0,24(s8)
8000d530:	8fc20018 	lw	v0,24(s8)
8000d534:	14400007 	bnez	v0,8000d554 <init_buddy+0x68>
8000d538:	00000000 	nop
8000d53c:	3c028002 	lui	v0,0x8002
8000d540:	24448b78 	addiu	a0,v0,-29832
8000d544:	0c000aaa 	jal	80002aa8 <kernel_printf>
8000d548:	00000000 	nop
8000d54c:	1000ffff 	b	8000d54c <init_buddy+0x60>
8000d550:	00000000 	nop
8000d554:	8fc30018 	lw	v1,24(s8)
8000d558:	3c028000 	lui	v0,0x8000
8000d55c:	00621025 	or	v0,v1,v0
8000d560:	af8280c4 	sw	v0,-32572(gp)
8000d564:	3c028003 	lui	v0,0x8003
8000d568:	2442cec4 	addiu	v0,v0,-12604
8000d56c:	8c420004 	lw	v0,4(v0)
8000d570:	00002025 	move	a0,zero
8000d574:	00402825 	move	a1,v0
8000d578:	0c0034db 	jal	8000d36c <init_pages>
8000d57c:	00000000 	nop
8000d580:	af8080bc 	sw	zero,-32580(gp)
8000d584:	af8080c0 	sw	zero,-32576(gp)
8000d588:	afc00010 	sw	zero,16(s8)
8000d58c:	1000001d 	b	8000d604 <init_buddy+0x118>
8000d590:	00000000 	nop
8000d594:	3c048003 	lui	a0,0x8003
8000d598:	8fc20010 	lw	v0,16(s8)
8000d59c:	00401825 	move	v1,v0
8000d5a0:	00031080 	sll	v0,v1,0x2
8000d5a4:	00401825 	move	v1,v0
8000d5a8:	00031080 	sll	v0,v1,0x2
8000d5ac:	00431023 	subu	v0,v0,v1
8000d5b0:	2483cec4 	addiu	v1,a0,-12604
8000d5b4:	00431021 	addu	v0,v0,v1
8000d5b8:	8c43001c 	lw	v1,28(v0)
8000d5bc:	8f8280c0 	lw	v0,-32576(gp)
8000d5c0:	0043102b 	sltu	v0,v0,v1
8000d5c4:	1040000c 	beqz	v0,8000d5f8 <init_buddy+0x10c>
8000d5c8:	00000000 	nop
8000d5cc:	3c048003 	lui	a0,0x8003
8000d5d0:	8fc20010 	lw	v0,16(s8)
8000d5d4:	00401825 	move	v1,v0
8000d5d8:	00031080 	sll	v0,v1,0x2
8000d5dc:	00401825 	move	v1,v0
8000d5e0:	00031080 	sll	v0,v1,0x2
8000d5e4:	00431023 	subu	v0,v0,v1
8000d5e8:	2483cec4 	addiu	v1,a0,-12604
8000d5ec:	00431021 	addu	v0,v0,v1
8000d5f0:	8c42001c 	lw	v0,28(v0)
8000d5f4:	af8280c0 	sw	v0,-32576(gp)
8000d5f8:	8fc20010 	lw	v0,16(s8)
8000d5fc:	24420001 	addiu	v0,v0,1
8000d600:	afc20010 	sw	v0,16(s8)
8000d604:	3c028003 	lui	v0,0x8003
8000d608:	2442cec4 	addiu	v0,v0,-12604
8000d60c:	8c430014 	lw	v1,20(v0)
8000d610:	8fc20010 	lw	v0,16(s8)
8000d614:	0043102b 	sltu	v0,v0,v1
8000d618:	1440ffde 	bnez	v0,8000d594 <init_buddy+0xa8>
8000d61c:	00000000 	nop
8000d620:	8f8280c0 	lw	v0,-32576(gp)
8000d624:	00021302 	srl	v0,v0,0xc
8000d628:	af8280c0 	sw	v0,-32576(gp)
8000d62c:	8f8280c0 	lw	v0,-32576(gp)
8000d630:	2443000f 	addiu	v1,v0,15
8000d634:	2402fff0 	li	v0,-16
8000d638:	00621824 	and	v1,v1,v0
8000d63c:	3c028003 	lui	v0,0x8003
8000d640:	ac43cf54 	sw	v1,-12460(v0)
8000d644:	3c028003 	lui	v0,0x8003
8000d648:	2442cec4 	addiu	v0,v0,-12604
8000d64c:	8c430004 	lw	v1,4(v0)
8000d650:	2402fff0 	li	v0,-16
8000d654:	00621824 	and	v1,v1,v0
8000d658:	3c028003 	lui	v0,0x8003
8000d65c:	2442cf54 	addiu	v0,v0,-12460
8000d660:	ac430004 	sw	v1,4(v0)
8000d664:	afc00010 	sw	zero,16(s8)
8000d668:	10000038 	b	8000d74c <init_buddy+0x260>
8000d66c:	00000000 	nop
8000d670:	3c048003 	lui	a0,0x8003
8000d674:	8fc20010 	lw	v0,16(s8)
8000d678:	00401825 	move	v1,v0
8000d67c:	00031080 	sll	v0,v1,0x2
8000d680:	00401825 	move	v1,v0
8000d684:	00031080 	sll	v0,v1,0x2
8000d688:	00431023 	subu	v0,v0,v1
8000d68c:	2483cf54 	addiu	v1,a0,-12460
8000d690:	00431021 	addu	v0,v0,v1
8000d694:	ac400018 	sw	zero,24(v0)
8000d698:	8fc20010 	lw	v0,16(s8)
8000d69c:	00401825 	move	v1,v0
8000d6a0:	00031080 	sll	v0,v1,0x2
8000d6a4:	00401825 	move	v1,v0
8000d6a8:	00031080 	sll	v0,v1,0x2
8000d6ac:	00431023 	subu	v0,v0,v1
8000d6b0:	24430018 	addiu	v1,v0,24
8000d6b4:	3c028003 	lui	v0,0x8003
8000d6b8:	2442cf54 	addiu	v0,v0,-12460
8000d6bc:	00621021 	addu	v0,v1,v0
8000d6c0:	24440004 	addiu	a0,v0,4
8000d6c4:	3c058003 	lui	a1,0x8003
8000d6c8:	8fc20010 	lw	v0,16(s8)
8000d6cc:	00401825 	move	v1,v0
8000d6d0:	00031080 	sll	v0,v1,0x2
8000d6d4:	00401825 	move	v1,v0
8000d6d8:	00031080 	sll	v0,v1,0x2
8000d6dc:	00431023 	subu	v0,v0,v1
8000d6e0:	24a3cf54 	addiu	v1,a1,-12460
8000d6e4:	00431021 	addu	v0,v0,v1
8000d6e8:	ac440020 	sw	a0,32(v0)
8000d6ec:	8fc20010 	lw	v0,16(s8)
8000d6f0:	00401825 	move	v1,v0
8000d6f4:	00031080 	sll	v0,v1,0x2
8000d6f8:	00401825 	move	v1,v0
8000d6fc:	00031080 	sll	v0,v1,0x2
8000d700:	00431023 	subu	v0,v0,v1
8000d704:	24430018 	addiu	v1,v0,24
8000d708:	3c028003 	lui	v0,0x8003
8000d70c:	2442cf54 	addiu	v0,v0,-12460
8000d710:	00621021 	addu	v0,v1,v0
8000d714:	24440004 	addiu	a0,v0,4
8000d718:	3c058003 	lui	a1,0x8003
8000d71c:	8fc20010 	lw	v0,16(s8)
8000d720:	00401825 	move	v1,v0
8000d724:	00031080 	sll	v0,v1,0x2
8000d728:	00401825 	move	v1,v0
8000d72c:	00031080 	sll	v0,v1,0x2
8000d730:	00431023 	subu	v0,v0,v1
8000d734:	24a3cf54 	addiu	v1,a1,-12460
8000d738:	00431021 	addu	v0,v0,v1
8000d73c:	ac44001c 	sw	a0,28(v0)
8000d740:	8fc20010 	lw	v0,16(s8)
8000d744:	24420001 	addiu	v0,v0,1
8000d748:	afc20010 	sw	v0,16(s8)
8000d74c:	8fc20010 	lw	v0,16(s8)
8000d750:	2c420005 	sltiu	v0,v0,5
8000d754:	1440ffc6 	bnez	v0,8000d670 <init_buddy+0x184>
8000d758:	00000000 	nop
8000d75c:	8f8380c4 	lw	v1,-32572(gp)
8000d760:	3c028003 	lui	v0,0x8003
8000d764:	8c42cf54 	lw	v0,-12460(v0)
8000d768:	00021080 	sll	v0,v0,0x2
8000d76c:	000220c0 	sll	a0,v0,0x3
8000d770:	00821023 	subu	v0,a0,v0
8000d774:	00621821 	addu	v1,v1,v0
8000d778:	3c028003 	lui	v0,0x8003
8000d77c:	2442cf54 	addiu	v0,v0,-12460
8000d780:	ac430008 	sw	v1,8(v0)
8000d784:	3c028003 	lui	v0,0x8003
8000d788:	2444cf60 	addiu	a0,v0,-12448
8000d78c:	0c002f03 	jal	8000bc0c <init_lock>
8000d790:	00000000 	nop
8000d794:	3c028003 	lui	v0,0x8003
8000d798:	8c42cf54 	lw	v0,-12460(v0)
8000d79c:	afc20010 	sw	v0,16(s8)
8000d7a0:	1000000e 	b	8000d7dc <init_buddy+0x2f0>
8000d7a4:	00000000 	nop
8000d7a8:	8f8380c4 	lw	v1,-32572(gp)
8000d7ac:	8fc20010 	lw	v0,16(s8)
8000d7b0:	00021080 	sll	v0,v0,0x2
8000d7b4:	000220c0 	sll	a0,v0,0x3
8000d7b8:	00821023 	subu	v0,a0,v0
8000d7bc:	00621021 	addu	v0,v1,v0
8000d7c0:	00402025 	move	a0,v0
8000d7c4:	00002825 	move	a1,zero
8000d7c8:	0c003604 	jal	8000d810 <__free_pages>
8000d7cc:	00000000 	nop
8000d7d0:	8fc20010 	lw	v0,16(s8)
8000d7d4:	24420001 	addiu	v0,v0,1
8000d7d8:	afc20010 	sw	v0,16(s8)
8000d7dc:	3c028003 	lui	v0,0x8003
8000d7e0:	2442cf54 	addiu	v0,v0,-12460
8000d7e4:	8c430004 	lw	v1,4(v0)
8000d7e8:	8fc20010 	lw	v0,16(s8)
8000d7ec:	0043102b 	sltu	v0,v0,v1
8000d7f0:	1440ffed 	bnez	v0,8000d7a8 <init_buddy+0x2bc>
8000d7f4:	00000000 	nop
8000d7f8:	03c0e825 	move	sp,s8
8000d7fc:	8fbf0024 	lw	ra,36(sp)
8000d800:	8fbe0020 	lw	s8,32(sp)
8000d804:	27bd0028 	addiu	sp,sp,40
8000d808:	03e00008 	jr	ra
8000d80c:	00000000 	nop

8000d810 <__free_pages>:
8000d810:	27bdffd0 	addiu	sp,sp,-48
8000d814:	afbf002c 	sw	ra,44(sp)
8000d818:	afbe0028 	sw	s8,40(sp)
8000d81c:	03a0f025 	move	s8,sp
8000d820:	afc40030 	sw	a0,48(s8)
8000d824:	afc50034 	sw	a1,52(s8)
8000d828:	afc00014 	sw	zero,20(s8)
8000d82c:	8fc20030 	lw	v0,48(s8)
8000d830:	8c430000 	lw	v1,0(v0)
8000d834:	3c024000 	lui	v0,0x4000
8000d838:	00621024 	and	v0,v1,v0
8000d83c:	1440000d 	bnez	v0,8000d874 <__free_pages+0x64>
8000d840:	00000000 	nop
8000d844:	8fc20030 	lw	v0,48(s8)
8000d848:	8c430000 	lw	v1,0(v0)
8000d84c:	3c022000 	lui	v0,0x2000
8000d850:	00621024 	and	v0,v1,v0
8000d854:	14400007 	bnez	v0,8000d874 <__free_pages+0x64>
8000d858:	00000000 	nop
8000d85c:	3c028002 	lui	v0,0x8002
8000d860:	24448bb8 	addiu	a0,v0,-29768
8000d864:	0c000aaa 	jal	80002aa8 <kernel_printf>
8000d868:	00000000 	nop
8000d86c:	10000097 	b	8000dacc <__free_pages+0x2bc>
8000d870:	00000000 	nop
8000d874:	3c028003 	lui	v0,0x8003
8000d878:	2444cf60 	addiu	a0,v0,-12448
8000d87c:	0c002f2b 	jal	8000bcac <lockup>
8000d880:	00000000 	nop
8000d884:	8fc20030 	lw	v0,48(s8)
8000d888:	3c038000 	lui	v1,0x8000
8000d88c:	ac430000 	sw	v1,0(v0)
8000d890:	8fc20030 	lw	v0,48(s8)
8000d894:	3c038003 	lui	v1,0x8003
8000d898:	2463cf54 	addiu	v1,v1,-12460
8000d89c:	8c630008 	lw	v1,8(v1)
8000d8a0:	00431023 	subu	v0,v0,v1
8000d8a4:	00021883 	sra	v1,v0,0x2
8000d8a8:	3c02b6db 	lui	v0,0xb6db
8000d8ac:	34426db7 	ori	v0,v0,0x6db7
8000d8b0:	70621002 	mul	v0,v1,v0
8000d8b4:	afc20010 	sw	v0,16(s8)
8000d8b8:	10000052 	b	8000da04 <__free_pages+0x1f4>
8000d8bc:	00000000 	nop
8000d8c0:	8fc20034 	lw	v0,52(s8)
8000d8c4:	24030001 	li	v1,1
8000d8c8:	00431004 	sllv	v0,v1,v0
8000d8cc:	00401825 	move	v1,v0
8000d8d0:	8fc20010 	lw	v0,16(s8)
8000d8d4:	00621026 	xor	v0,v1,v0
8000d8d8:	afc20018 	sw	v0,24(s8)
8000d8dc:	8fc30018 	lw	v1,24(s8)
8000d8e0:	8fc20010 	lw	v0,16(s8)
8000d8e4:	00621023 	subu	v0,v1,v0
8000d8e8:	00021080 	sll	v0,v0,0x2
8000d8ec:	000218c0 	sll	v1,v0,0x3
8000d8f0:	00621023 	subu	v0,v1,v0
8000d8f4:	8fc30030 	lw	v1,48(s8)
8000d8f8:	00621021 	addu	v0,v1,v0
8000d8fc:	afc2001c 	sw	v0,28(s8)
8000d900:	8fc2001c 	lw	v0,28(s8)
8000d904:	8c430014 	lw	v1,20(v0)
8000d908:	8fc20034 	lw	v0,52(s8)
8000d90c:	10620003 	beq	v1,v0,8000d91c <__free_pages+0x10c>
8000d910:	00000000 	nop
8000d914:	1000003f 	b	8000da14 <__free_pages+0x204>
8000d918:	00000000 	nop
8000d91c:	8fc2001c 	lw	v0,28(s8)
8000d920:	8c430000 	lw	v1,0(v0)
8000d924:	3c024000 	lui	v0,0x4000
8000d928:	14620007 	bne	v1,v0,8000d948 <__free_pages+0x138>
8000d92c:	00000000 	nop
8000d930:	3c028002 	lui	v0,0x8002
8000d934:	24448bc8 	addiu	a0,v0,-29752
8000d938:	0c000aaa 	jal	80002aa8 <kernel_printf>
8000d93c:	00000000 	nop
8000d940:	10000034 	b	8000da14 <__free_pages+0x204>
8000d944:	00000000 	nop
8000d948:	8fc2001c 	lw	v0,28(s8)
8000d94c:	24420008 	addiu	v0,v0,8
8000d950:	00402025 	move	a0,v0
8000d954:	0c0033ab 	jal	8000ceac <list_del_init>
8000d958:	00000000 	nop
8000d95c:	3c048003 	lui	a0,0x8003
8000d960:	8fc20034 	lw	v0,52(s8)
8000d964:	00401825 	move	v1,v0
8000d968:	00031080 	sll	v0,v1,0x2
8000d96c:	00401825 	move	v1,v0
8000d970:	00031080 	sll	v0,v1,0x2
8000d974:	00431023 	subu	v0,v0,v1
8000d978:	2483cf54 	addiu	v1,a0,-12460
8000d97c:	00431021 	addu	v0,v0,v1
8000d980:	8c420018 	lw	v0,24(v0)
8000d984:	2444ffff 	addiu	a0,v0,-1
8000d988:	3c058003 	lui	a1,0x8003
8000d98c:	8fc20034 	lw	v0,52(s8)
8000d990:	00401825 	move	v1,v0
8000d994:	00031080 	sll	v0,v1,0x2
8000d998:	00401825 	move	v1,v0
8000d99c:	00031080 	sll	v0,v1,0x2
8000d9a0:	00431023 	subu	v0,v0,v1
8000d9a4:	24a3cf54 	addiu	v1,a1,-12460
8000d9a8:	00431021 	addu	v0,v0,v1
8000d9ac:	ac440018 	sw	a0,24(v0)
8000d9b0:	8fc2001c 	lw	v0,28(s8)
8000d9b4:	2403ffff 	li	v1,-1
8000d9b8:	ac430014 	sw	v1,20(v0)
8000d9bc:	8fc30018 	lw	v1,24(s8)
8000d9c0:	8fc20010 	lw	v0,16(s8)
8000d9c4:	00621024 	and	v0,v1,v0
8000d9c8:	afc20020 	sw	v0,32(s8)
8000d9cc:	8fc30020 	lw	v1,32(s8)
8000d9d0:	8fc20010 	lw	v0,16(s8)
8000d9d4:	00621023 	subu	v0,v1,v0
8000d9d8:	00021080 	sll	v0,v0,0x2
8000d9dc:	000218c0 	sll	v1,v0,0x3
8000d9e0:	00621023 	subu	v0,v1,v0
8000d9e4:	8fc30030 	lw	v1,48(s8)
8000d9e8:	00621021 	addu	v0,v1,v0
8000d9ec:	afc20030 	sw	v0,48(s8)
8000d9f0:	8fc20020 	lw	v0,32(s8)
8000d9f4:	afc20010 	sw	v0,16(s8)
8000d9f8:	8fc20034 	lw	v0,52(s8)
8000d9fc:	24420001 	addiu	v0,v0,1
8000da00:	afc20034 	sw	v0,52(s8)
8000da04:	8fc20034 	lw	v0,52(s8)
8000da08:	2c420004 	sltiu	v0,v0,4
8000da0c:	1440ffac 	bnez	v0,8000d8c0 <__free_pages+0xb0>
8000da10:	00000000 	nop
8000da14:	8fc20030 	lw	v0,48(s8)
8000da18:	8fc30034 	lw	v1,52(s8)
8000da1c:	ac430014 	sw	v1,20(v0)
8000da20:	8fc20030 	lw	v0,48(s8)
8000da24:	24440008 	addiu	a0,v0,8
8000da28:	8fc20034 	lw	v0,52(s8)
8000da2c:	00401825 	move	v1,v0
8000da30:	00031080 	sll	v0,v1,0x2
8000da34:	00401825 	move	v1,v0
8000da38:	00031080 	sll	v0,v1,0x2
8000da3c:	00431023 	subu	v0,v0,v1
8000da40:	24430018 	addiu	v1,v0,24
8000da44:	3c028003 	lui	v0,0x8003
8000da48:	2442cf54 	addiu	v0,v0,-12460
8000da4c:	00621021 	addu	v0,v1,v0
8000da50:	24430004 	addiu	v1,v0,4
8000da54:	8fc20034 	lw	v0,52(s8)
8000da58:	00602825 	move	a1,v1
8000da5c:	00403025 	move	a2,v0
8000da60:	0c0033d3 	jal	8000cf4c <buddy_list_add>
8000da64:	00000000 	nop
8000da68:	3c048003 	lui	a0,0x8003
8000da6c:	8fc20034 	lw	v0,52(s8)
8000da70:	00401825 	move	v1,v0
8000da74:	00031080 	sll	v0,v1,0x2
8000da78:	00401825 	move	v1,v0
8000da7c:	00031080 	sll	v0,v1,0x2
8000da80:	00431023 	subu	v0,v0,v1
8000da84:	2483cf54 	addiu	v1,a0,-12460
8000da88:	00431021 	addu	v0,v0,v1
8000da8c:	8c420018 	lw	v0,24(v0)
8000da90:	24440001 	addiu	a0,v0,1
8000da94:	3c058003 	lui	a1,0x8003
8000da98:	8fc20034 	lw	v0,52(s8)
8000da9c:	00401825 	move	v1,v0
8000daa0:	00031080 	sll	v0,v1,0x2
8000daa4:	00401825 	move	v1,v0
8000daa8:	00031080 	sll	v0,v1,0x2
8000daac:	00431023 	subu	v0,v0,v1
8000dab0:	24a3cf54 	addiu	v1,a1,-12460
8000dab4:	00431021 	addu	v0,v0,v1
8000dab8:	ac440018 	sw	a0,24(v0)
8000dabc:	3c028003 	lui	v0,0x8003
8000dac0:	2444cf60 	addiu	a0,v0,-12448
8000dac4:	0c002f42 	jal	8000bd08 <unlock>
8000dac8:	00000000 	nop
8000dacc:	03c0e825 	move	sp,s8
8000dad0:	8fbf002c 	lw	ra,44(sp)
8000dad4:	8fbe0028 	lw	s8,40(sp)
8000dad8:	27bd0030 	addiu	sp,sp,48
8000dadc:	03e00008 	jr	ra
8000dae0:	00000000 	nop

8000dae4 <__alloc_pages>:
8000dae4:	27bdffd0 	addiu	sp,sp,-48
8000dae8:	afbf002c 	sw	ra,44(sp)
8000daec:	afbe0028 	sw	s8,40(sp)
8000daf0:	03a0f025 	move	s8,sp
8000daf4:	afc40030 	sw	a0,48(s8)
8000daf8:	3c028003 	lui	v0,0x8003
8000dafc:	2444cf60 	addiu	a0,v0,-12448
8000db00:	0c002f2b 	jal	8000bcac <lockup>
8000db04:	00000000 	nop
8000db08:	8fc20030 	lw	v0,48(s8)
8000db0c:	afc20010 	sw	v0,16(s8)
8000db10:	1000001d 	b	8000db88 <__alloc_pages+0xa4>
8000db14:	00000000 	nop
8000db18:	8fc20010 	lw	v0,16(s8)
8000db1c:	00401825 	move	v1,v0
8000db20:	00031080 	sll	v0,v1,0x2
8000db24:	00401825 	move	v1,v0
8000db28:	00031080 	sll	v0,v1,0x2
8000db2c:	00431023 	subu	v0,v0,v1
8000db30:	24430018 	addiu	v1,v0,24
8000db34:	3c028003 	lui	v0,0x8003
8000db38:	2442cf54 	addiu	v0,v0,-12460
8000db3c:	00621021 	addu	v0,v1,v0
8000db40:	afc2001c 	sw	v0,28(s8)
8000db44:	8fc2001c 	lw	v0,28(s8)
8000db48:	24420004 	addiu	v0,v0,4
8000db4c:	00402025 	move	a0,v0
8000db50:	0c0033c4 	jal	8000cf10 <list_empty>
8000db54:	00000000 	nop
8000db58:	14400008 	bnez	v0,8000db7c <__alloc_pages+0x98>
8000db5c:	00000000 	nop
8000db60:	00000000 	nop
8000db64:	8fc30010 	lw	v1,16(s8)
8000db68:	8fc20030 	lw	v0,48(s8)
8000db6c:	10620017 	beq	v1,v0,8000dbcc <__alloc_pages+0xe8>
8000db70:	00000000 	nop
8000db74:	1000000f 	b	8000dbb4 <__alloc_pages+0xd0>
8000db78:	00000000 	nop
8000db7c:	8fc20010 	lw	v0,16(s8)
8000db80:	24420001 	addiu	v0,v0,1
8000db84:	afc20010 	sw	v0,16(s8)
8000db88:	8fc20010 	lw	v0,16(s8)
8000db8c:	2c420005 	sltiu	v0,v0,5
8000db90:	1440ffe1 	bnez	v0,8000db18 <__alloc_pages+0x34>
8000db94:	00000000 	nop
8000db98:	3c028003 	lui	v0,0x8003
8000db9c:	2444cf60 	addiu	a0,v0,-12448
8000dba0:	0c002f42 	jal	8000bd08 <unlock>
8000dba4:	00000000 	nop
8000dba8:	00001025 	move	v0,zero
8000dbac:	1000004f 	b	8000dcec <__alloc_pages+0x208>
8000dbb0:	00000000 	nop
8000dbb4:	8fc2001c 	lw	v0,28(s8)
8000dbb8:	8c420004 	lw	v0,4(v0)
8000dbbc:	2442fff8 	addiu	v0,v0,-8
8000dbc0:	afc20018 	sw	v0,24(s8)
8000dbc4:	10000005 	b	8000dbdc <__alloc_pages+0xf8>
8000dbc8:	00000000 	nop
8000dbcc:	8fc2001c 	lw	v0,28(s8)
8000dbd0:	8c420008 	lw	v0,8(v0)
8000dbd4:	2442fff8 	addiu	v0,v0,-8
8000dbd8:	afc20018 	sw	v0,24(s8)
8000dbdc:	8fc20018 	lw	v0,24(s8)
8000dbe0:	24420008 	addiu	v0,v0,8
8000dbe4:	00402025 	move	a0,v0
8000dbe8:	0c0033ab 	jal	8000ceac <list_del_init>
8000dbec:	00000000 	nop
8000dbf0:	8fc20018 	lw	v0,24(s8)
8000dbf4:	8fc30030 	lw	v1,48(s8)
8000dbf8:	ac430014 	sw	v1,20(v0)
8000dbfc:	8fc20018 	lw	v0,24(s8)
8000dc00:	3c034000 	lui	v1,0x4000
8000dc04:	ac430000 	sw	v1,0(v0)
8000dc08:	8fc2001c 	lw	v0,28(s8)
8000dc0c:	8c420000 	lw	v0,0(v0)
8000dc10:	2443ffff 	addiu	v1,v0,-1
8000dc14:	8fc2001c 	lw	v0,28(s8)
8000dc18:	ac430000 	sw	v1,0(v0)
8000dc1c:	8fc20010 	lw	v0,16(s8)
8000dc20:	24030001 	li	v1,1
8000dc24:	00431004 	sllv	v0,v1,v0
8000dc28:	afc20014 	sw	v0,20(s8)
8000dc2c:	10000025 	b	8000dcc4 <__alloc_pages+0x1e0>
8000dc30:	00000000 	nop
8000dc34:	8fc2001c 	lw	v0,28(s8)
8000dc38:	2442fff4 	addiu	v0,v0,-12
8000dc3c:	afc2001c 	sw	v0,28(s8)
8000dc40:	8fc20010 	lw	v0,16(s8)
8000dc44:	2442ffff 	addiu	v0,v0,-1
8000dc48:	afc20010 	sw	v0,16(s8)
8000dc4c:	8fc20014 	lw	v0,20(s8)
8000dc50:	00021042 	srl	v0,v0,0x1
8000dc54:	afc20014 	sw	v0,20(s8)
8000dc58:	8fc20014 	lw	v0,20(s8)
8000dc5c:	00021080 	sll	v0,v0,0x2
8000dc60:	000218c0 	sll	v1,v0,0x3
8000dc64:	00621023 	subu	v0,v1,v0
8000dc68:	8fc30018 	lw	v1,24(s8)
8000dc6c:	00621021 	addu	v0,v1,v0
8000dc70:	afc20020 	sw	v0,32(s8)
8000dc74:	8fc20020 	lw	v0,32(s8)
8000dc78:	24440008 	addiu	a0,v0,8
8000dc7c:	8fc2001c 	lw	v0,28(s8)
8000dc80:	24430004 	addiu	v1,v0,4
8000dc84:	8fc20010 	lw	v0,16(s8)
8000dc88:	00602825 	move	a1,v1
8000dc8c:	00403025 	move	a2,v0
8000dc90:	0c0033d3 	jal	8000cf4c <buddy_list_add>
8000dc94:	00000000 	nop
8000dc98:	8fc2001c 	lw	v0,28(s8)
8000dc9c:	8c420000 	lw	v0,0(v0)
8000dca0:	24430001 	addiu	v1,v0,1
8000dca4:	8fc2001c 	lw	v0,28(s8)
8000dca8:	ac430000 	sw	v1,0(v0)
8000dcac:	8fc20020 	lw	v0,32(s8)
8000dcb0:	8fc30010 	lw	v1,16(s8)
8000dcb4:	ac430014 	sw	v1,20(v0)
8000dcb8:	8fc20020 	lw	v0,32(s8)
8000dcbc:	3c038000 	lui	v1,0x8000
8000dcc0:	ac430000 	sw	v1,0(v0)
8000dcc4:	8fc30010 	lw	v1,16(s8)
8000dcc8:	8fc20030 	lw	v0,48(s8)
8000dccc:	0043102b 	sltu	v0,v0,v1
8000dcd0:	1440ffd8 	bnez	v0,8000dc34 <__alloc_pages+0x150>
8000dcd4:	00000000 	nop
8000dcd8:	3c028003 	lui	v0,0x8003
8000dcdc:	2444cf60 	addiu	a0,v0,-12448
8000dce0:	0c002f42 	jal	8000bd08 <unlock>
8000dce4:	00000000 	nop
8000dce8:	8fc20018 	lw	v0,24(s8)
8000dcec:	03c0e825 	move	sp,s8
8000dcf0:	8fbf002c 	lw	ra,44(sp)
8000dcf4:	8fbe0028 	lw	s8,40(sp)
8000dcf8:	27bd0030 	addiu	sp,sp,48
8000dcfc:	03e00008 	jr	ra
8000dd00:	00000000 	nop

8000dd04 <alloc_pages>:
8000dd04:	27bdffe0 	addiu	sp,sp,-32
8000dd08:	afbf001c 	sw	ra,28(sp)
8000dd0c:	afbe0018 	sw	s8,24(sp)
8000dd10:	03a0f025 	move	s8,sp
8000dd14:	afc40020 	sw	a0,32(s8)
8000dd18:	8fc40020 	lw	a0,32(s8)
8000dd1c:	0c0036b9 	jal	8000dae4 <__alloc_pages>
8000dd20:	00000000 	nop
8000dd24:	afc20010 	sw	v0,16(s8)
8000dd28:	8fc20010 	lw	v0,16(s8)
8000dd2c:	14400004 	bnez	v0,8000dd40 <alloc_pages+0x3c>
8000dd30:	00000000 	nop
8000dd34:	00001025 	move	v0,zero
8000dd38:	10000009 	b	8000dd60 <alloc_pages+0x5c>
8000dd3c:	00000000 	nop
8000dd40:	8fc20010 	lw	v0,16(s8)
8000dd44:	8f8380c4 	lw	v1,-32572(gp)
8000dd48:	00431023 	subu	v0,v0,v1
8000dd4c:	00021883 	sra	v1,v0,0x2
8000dd50:	3c02b6db 	lui	v0,0xb6db
8000dd54:	34426db7 	ori	v0,v0,0x6db7
8000dd58:	70621002 	mul	v0,v1,v0
8000dd5c:	00021300 	sll	v0,v0,0xc
8000dd60:	03c0e825 	move	sp,s8
8000dd64:	8fbf001c 	lw	ra,28(sp)
8000dd68:	8fbe0018 	lw	s8,24(sp)
8000dd6c:	27bd0020 	addiu	sp,sp,32
8000dd70:	03e00008 	jr	ra
8000dd74:	00000000 	nop

8000dd78 <free_pages>:
8000dd78:	27bdffe8 	addiu	sp,sp,-24
8000dd7c:	afbf0014 	sw	ra,20(sp)
8000dd80:	afbe0010 	sw	s8,16(sp)
8000dd84:	03a0f025 	move	s8,sp
8000dd88:	afc40018 	sw	a0,24(s8)
8000dd8c:	afc5001c 	sw	a1,28(s8)
8000dd90:	8f8380c4 	lw	v1,-32572(gp)
8000dd94:	8fc20018 	lw	v0,24(s8)
8000dd98:	00021302 	srl	v0,v0,0xc
8000dd9c:	00021080 	sll	v0,v0,0x2
8000dda0:	000220c0 	sll	a0,v0,0x3
8000dda4:	00821023 	subu	v0,a0,v0
8000dda8:	00621021 	addu	v0,v1,v0
8000ddac:	00402025 	move	a0,v0
8000ddb0:	8fc5001c 	lw	a1,28(s8)
8000ddb4:	0c003604 	jal	8000d810 <__free_pages>
8000ddb8:	00000000 	nop
8000ddbc:	03c0e825 	move	sp,s8
8000ddc0:	8fbf0014 	lw	ra,20(sp)
8000ddc4:	8fbe0010 	lw	s8,16(sp)
8000ddc8:	27bd0018 	addiu	sp,sp,24
8000ddcc:	03e00008 	jr	ra
8000ddd0:	00000000 	nop

8000ddd4 <__list_add>:
8000ddd4:	27bdfff8 	addiu	sp,sp,-8
8000ddd8:	afbe0004 	sw	s8,4(sp)
8000dddc:	03a0f025 	move	s8,sp
8000dde0:	afc40008 	sw	a0,8(s8)
8000dde4:	afc5000c 	sw	a1,12(s8)
8000dde8:	afc60010 	sw	a2,16(s8)
8000ddec:	8fc20008 	lw	v0,8(s8)
8000ddf0:	8fc30010 	lw	v1,16(s8)
8000ddf4:	ac430004 	sw	v1,4(v0)
8000ddf8:	8fc20008 	lw	v0,8(s8)
8000ddfc:	8fc3000c 	lw	v1,12(s8)
8000de00:	ac430000 	sw	v1,0(v0)
8000de04:	8fc2000c 	lw	v0,12(s8)
8000de08:	8fc30008 	lw	v1,8(s8)
8000de0c:	ac430004 	sw	v1,4(v0)
8000de10:	8fc20010 	lw	v0,16(s8)
8000de14:	8fc30008 	lw	v1,8(s8)
8000de18:	ac430000 	sw	v1,0(v0)
8000de1c:	03c0e825 	move	sp,s8
8000de20:	8fbe0004 	lw	s8,4(sp)
8000de24:	27bd0008 	addiu	sp,sp,8
8000de28:	03e00008 	jr	ra
8000de2c:	00000000 	nop

8000de30 <list_add_tail>:
8000de30:	27bdffe8 	addiu	sp,sp,-24
8000de34:	afbf0014 	sw	ra,20(sp)
8000de38:	afbe0010 	sw	s8,16(sp)
8000de3c:	03a0f025 	move	s8,sp
8000de40:	afc40018 	sw	a0,24(s8)
8000de44:	afc5001c 	sw	a1,28(s8)
8000de48:	8fc2001c 	lw	v0,28(s8)
8000de4c:	8c420000 	lw	v0,0(v0)
8000de50:	8fc40018 	lw	a0,24(s8)
8000de54:	00402825 	move	a1,v0
8000de58:	8fc6001c 	lw	a2,28(s8)
8000de5c:	0c003775 	jal	8000ddd4 <__list_add>
8000de60:	00000000 	nop
8000de64:	03c0e825 	move	sp,s8
8000de68:	8fbf0014 	lw	ra,20(sp)
8000de6c:	8fbe0010 	lw	s8,16(sp)
8000de70:	27bd0018 	addiu	sp,sp,24
8000de74:	03e00008 	jr	ra
8000de78:	00000000 	nop

8000de7c <__list_del>:
8000de7c:	27bdfff8 	addiu	sp,sp,-8
8000de80:	afbe0004 	sw	s8,4(sp)
8000de84:	03a0f025 	move	s8,sp
8000de88:	afc40008 	sw	a0,8(s8)
8000de8c:	afc5000c 	sw	a1,12(s8)
8000de90:	8fc20008 	lw	v0,8(s8)
8000de94:	8fc3000c 	lw	v1,12(s8)
8000de98:	ac430004 	sw	v1,4(v0)
8000de9c:	8fc2000c 	lw	v0,12(s8)
8000dea0:	8fc30008 	lw	v1,8(s8)
8000dea4:	ac430000 	sw	v1,0(v0)
8000dea8:	03c0e825 	move	sp,s8
8000deac:	8fbe0004 	lw	s8,4(sp)
8000deb0:	27bd0008 	addiu	sp,sp,8
8000deb4:	03e00008 	jr	ra
8000deb8:	00000000 	nop

8000debc <list_del>:
8000debc:	27bdffe8 	addiu	sp,sp,-24
8000dec0:	afbf0014 	sw	ra,20(sp)
8000dec4:	afbe0010 	sw	s8,16(sp)
8000dec8:	03a0f025 	move	s8,sp
8000decc:	afc40018 	sw	a0,24(s8)
8000ded0:	8fc20018 	lw	v0,24(s8)
8000ded4:	8c430000 	lw	v1,0(v0)
8000ded8:	8fc20018 	lw	v0,24(s8)
8000dedc:	8c420004 	lw	v0,4(v0)
8000dee0:	00602025 	move	a0,v1
8000dee4:	00402825 	move	a1,v0
8000dee8:	0c00379f 	jal	8000de7c <__list_del>
8000deec:	00000000 	nop
8000def0:	8fc20018 	lw	v0,24(s8)
8000def4:	3c031010 	lui	v1,0x1010
8000def8:	34631010 	ori	v1,v1,0x1010
8000defc:	ac430000 	sw	v1,0(v0)
8000df00:	8fc20018 	lw	v0,24(s8)
8000df04:	3c032020 	lui	v1,0x2020
8000df08:	34632020 	ori	v1,v1,0x2020
8000df0c:	ac430004 	sw	v1,4(v0)
8000df10:	03c0e825 	move	sp,s8
8000df14:	8fbf0014 	lw	ra,20(sp)
8000df18:	8fbe0010 	lw	s8,16(sp)
8000df1c:	27bd0018 	addiu	sp,sp,24
8000df20:	03e00008 	jr	ra
8000df24:	00000000 	nop

8000df28 <list_del_init>:
8000df28:	27bdffe8 	addiu	sp,sp,-24
8000df2c:	afbf0014 	sw	ra,20(sp)
8000df30:	afbe0010 	sw	s8,16(sp)
8000df34:	03a0f025 	move	s8,sp
8000df38:	afc40018 	sw	a0,24(s8)
8000df3c:	8fc20018 	lw	v0,24(s8)
8000df40:	8c430000 	lw	v1,0(v0)
8000df44:	8fc20018 	lw	v0,24(s8)
8000df48:	8c420004 	lw	v0,4(v0)
8000df4c:	00602025 	move	a0,v1
8000df50:	00402825 	move	a1,v0
8000df54:	0c00379f 	jal	8000de7c <__list_del>
8000df58:	00000000 	nop
8000df5c:	8fc20018 	lw	v0,24(s8)
8000df60:	8fc30018 	lw	v1,24(s8)
8000df64:	ac430004 	sw	v1,4(v0)
8000df68:	8fc20018 	lw	v0,24(s8)
8000df6c:	8fc30018 	lw	v1,24(s8)
8000df70:	ac430000 	sw	v1,0(v0)
8000df74:	03c0e825 	move	sp,s8
8000df78:	8fbf0014 	lw	ra,20(sp)
8000df7c:	8fbe0010 	lw	s8,16(sp)
8000df80:	27bd0018 	addiu	sp,sp,24
8000df84:	03e00008 	jr	ra
8000df88:	00000000 	nop

8000df8c <list_empty>:
8000df8c:	27bdfff8 	addiu	sp,sp,-8
8000df90:	afbe0004 	sw	s8,4(sp)
8000df94:	03a0f025 	move	s8,sp
8000df98:	afc40008 	sw	a0,8(s8)
8000df9c:	8fc20008 	lw	v0,8(s8)
8000dfa0:	8c430004 	lw	v1,4(v0)
8000dfa4:	8fc20008 	lw	v0,8(s8)
8000dfa8:	00621026 	xor	v0,v1,v0
8000dfac:	2c420001 	sltiu	v0,v0,1
8000dfb0:	304200ff 	andi	v0,v0,0xff
8000dfb4:	03c0e825 	move	sp,s8
8000dfb8:	8fbe0004 	lw	s8,4(sp)
8000dfbc:	27bd0008 	addiu	sp,sp,8
8000dfc0:	03e00008 	jr	ra
8000dfc4:	00000000 	nop

8000dfc8 <judge_slab_free>:
8000dfc8:	27bdffd8 	addiu	sp,sp,-40
8000dfcc:	afbf0024 	sw	ra,36(sp)
8000dfd0:	afbe0020 	sw	s8,32(sp)
8000dfd4:	03a0f025 	move	s8,sp
8000dfd8:	afc40028 	sw	a0,40(s8)
8000dfdc:	afc5002c 	sw	a1,44(s8)
8000dfe0:	8f8380c4 	lw	v1,-32572(gp)
8000dfe4:	8fc2002c 	lw	v0,44(s8)
8000dfe8:	00021302 	srl	v0,v0,0xc
8000dfec:	00021080 	sll	v0,v0,0x2
8000dff0:	000220c0 	sll	a0,v0,0x3
8000dff4:	00821023 	subu	v0,a0,v0
8000dff8:	00621021 	addu	v0,v1,v0
8000dffc:	afc20018 	sw	v0,24(s8)
8000e000:	8fc3002c 	lw	v1,44(s8)
8000e004:	3c028000 	lui	v0,0x8000
8000e008:	00621025 	or	v0,v1,v0
8000e00c:	afc2002c 	sw	v0,44(s8)
8000e010:	8fc20018 	lw	v0,24(s8)
8000e014:	8c420018 	lw	v0,24(v0)
8000e018:	afc20010 	sw	v0,16(s8)
8000e01c:	afc00014 	sw	zero,20(s8)
8000e020:	8fc20018 	lw	v0,24(s8)
8000e024:	8c430000 	lw	v1,0(v0)
8000e028:	3c022000 	lui	v0,0x2000
8000e02c:	10620004 	beq	v1,v0,8000e040 <judge_slab_free+0x78>
8000e030:	00000000 	nop
8000e034:	24020001 	li	v0,1
8000e038:	10000022 	b	8000e0c4 <judge_slab_free+0xfc>
8000e03c:	00000000 	nop
8000e040:	10000011 	b	8000e088 <judge_slab_free+0xc0>
8000e044:	00000000 	nop
8000e048:	8fc20010 	lw	v0,16(s8)
8000e04c:	8c430000 	lw	v1,0(v0)
8000e050:	8fc2002c 	lw	v0,44(s8)
8000e054:	14620005 	bne	v1,v0,8000e06c <judge_slab_free+0xa4>
8000e058:	00000000 	nop
8000e05c:	24020001 	li	v0,1
8000e060:	afc20014 	sw	v0,20(s8)
8000e064:	10000010 	b	8000e0a8 <judge_slab_free+0xe0>
8000e068:	00000000 	nop
8000e06c:	8fc20010 	lw	v0,16(s8)
8000e070:	8c420000 	lw	v0,0(v0)
8000e074:	00401825 	move	v1,v0
8000e078:	8fc20028 	lw	v0,40(s8)
8000e07c:	8c420008 	lw	v0,8(v0)
8000e080:	00621021 	addu	v0,v1,v0
8000e084:	afc20010 	sw	v0,16(s8)
8000e088:	8fc20010 	lw	v0,16(s8)
8000e08c:	8c420000 	lw	v0,0(v0)
8000e090:	00402025 	move	a0,v0
8000e094:	24051000 	li	a1,4096
8000e098:	0c005d61 	jal	80017584 <is_bound>
8000e09c:	00000000 	nop
8000e0a0:	1040ffe9 	beqz	v0,8000e048 <judge_slab_free+0x80>
8000e0a4:	00000000 	nop
8000e0a8:	8fc20014 	lw	v0,20(s8)
8000e0ac:	10400004 	beqz	v0,8000e0c0 <judge_slab_free+0xf8>
8000e0b0:	00000000 	nop
8000e0b4:	24020001 	li	v0,1
8000e0b8:	10000002 	b	8000e0c4 <judge_slab_free+0xfc>
8000e0bc:	00000000 	nop
8000e0c0:	00001025 	move	v0,zero
8000e0c4:	03c0e825 	move	sp,s8
8000e0c8:	8fbf0024 	lw	ra,36(sp)
8000e0cc:	8fbe0020 	lw	s8,32(sp)
8000e0d0:	27bd0028 	addiu	sp,sp,40
8000e0d4:	03e00008 	jr	ra
8000e0d8:	00000000 	nop

8000e0dc <init_kmem_cpu>:
8000e0dc:	27bdfff8 	addiu	sp,sp,-8
8000e0e0:	afbe0004 	sw	s8,4(sp)
8000e0e4:	03a0f025 	move	s8,sp
8000e0e8:	afc40008 	sw	a0,8(s8)
8000e0ec:	8fc20008 	lw	v0,8(s8)
8000e0f0:	ac400004 	sw	zero,4(v0)
8000e0f4:	8fc20008 	lw	v0,8(s8)
8000e0f8:	ac400000 	sw	zero,0(v0)
8000e0fc:	03c0e825 	move	sp,s8
8000e100:	8fbe0004 	lw	s8,4(sp)
8000e104:	27bd0008 	addiu	sp,sp,8
8000e108:	03e00008 	jr	ra
8000e10c:	00000000 	nop

8000e110 <init_kmem_node>:
8000e110:	27bdfff8 	addiu	sp,sp,-8
8000e114:	afbe0004 	sw	s8,4(sp)
8000e118:	03a0f025 	move	s8,sp
8000e11c:	afc40008 	sw	a0,8(s8)
8000e120:	8fc20008 	lw	v0,8(s8)
8000e124:	24430008 	addiu	v1,v0,8
8000e128:	8fc20008 	lw	v0,8(s8)
8000e12c:	ac43000c 	sw	v1,12(v0)
8000e130:	8fc20008 	lw	v0,8(s8)
8000e134:	24430008 	addiu	v1,v0,8
8000e138:	8fc20008 	lw	v0,8(s8)
8000e13c:	ac430008 	sw	v1,8(v0)
8000e140:	8fc30008 	lw	v1,8(s8)
8000e144:	8fc20008 	lw	v0,8(s8)
8000e148:	ac430004 	sw	v1,4(v0)
8000e14c:	8fc30008 	lw	v1,8(s8)
8000e150:	8fc20008 	lw	v0,8(s8)
8000e154:	ac430000 	sw	v1,0(v0)
8000e158:	03c0e825 	move	sp,s8
8000e15c:	8fbe0004 	lw	s8,4(sp)
8000e160:	27bd0008 	addiu	sp,sp,8
8000e164:	03e00008 	jr	ra
8000e168:	00000000 	nop

8000e16c <init_each_slab>:
8000e16c:	27bdffe8 	addiu	sp,sp,-24
8000e170:	afbf0014 	sw	ra,20(sp)
8000e174:	afbe0010 	sw	s8,16(sp)
8000e178:	03a0f025 	move	s8,sp
8000e17c:	afc40018 	sw	a0,24(s8)
8000e180:	afc5001c 	sw	a1,28(s8)
8000e184:	8fc20018 	lw	v0,24(s8)
8000e188:	8fc3001c 	lw	v1,28(s8)
8000e18c:	ac430004 	sw	v1,4(v0)
8000e190:	8fc20018 	lw	v0,24(s8)
8000e194:	8c420004 	lw	v0,4(v0)
8000e198:	24430003 	addiu	v1,v0,3
8000e19c:	8fc20018 	lw	v0,24(s8)
8000e1a0:	ac430004 	sw	v1,4(v0)
8000e1a4:	8fc20018 	lw	v0,24(s8)
8000e1a8:	8c430004 	lw	v1,4(v0)
8000e1ac:	2402fffc 	li	v0,-4
8000e1b0:	00621824 	and	v1,v1,v0
8000e1b4:	8fc20018 	lw	v0,24(s8)
8000e1b8:	ac430004 	sw	v1,4(v0)
8000e1bc:	8fc20018 	lw	v0,24(s8)
8000e1c0:	8c420004 	lw	v0,4(v0)
8000e1c4:	24430004 	addiu	v1,v0,4
8000e1c8:	8fc20018 	lw	v0,24(s8)
8000e1cc:	ac430000 	sw	v1,0(v0)
8000e1d0:	8fc20018 	lw	v0,24(s8)
8000e1d4:	8fc3001c 	lw	v1,28(s8)
8000e1d8:	ac430008 	sw	v1,8(v0)
8000e1dc:	8fc20018 	lw	v0,24(s8)
8000e1e0:	2442001c 	addiu	v0,v0,28
8000e1e4:	00402025 	move	a0,v0
8000e1e8:	0c003837 	jal	8000e0dc <init_kmem_cpu>
8000e1ec:	00000000 	nop
8000e1f0:	8fc20018 	lw	v0,24(s8)
8000e1f4:	2442000c 	addiu	v0,v0,12
8000e1f8:	00402025 	move	a0,v0
8000e1fc:	0c003844 	jal	8000e110 <init_kmem_node>
8000e200:	00000000 	nop
8000e204:	03c0e825 	move	sp,s8
8000e208:	8fbf0014 	lw	ra,20(sp)
8000e20c:	8fbe0010 	lw	s8,16(sp)
8000e210:	27bd0018 	addiu	sp,sp,24
8000e214:	03e00008 	jr	ra
8000e218:	00000000 	nop

8000e21c <init_slab>:
8000e21c:	27bdffe0 	addiu	sp,sp,-32
8000e220:	afbf001c 	sw	ra,28(sp)
8000e224:	afbe0018 	sw	s8,24(sp)
8000e228:	03a0f025 	move	s8,sp
8000e22c:	afc00010 	sw	zero,16(s8)
8000e230:	10000018 	b	8000e294 <init_slab+0x78>
8000e234:	00000000 	nop
8000e238:	8fc40010 	lw	a0,16(s8)
8000e23c:	00801825 	move	v1,a0
8000e240:	00031080 	sll	v0,v1,0x2
8000e244:	00401825 	move	v1,v0
8000e248:	00031080 	sll	v0,v1,0x2
8000e24c:	00431023 	subu	v0,v0,v1
8000e250:	00441021 	addu	v0,v0,a0
8000e254:	00021080 	sll	v0,v0,0x2
8000e258:	3c038003 	lui	v1,0x8003
8000e25c:	2463cfa8 	addiu	v1,v1,-12376
8000e260:	00432021 	addu	a0,v0,v1
8000e264:	3c028002 	lui	v0,0x8002
8000e268:	8fc30010 	lw	v1,16(s8)
8000e26c:	00031880 	sll	v1,v1,0x2
8000e270:	2442a754 	addiu	v0,v0,-22700
8000e274:	00621021 	addu	v0,v1,v0
8000e278:	8c420000 	lw	v0,0(v0)
8000e27c:	00402825 	move	a1,v0
8000e280:	0c00385b 	jal	8000e16c <init_each_slab>
8000e284:	00000000 	nop
8000e288:	8fc20010 	lw	v0,16(s8)
8000e28c:	24420001 	addiu	v0,v0,1
8000e290:	afc20010 	sw	v0,16(s8)
8000e294:	8fc20010 	lw	v0,16(s8)
8000e298:	2c42000c 	sltiu	v0,v0,12
8000e29c:	1440ffe6 	bnez	v0,8000e238 <init_slab+0x1c>
8000e2a0:	00000000 	nop
8000e2a4:	3c028002 	lui	v0,0x8002
8000e2a8:	24448bf0 	addiu	a0,v0,-29712
8000e2ac:	0c000aaa 	jal	80002aa8 <kernel_printf>
8000e2b0:	00000000 	nop
8000e2b4:	3c028002 	lui	v0,0x8002
8000e2b8:	24448c04 	addiu	a0,v0,-29692
8000e2bc:	0c000aaa 	jal	80002aa8 <kernel_printf>
8000e2c0:	00000000 	nop
8000e2c4:	afc00010 	sw	zero,16(s8)
8000e2c8:	10000021 	b	8000e350 <init_slab+0x134>
8000e2cc:	00000000 	nop
8000e2d0:	3c058003 	lui	a1,0x8003
8000e2d4:	8fc40010 	lw	a0,16(s8)
8000e2d8:	00801825 	move	v1,a0
8000e2dc:	00031080 	sll	v0,v1,0x2
8000e2e0:	00401825 	move	v1,v0
8000e2e4:	00031080 	sll	v0,v1,0x2
8000e2e8:	00431023 	subu	v0,v0,v1
8000e2ec:	00441021 	addu	v0,v0,a0
8000e2f0:	00021080 	sll	v0,v0,0x2
8000e2f4:	24a3cfa8 	addiu	v1,a1,-12376
8000e2f8:	00431021 	addu	v0,v0,v1
8000e2fc:	8c450004 	lw	a1,4(v0)
8000e300:	8fc40010 	lw	a0,16(s8)
8000e304:	00801825 	move	v1,a0
8000e308:	00031080 	sll	v0,v1,0x2
8000e30c:	00401825 	move	v1,v0
8000e310:	00031080 	sll	v0,v1,0x2
8000e314:	00431023 	subu	v0,v0,v1
8000e318:	00441021 	addu	v0,v0,a0
8000e31c:	00021080 	sll	v0,v0,0x2
8000e320:	3c038003 	lui	v1,0x8003
8000e324:	2463cfa8 	addiu	v1,v1,-12376
8000e328:	00431021 	addu	v0,v0,v1
8000e32c:	00401825 	move	v1,v0
8000e330:	3c028002 	lui	v0,0x8002
8000e334:	24448c28 	addiu	a0,v0,-29656
8000e338:	00603025 	move	a2,v1
8000e33c:	0c000aaa 	jal	80002aa8 <kernel_printf>
8000e340:	00000000 	nop
8000e344:	8fc20010 	lw	v0,16(s8)
8000e348:	24420001 	addiu	v0,v0,1
8000e34c:	afc20010 	sw	v0,16(s8)
8000e350:	8fc20010 	lw	v0,16(s8)
8000e354:	2c42000c 	sltiu	v0,v0,12
8000e358:	1440ffdd 	bnez	v0,8000e2d0 <init_slab+0xb4>
8000e35c:	00000000 	nop
8000e360:	3c028002 	lui	v0,0x8002
8000e364:	24448c30 	addiu	a0,v0,-29648
8000e368:	0c000aaa 	jal	80002aa8 <kernel_printf>
8000e36c:	00000000 	nop
8000e370:	03c0e825 	move	sp,s8
8000e374:	8fbf001c 	lw	ra,28(sp)
8000e378:	8fbe0018 	lw	s8,24(sp)
8000e37c:	27bd0020 	addiu	sp,sp,32
8000e380:	03e00008 	jr	ra
8000e384:	00000000 	nop

8000e388 <format_slabpage>:
8000e388:	27bdffe0 	addiu	sp,sp,-32
8000e38c:	afbe001c 	sw	s8,28(sp)
8000e390:	03a0f025 	move	s8,sp
8000e394:	afc40020 	sw	a0,32(s8)
8000e398:	afc50024 	sw	a1,36(s8)
8000e39c:	8fc20024 	lw	v0,36(s8)
8000e3a0:	8f8380c4 	lw	v1,-32572(gp)
8000e3a4:	00431023 	subu	v0,v0,v1
8000e3a8:	00021883 	sra	v1,v0,0x2
8000e3ac:	3c02b6db 	lui	v0,0xb6db
8000e3b0:	34426db7 	ori	v0,v0,0x6db7
8000e3b4:	70621002 	mul	v0,v1,v0
8000e3b8:	00021300 	sll	v0,v0,0xc
8000e3bc:	00401825 	move	v1,v0
8000e3c0:	3c028000 	lui	v0,0x8000
8000e3c4:	00621025 	or	v0,v1,v0
8000e3c8:	afc20000 	sw	v0,0(s8)
8000e3cc:	8fc20000 	lw	v0,0(s8)
8000e3d0:	afc20008 	sw	v0,8(s8)
8000e3d4:	24021000 	li	v0,4096
8000e3d8:	afc20004 	sw	v0,4(s8)
8000e3dc:	8fc20000 	lw	v0,0(s8)
8000e3e0:	24420008 	addiu	v0,v0,8
8000e3e4:	afc20000 	sw	v0,0(s8)
8000e3e8:	8fc20004 	lw	v0,4(s8)
8000e3ec:	2442fff8 	addiu	v0,v0,-8
8000e3f0:	afc20004 	sw	v0,4(s8)
8000e3f4:	8fc20000 	lw	v0,0(s8)
8000e3f8:	afc20010 	sw	v0,16(s8)
8000e3fc:	8fc20024 	lw	v0,36(s8)
8000e400:	3c032000 	lui	v1,0x2000
8000e404:	ac430000 	sw	v1,0(v0)
8000e408:	8fc20020 	lw	v0,32(s8)
8000e40c:	8c420008 	lw	v0,8(v0)
8000e410:	8fc30000 	lw	v1,0(s8)
8000e414:	00621021 	addu	v0,v1,v0
8000e418:	afc2000c 	sw	v0,12(s8)
8000e41c:	8fc20020 	lw	v0,32(s8)
8000e420:	8c420000 	lw	v0,0(v0)
8000e424:	8fc30000 	lw	v1,0(s8)
8000e428:	00621021 	addu	v0,v1,v0
8000e42c:	afc20000 	sw	v0,0(s8)
8000e430:	8fc30000 	lw	v1,0(s8)
8000e434:	8fc2000c 	lw	v0,12(s8)
8000e438:	ac430000 	sw	v1,0(v0)
8000e43c:	8fc20020 	lw	v0,32(s8)
8000e440:	8c420000 	lw	v0,0(v0)
8000e444:	8fc30004 	lw	v1,4(s8)
8000e448:	00621023 	subu	v0,v1,v0
8000e44c:	afc20004 	sw	v0,4(s8)
8000e450:	8fc20020 	lw	v0,32(s8)
8000e454:	8c430000 	lw	v1,0(v0)
8000e458:	8fc20004 	lw	v0,4(s8)
8000e45c:	0043102b 	sltu	v0,v0,v1
8000e460:	1040ffe9 	beqz	v0,8000e408 <format_slabpage+0x80>
8000e464:	00000000 	nop
8000e468:	8fc30000 	lw	v1,0(s8)
8000e46c:	2402f000 	li	v0,-4096
8000e470:	00621824 	and	v1,v1,v0
8000e474:	8fc2000c 	lw	v0,12(s8)
8000e478:	ac430000 	sw	v1,0(v0)
8000e47c:	8fc20008 	lw	v0,8(s8)
8000e480:	8fc3000c 	lw	v1,12(s8)
8000e484:	ac430000 	sw	v1,0(v0)
8000e488:	8fc20008 	lw	v0,8(s8)
8000e48c:	ac400004 	sw	zero,4(v0)
8000e490:	8fc20020 	lw	v0,32(s8)
8000e494:	8fc30024 	lw	v1,36(s8)
8000e498:	ac430020 	sw	v1,32(v0)
8000e49c:	8fc20020 	lw	v0,32(s8)
8000e4a0:	27c30010 	addiu	v1,s8,16
8000e4a4:	ac43001c 	sw	v1,28(v0)
8000e4a8:	8fc20024 	lw	v0,36(s8)
8000e4ac:	8fc30020 	lw	v1,32(s8)
8000e4b0:	ac430010 	sw	v1,16(v0)
8000e4b4:	8fc20020 	lw	v0,32(s8)
8000e4b8:	8c43001c 	lw	v1,28(v0)
8000e4bc:	8fc20024 	lw	v0,36(s8)
8000e4c0:	ac430018 	sw	v1,24(v0)
8000e4c4:	03c0e825 	move	sp,s8
8000e4c8:	8fbe001c 	lw	s8,28(sp)
8000e4cc:	27bd0020 	addiu	sp,sp,32
8000e4d0:	03e00008 	jr	ra
8000e4d4:	00000000 	nop

8000e4d8 <slab_alloc>:
8000e4d8:	27bdffd8 	addiu	sp,sp,-40
8000e4dc:	afbf0024 	sw	ra,36(sp)
8000e4e0:	afbe0020 	sw	s8,32(sp)
8000e4e4:	03a0f025 	move	s8,sp
8000e4e8:	afc40028 	sw	a0,40(s8)
8000e4ec:	afc00010 	sw	zero,16(s8)
8000e4f0:	8fc20028 	lw	v0,40(s8)
8000e4f4:	8c42001c 	lw	v0,28(v0)
8000e4f8:	10400005 	beqz	v0,8000e510 <slab_alloc+0x38>
8000e4fc:	00000000 	nop
8000e500:	8fc20028 	lw	v0,40(s8)
8000e504:	8c42001c 	lw	v0,28(v0)
8000e508:	8c420000 	lw	v0,0(v0)
8000e50c:	afc20010 	sw	v0,16(s8)
8000e510:	8fc20010 	lw	v0,16(s8)
8000e514:	00402025 	move	a0,v0
8000e518:	24051000 	li	a1,4096
8000e51c:	0c005d61 	jal	80017584 <is_bound>
8000e520:	00000000 	nop
8000e524:	1040004f 	beqz	v0,8000e664 <slab_alloc+0x18c>
8000e528:	00000000 	nop
8000e52c:	8fc20028 	lw	v0,40(s8)
8000e530:	8c420020 	lw	v0,32(v0)
8000e534:	1040000a 	beqz	v0,8000e560 <slab_alloc+0x88>
8000e538:	00000000 	nop
8000e53c:	8fc20028 	lw	v0,40(s8)
8000e540:	8c420020 	lw	v0,32(v0)
8000e544:	24430008 	addiu	v1,v0,8
8000e548:	8fc20028 	lw	v0,40(s8)
8000e54c:	24420014 	addiu	v0,v0,20
8000e550:	00602025 	move	a0,v1
8000e554:	00402825 	move	a1,v0
8000e558:	0c00378c 	jal	8000de30 <list_add_tail>
8000e55c:	00000000 	nop
8000e560:	8fc20028 	lw	v0,40(s8)
8000e564:	2442000c 	addiu	v0,v0,12
8000e568:	00402025 	move	a0,v0
8000e56c:	0c0037e3 	jal	8000df8c <list_empty>
8000e570:	00000000 	nop
8000e574:	10400025 	beqz	v0,8000e60c <slab_alloc+0x134>
8000e578:	00000000 	nop
8000e57c:	00002025 	move	a0,zero
8000e580:	0c0036b9 	jal	8000dae4 <__alloc_pages>
8000e584:	00000000 	nop
8000e588:	afc20014 	sw	v0,20(s8)
8000e58c:	8fc20014 	lw	v0,20(s8)
8000e590:	14400007 	bnez	v0,8000e5b0 <slab_alloc+0xd8>
8000e594:	00000000 	nop
8000e598:	3c028002 	lui	v0,0x8002
8000e59c:	24448c34 	addiu	a0,v0,-29644
8000e5a0:	0c000aaa 	jal	80002aa8 <kernel_printf>
8000e5a4:	00000000 	nop
8000e5a8:	1000ffff 	b	8000e5a8 <slab_alloc+0xd0>
8000e5ac:	00000000 	nop
8000e5b0:	8fc20014 	lw	v0,20(s8)
8000e5b4:	8f8380c4 	lw	v1,-32572(gp)
8000e5b8:	00431023 	subu	v0,v0,v1
8000e5bc:	00021883 	sra	v1,v0,0x2
8000e5c0:	3c02b6db 	lui	v0,0xb6db
8000e5c4:	34426db7 	ori	v0,v0,0x6db7
8000e5c8:	70621002 	mul	v0,v1,v0
8000e5cc:	00401825 	move	v1,v0
8000e5d0:	3c028002 	lui	v0,0x8002
8000e5d4:	24448c64 	addiu	a0,v0,-29596
8000e5d8:	00602825 	move	a1,v1
8000e5dc:	0c000aaa 	jal	80002aa8 <kernel_printf>
8000e5e0:	00000000 	nop
8000e5e4:	8fc40028 	lw	a0,40(s8)
8000e5e8:	8fc50014 	lw	a1,20(s8)
8000e5ec:	0c0038e2 	jal	8000e388 <format_slabpage>
8000e5f0:	00000000 	nop
8000e5f4:	8fc20028 	lw	v0,40(s8)
8000e5f8:	8c42001c 	lw	v0,28(v0)
8000e5fc:	8c420000 	lw	v0,0(v0)
8000e600:	afc20010 	sw	v0,16(s8)
8000e604:	1000ffc2 	b	8000e510 <slab_alloc+0x38>
8000e608:	00000000 	nop
8000e60c:	8fc20028 	lw	v0,40(s8)
8000e610:	8c420010 	lw	v0,16(v0)
8000e614:	2442fff8 	addiu	v0,v0,-8
8000e618:	00401825 	move	v1,v0
8000e61c:	8fc20028 	lw	v0,40(s8)
8000e620:	ac430020 	sw	v1,32(v0)
8000e624:	8fc20028 	lw	v0,40(s8)
8000e628:	8c420010 	lw	v0,16(v0)
8000e62c:	00402025 	move	a0,v0
8000e630:	0c0037af 	jal	8000debc <list_del>
8000e634:	00000000 	nop
8000e638:	8fc20028 	lw	v0,40(s8)
8000e63c:	8c420020 	lw	v0,32(v0)
8000e640:	8c430018 	lw	v1,24(v0)
8000e644:	8fc20028 	lw	v0,40(s8)
8000e648:	ac43001c 	sw	v1,28(v0)
8000e64c:	8fc20028 	lw	v0,40(s8)
8000e650:	8c42001c 	lw	v0,28(v0)
8000e654:	8c420000 	lw	v0,0(v0)
8000e658:	afc20010 	sw	v0,16(s8)
8000e65c:	1000ffac 	b	8000e510 <slab_alloc+0x38>
8000e660:	00000000 	nop
8000e664:	8fc20028 	lw	v0,40(s8)
8000e668:	8c420008 	lw	v0,8(v0)
8000e66c:	8fc30010 	lw	v1,16(s8)
8000e670:	00621821 	addu	v1,v1,v0
8000e674:	8fc20028 	lw	v0,40(s8)
8000e678:	ac43001c 	sw	v1,28(v0)
8000e67c:	8fc20028 	lw	v0,40(s8)
8000e680:	8c420020 	lw	v0,32(v0)
8000e684:	8fc30028 	lw	v1,40(s8)
8000e688:	8c63001c 	lw	v1,28(v1)
8000e68c:	ac430018 	sw	v1,24(v0)
8000e690:	8fc20028 	lw	v0,40(s8)
8000e694:	8c420020 	lw	v0,32(v0)
8000e698:	00401825 	move	v1,v0
8000e69c:	8f8280c4 	lw	v0,-32572(gp)
8000e6a0:	00621023 	subu	v0,v1,v0
8000e6a4:	00021883 	sra	v1,v0,0x2
8000e6a8:	3c02b6db 	lui	v0,0xb6db
8000e6ac:	34426db7 	ori	v0,v0,0x6db7
8000e6b0:	70621002 	mul	v0,v1,v0
8000e6b4:	00021300 	sll	v0,v0,0xc
8000e6b8:	00401825 	move	v1,v0
8000e6bc:	3c028000 	lui	v0,0x8000
8000e6c0:	00621025 	or	v0,v1,v0
8000e6c4:	afc20018 	sw	v0,24(s8)
8000e6c8:	8fc20018 	lw	v0,24(s8)
8000e6cc:	8c420004 	lw	v0,4(v0)
8000e6d0:	24430001 	addiu	v1,v0,1
8000e6d4:	8fc20018 	lw	v0,24(s8)
8000e6d8:	ac430004 	sw	v1,4(v0)
8000e6dc:	8fc20028 	lw	v0,40(s8)
8000e6e0:	8c420020 	lw	v0,32(v0)
8000e6e4:	8c430018 	lw	v1,24(v0)
8000e6e8:	3c028002 	lui	v0,0x8002
8000e6ec:	24448c7c 	addiu	a0,v0,-29572
8000e6f0:	00602825 	move	a1,v1
8000e6f4:	0c000aaa 	jal	80002aa8 <kernel_printf>
8000e6f8:	00000000 	nop
8000e6fc:	8fc20028 	lw	v0,40(s8)
8000e700:	8c420020 	lw	v0,32(v0)
8000e704:	8c420018 	lw	v0,24(v0)
8000e708:	8c430000 	lw	v1,0(v0)
8000e70c:	3c028002 	lui	v0,0x8002
8000e710:	24448c9c 	addiu	a0,v0,-29540
8000e714:	00602825 	move	a1,v1
8000e718:	0c000aaa 	jal	80002aa8 <kernel_printf>
8000e71c:	00000000 	nop
8000e720:	8fc20028 	lw	v0,40(s8)
8000e724:	8c420020 	lw	v0,32(v0)
8000e728:	8c420018 	lw	v0,24(v0)
8000e72c:	8c420000 	lw	v0,0(v0)
8000e730:	00402025 	move	a0,v0
8000e734:	24051000 	li	a1,4096
8000e738:	0c005d61 	jal	80017584 <is_bound>
8000e73c:	00000000 	nop
8000e740:	10400013 	beqz	v0,8000e790 <slab_alloc+0x2b8>
8000e744:	00000000 	nop
8000e748:	3c028002 	lui	v0,0x8002
8000e74c:	24448cb4 	addiu	a0,v0,-29516
8000e750:	0c000aaa 	jal	80002aa8 <kernel_printf>
8000e754:	00000000 	nop
8000e758:	8fc20028 	lw	v0,40(s8)
8000e75c:	8c420020 	lw	v0,32(v0)
8000e760:	24430008 	addiu	v1,v0,8
8000e764:	8fc20028 	lw	v0,40(s8)
8000e768:	24420014 	addiu	v0,v0,20
8000e76c:	00602025 	move	a0,v1
8000e770:	00402825 	move	a1,v0
8000e774:	0c00378c 	jal	8000de30 <list_add_tail>
8000e778:	00000000 	nop
8000e77c:	8fc20028 	lw	v0,40(s8)
8000e780:	2442001c 	addiu	v0,v0,28
8000e784:	00402025 	move	a0,v0
8000e788:	0c003837 	jal	8000e0dc <init_kmem_cpu>
8000e78c:	00000000 	nop
8000e790:	8fc20010 	lw	v0,16(s8)
8000e794:	03c0e825 	move	sp,s8
8000e798:	8fbf0024 	lw	ra,36(sp)
8000e79c:	8fbe0020 	lw	s8,32(sp)
8000e7a0:	27bd0028 	addiu	sp,sp,40
8000e7a4:	03e00008 	jr	ra
8000e7a8:	00000000 	nop

8000e7ac <slab_free>:
8000e7ac:	27bdffd8 	addiu	sp,sp,-40
8000e7b0:	afbf0024 	sw	ra,36(sp)
8000e7b4:	afbe0020 	sw	s8,32(sp)
8000e7b8:	03a0f025 	move	s8,sp
8000e7bc:	afc40028 	sw	a0,40(s8)
8000e7c0:	afc5002c 	sw	a1,44(s8)
8000e7c4:	8fc40028 	lw	a0,40(s8)
8000e7c8:	8fc5002c 	lw	a1,44(s8)
8000e7cc:	0c0037f2 	jal	8000dfc8 <judge_slab_free>
8000e7d0:	00000000 	nop
8000e7d4:	10400007 	beqz	v0,8000e7f4 <slab_free+0x48>
8000e7d8:	00000000 	nop
8000e7dc:	3c028002 	lui	v0,0x8002
8000e7e0:	24448cc4 	addiu	a0,v0,-29500
8000e7e4:	0c000aaa 	jal	80002aa8 <kernel_printf>
8000e7e8:	00000000 	nop
8000e7ec:	1000006f 	b	8000e9ac <slab_free+0x200>
8000e7f0:	00000000 	nop
8000e7f4:	8f8380c4 	lw	v1,-32572(gp)
8000e7f8:	8fc2002c 	lw	v0,44(s8)
8000e7fc:	00021302 	srl	v0,v0,0xc
8000e800:	00021080 	sll	v0,v0,0x2
8000e804:	000220c0 	sll	a0,v0,0x3
8000e808:	00821023 	subu	v0,a0,v0
8000e80c:	00621021 	addu	v0,v1,v0
8000e810:	afc20010 	sw	v0,16(s8)
8000e814:	8fc3002c 	lw	v1,44(s8)
8000e818:	3c028000 	lui	v0,0x8000
8000e81c:	00621025 	or	v0,v1,v0
8000e820:	afc2002c 	sw	v0,44(s8)
8000e824:	8fc20010 	lw	v0,16(s8)
8000e828:	8f8380c4 	lw	v1,-32572(gp)
8000e82c:	00431023 	subu	v0,v0,v1
8000e830:	00021883 	sra	v1,v0,0x2
8000e834:	3c02b6db 	lui	v0,0xb6db
8000e838:	34426db7 	ori	v0,v0,0x6db7
8000e83c:	70621002 	mul	v0,v1,v0
8000e840:	00021300 	sll	v0,v0,0xc
8000e844:	00401825 	move	v1,v0
8000e848:	3c028000 	lui	v0,0x8000
8000e84c:	00621025 	or	v0,v1,v0
8000e850:	afc20014 	sw	v0,20(s8)
8000e854:	8fc20014 	lw	v0,20(s8)
8000e858:	8c420004 	lw	v0,4(v0)
8000e85c:	14400007 	bnez	v0,8000e87c <slab_free+0xd0>
8000e860:	00000000 	nop
8000e864:	3c028002 	lui	v0,0x8002
8000e868:	24448cf8 	addiu	a0,v0,-29448
8000e86c:	0c000aaa 	jal	80002aa8 <kernel_printf>
8000e870:	00000000 	nop
8000e874:	1000ffff 	b	8000e874 <slab_free+0xc8>
8000e878:	00000000 	nop
8000e87c:	8fc20028 	lw	v0,40(s8)
8000e880:	8c420008 	lw	v0,8(v0)
8000e884:	8fc3002c 	lw	v1,44(s8)
8000e888:	00621021 	addu	v0,v1,v0
8000e88c:	afc20018 	sw	v0,24(s8)
8000e890:	8fc20014 	lw	v0,20(s8)
8000e894:	8c420000 	lw	v0,0(v0)
8000e898:	8c430000 	lw	v1,0(v0)
8000e89c:	8fc20018 	lw	v0,24(s8)
8000e8a0:	ac430000 	sw	v1,0(v0)
8000e8a4:	8fc20014 	lw	v0,20(s8)
8000e8a8:	8c420000 	lw	v0,0(v0)
8000e8ac:	8fc3002c 	lw	v1,44(s8)
8000e8b0:	ac430000 	sw	v1,0(v0)
8000e8b4:	8fc20014 	lw	v0,20(s8)
8000e8b8:	8fc30018 	lw	v1,24(s8)
8000e8bc:	ac430000 	sw	v1,0(v0)
8000e8c0:	8fc20014 	lw	v0,20(s8)
8000e8c4:	8c420004 	lw	v0,4(v0)
8000e8c8:	2443ffff 	addiu	v1,v0,-1
8000e8cc:	8fc20014 	lw	v0,20(s8)
8000e8d0:	ac430004 	sw	v1,4(v0)
8000e8d4:	8fc20010 	lw	v0,16(s8)
8000e8d8:	24420008 	addiu	v0,v0,8
8000e8dc:	00402025 	move	a0,v0
8000e8e0:	0c0037e3 	jal	8000df8c <list_empty>
8000e8e4:	00000000 	nop
8000e8e8:	10400003 	beqz	v0,8000e8f8 <slab_free+0x14c>
8000e8ec:	00000000 	nop
8000e8f0:	1000002e 	b	8000e9ac <slab_free+0x200>
8000e8f4:	00000000 	nop
8000e8f8:	3c028002 	lui	v0,0x8002
8000e8fc:	24448d14 	addiu	a0,v0,-29420
8000e900:	8fc5002c 	lw	a1,44(s8)
8000e904:	0c000aaa 	jal	80002aa8 <kernel_printf>
8000e908:	00000000 	nop
8000e90c:	8fc20014 	lw	v0,20(s8)
8000e910:	8c420004 	lw	v0,4(v0)
8000e914:	14400018 	bnez	v0,8000e978 <slab_free+0x1cc>
8000e918:	00000000 	nop
8000e91c:	8fc20010 	lw	v0,16(s8)
8000e920:	24420008 	addiu	v0,v0,8
8000e924:	00402025 	move	a0,v0
8000e928:	0c0037ca 	jal	8000df28 <list_del_init>
8000e92c:	00000000 	nop
8000e930:	8fc40010 	lw	a0,16(s8)
8000e934:	00002825 	move	a1,zero
8000e938:	0c003604 	jal	8000d810 <__free_pages>
8000e93c:	00000000 	nop
8000e940:	8fc20028 	lw	v0,40(s8)
8000e944:	8c430020 	lw	v1,32(v0)
8000e948:	8fc20010 	lw	v0,16(s8)
8000e94c:	14620008 	bne	v1,v0,8000e970 <slab_free+0x1c4>
8000e950:	00000000 	nop
8000e954:	8fc20028 	lw	v0,40(s8)
8000e958:	2442001c 	addiu	v0,v0,28
8000e95c:	00402025 	move	a0,v0
8000e960:	0c003837 	jal	8000e0dc <init_kmem_cpu>
8000e964:	00000000 	nop
8000e968:	10000010 	b	8000e9ac <slab_free+0x200>
8000e96c:	00000000 	nop
8000e970:	1000000e 	b	8000e9ac <slab_free+0x200>
8000e974:	00000000 	nop
8000e978:	8fc20010 	lw	v0,16(s8)
8000e97c:	24420008 	addiu	v0,v0,8
8000e980:	00402025 	move	a0,v0
8000e984:	0c0037ca 	jal	8000df28 <list_del_init>
8000e988:	00000000 	nop
8000e98c:	8fc20010 	lw	v0,16(s8)
8000e990:	24430008 	addiu	v1,v0,8
8000e994:	8fc20028 	lw	v0,40(s8)
8000e998:	2442000c 	addiu	v0,v0,12
8000e99c:	00602025 	move	a0,v1
8000e9a0:	00402825 	move	a1,v0
8000e9a4:	0c00378c 	jal	8000de30 <list_add_tail>
8000e9a8:	00000000 	nop
8000e9ac:	03c0e825 	move	sp,s8
8000e9b0:	8fbf0024 	lw	ra,36(sp)
8000e9b4:	8fbe0020 	lw	s8,32(sp)
8000e9b8:	27bd0028 	addiu	sp,sp,40
8000e9bc:	03e00008 	jr	ra
8000e9c0:	00000000 	nop

8000e9c4 <get_slab>:
8000e9c4:	27bdffe8 	addiu	sp,sp,-24
8000e9c8:	afbe0014 	sw	s8,20(sp)
8000e9cc:	03a0f025 	move	s8,sp
8000e9d0:	afc40018 	sw	a0,24(s8)
8000e9d4:	2402000c 	li	v0,12
8000e9d8:	afc2000c 	sw	v0,12(s8)
8000e9dc:	24020800 	li	v0,2048
8000e9e0:	afc20004 	sw	v0,4(s8)
8000e9e4:	2402000c 	li	v0,12
8000e9e8:	afc20008 	sw	v0,8(s8)
8000e9ec:	afc00000 	sw	zero,0(s8)
8000e9f0:	10000033 	b	8000eac0 <get_slab+0xfc>
8000e9f4:	00000000 	nop
8000e9f8:	3c058003 	lui	a1,0x8003
8000e9fc:	8fc40000 	lw	a0,0(s8)
8000ea00:	00801825 	move	v1,a0
8000ea04:	00031080 	sll	v0,v1,0x2
8000ea08:	00401825 	move	v1,v0
8000ea0c:	00031080 	sll	v0,v1,0x2
8000ea10:	00431023 	subu	v0,v0,v1
8000ea14:	00441021 	addu	v0,v0,a0
8000ea18:	00021080 	sll	v0,v0,0x2
8000ea1c:	24a3cfa8 	addiu	v1,a1,-12376
8000ea20:	00431021 	addu	v0,v0,v1
8000ea24:	8c430004 	lw	v1,4(v0)
8000ea28:	8fc20018 	lw	v0,24(s8)
8000ea2c:	0062102b 	sltu	v0,v1,v0
8000ea30:	14400020 	bnez	v0,8000eab4 <get_slab+0xf0>
8000ea34:	00000000 	nop
8000ea38:	3c058003 	lui	a1,0x8003
8000ea3c:	8fc40000 	lw	a0,0(s8)
8000ea40:	00801825 	move	v1,a0
8000ea44:	00031080 	sll	v0,v1,0x2
8000ea48:	00401825 	move	v1,v0
8000ea4c:	00031080 	sll	v0,v1,0x2
8000ea50:	00431023 	subu	v0,v0,v1
8000ea54:	00441021 	addu	v0,v0,a0
8000ea58:	00021080 	sll	v0,v0,0x2
8000ea5c:	24a3cfa8 	addiu	v1,a1,-12376
8000ea60:	00431021 	addu	v0,v0,v1
8000ea64:	8c430004 	lw	v1,4(v0)
8000ea68:	8fc20004 	lw	v0,4(s8)
8000ea6c:	0062102b 	sltu	v0,v1,v0
8000ea70:	10400010 	beqz	v0,8000eab4 <get_slab+0xf0>
8000ea74:	00000000 	nop
8000ea78:	3c058003 	lui	a1,0x8003
8000ea7c:	8fc40000 	lw	a0,0(s8)
8000ea80:	00801825 	move	v1,a0
8000ea84:	00031080 	sll	v0,v1,0x2
8000ea88:	00401825 	move	v1,v0
8000ea8c:	00031080 	sll	v0,v1,0x2
8000ea90:	00431023 	subu	v0,v0,v1
8000ea94:	00441021 	addu	v0,v0,a0
8000ea98:	00021080 	sll	v0,v0,0x2
8000ea9c:	24a3cfa8 	addiu	v1,a1,-12376
8000eaa0:	00431021 	addu	v0,v0,v1
8000eaa4:	8c420004 	lw	v0,4(v0)
8000eaa8:	afc20004 	sw	v0,4(s8)
8000eaac:	8fc20000 	lw	v0,0(s8)
8000eab0:	afc20008 	sw	v0,8(s8)
8000eab4:	8fc20000 	lw	v0,0(s8)
8000eab8:	24420001 	addiu	v0,v0,1
8000eabc:	afc20000 	sw	v0,0(s8)
8000eac0:	8fc30000 	lw	v1,0(s8)
8000eac4:	8fc2000c 	lw	v0,12(s8)
8000eac8:	0062102b 	sltu	v0,v1,v0
8000eacc:	1440ffca 	bnez	v0,8000e9f8 <get_slab+0x34>
8000ead0:	00000000 	nop
8000ead4:	8fc20008 	lw	v0,8(s8)
8000ead8:	03c0e825 	move	sp,s8
8000eadc:	8fbe0014 	lw	s8,20(sp)
8000eae0:	27bd0018 	addiu	sp,sp,24
8000eae4:	03e00008 	jr	ra
8000eae8:	00000000 	nop

8000eaec <kmalloc>:
8000eaec:	27bdffe0 	addiu	sp,sp,-32
8000eaf0:	afbf001c 	sw	ra,28(sp)
8000eaf4:	afbe0018 	sw	s8,24(sp)
8000eaf8:	03a0f025 	move	s8,sp
8000eafc:	afc40020 	sw	a0,32(s8)
8000eb00:	8fc20020 	lw	v0,32(s8)
8000eb04:	14400004 	bnez	v0,8000eb18 <kmalloc+0x2c>
8000eb08:	00000000 	nop
8000eb0c:	00001025 	move	v0,zero
8000eb10:	10000048 	b	8000ec34 <kmalloc+0x148>
8000eb14:	00000000 	nop
8000eb18:	3c028003 	lui	v0,0x8003
8000eb1c:	2442cfa8 	addiu	v0,v0,-12376
8000eb20:	8c430240 	lw	v1,576(v0)
8000eb24:	8fc20020 	lw	v0,32(s8)
8000eb28:	0062102b 	sltu	v0,v1,v0
8000eb2c:	10400022 	beqz	v0,8000ebb8 <kmalloc+0xcc>
8000eb30:	00000000 	nop
8000eb34:	8fc20020 	lw	v0,32(s8)
8000eb38:	24420fff 	addiu	v0,v0,4095
8000eb3c:	afc20020 	sw	v0,32(s8)
8000eb40:	8fc30020 	lw	v1,32(s8)
8000eb44:	2402f000 	li	v0,-4096
8000eb48:	00621024 	and	v0,v1,v0
8000eb4c:	afc20020 	sw	v0,32(s8)
8000eb50:	afc00010 	sw	zero,16(s8)
8000eb54:	8fc20020 	lw	v0,32(s8)
8000eb58:	00021302 	srl	v0,v0,0xc
8000eb5c:	afc20020 	sw	v0,32(s8)
8000eb60:	8fc20020 	lw	v0,32(s8)
8000eb64:	2442ffff 	addiu	v0,v0,-1
8000eb68:	afc20020 	sw	v0,32(s8)
8000eb6c:	10000007 	b	8000eb8c <kmalloc+0xa0>
8000eb70:	00000000 	nop
8000eb74:	8fc20020 	lw	v0,32(s8)
8000eb78:	00021042 	srl	v0,v0,0x1
8000eb7c:	afc20020 	sw	v0,32(s8)
8000eb80:	8fc20010 	lw	v0,16(s8)
8000eb84:	24420001 	addiu	v0,v0,1
8000eb88:	afc20010 	sw	v0,16(s8)
8000eb8c:	8fc20020 	lw	v0,32(s8)
8000eb90:	1440fff8 	bnez	v0,8000eb74 <kmalloc+0x88>
8000eb94:	00000000 	nop
8000eb98:	8fc40010 	lw	a0,16(s8)
8000eb9c:	0c003741 	jal	8000dd04 <alloc_pages>
8000eba0:	00000000 	nop
8000eba4:	00401825 	move	v1,v0
8000eba8:	3c028000 	lui	v0,0x8000
8000ebac:	00621025 	or	v0,v1,v0
8000ebb0:	10000020 	b	8000ec34 <kmalloc+0x148>
8000ebb4:	00000000 	nop
8000ebb8:	8fc40020 	lw	a0,32(s8)
8000ebbc:	0c003a71 	jal	8000e9c4 <get_slab>
8000ebc0:	00000000 	nop
8000ebc4:	afc20014 	sw	v0,20(s8)
8000ebc8:	8fc20014 	lw	v0,20(s8)
8000ebcc:	2c42000c 	sltiu	v0,v0,12
8000ebd0:	14400007 	bnez	v0,8000ebf0 <kmalloc+0x104>
8000ebd4:	00000000 	nop
8000ebd8:	3c028002 	lui	v0,0x8002
8000ebdc:	24448d40 	addiu	a0,v0,-29376
8000ebe0:	0c000aaa 	jal	80002aa8 <kernel_printf>
8000ebe4:	00000000 	nop
8000ebe8:	1000ffff 	b	8000ebe8 <kmalloc+0xfc>
8000ebec:	00000000 	nop
8000ebf0:	8fc40014 	lw	a0,20(s8)
8000ebf4:	00801825 	move	v1,a0
8000ebf8:	00031080 	sll	v0,v1,0x2
8000ebfc:	00401825 	move	v1,v0
8000ec00:	00031080 	sll	v0,v1,0x2
8000ec04:	00431023 	subu	v0,v0,v1
8000ec08:	00441021 	addu	v0,v0,a0
8000ec0c:	00021080 	sll	v0,v0,0x2
8000ec10:	3c038003 	lui	v1,0x8003
8000ec14:	2463cfa8 	addiu	v1,v1,-12376
8000ec18:	00431021 	addu	v0,v0,v1
8000ec1c:	00402025 	move	a0,v0
8000ec20:	0c003936 	jal	8000e4d8 <slab_alloc>
8000ec24:	00000000 	nop
8000ec28:	00401825 	move	v1,v0
8000ec2c:	3c028000 	lui	v0,0x8000
8000ec30:	00621025 	or	v0,v1,v0
8000ec34:	03c0e825 	move	sp,s8
8000ec38:	8fbf001c 	lw	ra,28(sp)
8000ec3c:	8fbe0018 	lw	s8,24(sp)
8000ec40:	27bd0020 	addiu	sp,sp,32
8000ec44:	03e00008 	jr	ra
8000ec48:	00000000 	nop

8000ec4c <kfree>:
8000ec4c:	27bdffe0 	addiu	sp,sp,-32
8000ec50:	afbf001c 	sw	ra,28(sp)
8000ec54:	afbe0018 	sw	s8,24(sp)
8000ec58:	03a0f025 	move	s8,sp
8000ec5c:	afc40020 	sw	a0,32(s8)
8000ec60:	8fc30020 	lw	v1,32(s8)
8000ec64:	3c027fff 	lui	v0,0x7fff
8000ec68:	3442ffff 	ori	v0,v0,0xffff
8000ec6c:	00621024 	and	v0,v1,v0
8000ec70:	afc20020 	sw	v0,32(s8)
8000ec74:	8f8380c4 	lw	v1,-32572(gp)
8000ec78:	8fc20020 	lw	v0,32(s8)
8000ec7c:	00021302 	srl	v0,v0,0xc
8000ec80:	00021080 	sll	v0,v0,0x2
8000ec84:	000220c0 	sll	a0,v0,0x3
8000ec88:	00821023 	subu	v0,a0,v0
8000ec8c:	00621021 	addu	v0,v1,v0
8000ec90:	afc20010 	sw	v0,16(s8)
8000ec94:	8fc20010 	lw	v0,16(s8)
8000ec98:	8c430000 	lw	v1,0(v0)
8000ec9c:	3c022000 	lui	v0,0x2000
8000eca0:	1062000d 	beq	v1,v0,8000ecd8 <kfree+0x8c>
8000eca4:	00000000 	nop
8000eca8:	8fc30020 	lw	v1,32(s8)
8000ecac:	2402f000 	li	v0,-4096
8000ecb0:	00621024 	and	v0,v1,v0
8000ecb4:	00401825 	move	v1,v0
8000ecb8:	8fc20010 	lw	v0,16(s8)
8000ecbc:	8c420014 	lw	v0,20(v0)
8000ecc0:	00602025 	move	a0,v1
8000ecc4:	00402825 	move	a1,v0
8000ecc8:	0c00375e 	jal	8000dd78 <free_pages>
8000eccc:	00000000 	nop
8000ecd0:	10000008 	b	8000ecf4 <kfree+0xa8>
8000ecd4:	00000000 	nop
8000ecd8:	8fc20010 	lw	v0,16(s8)
8000ecdc:	8c420010 	lw	v0,16(v0)
8000ece0:	00402025 	move	a0,v0
8000ece4:	8fc50020 	lw	a1,32(s8)
8000ece8:	0c0039eb 	jal	8000e7ac <slab_free>
8000ecec:	00000000 	nop
8000ecf0:	00000000 	nop
8000ecf4:	03c0e825 	move	sp,s8
8000ecf8:	8fbf001c 	lw	ra,28(sp)
8000ecfc:	8fbe0018 	lw	s8,24(sp)
8000ed00:	27bd0020 	addiu	sp,sp,32
8000ed04:	03e00008 	jr	ra
8000ed08:	00000000 	nop

8000ed0c <TLB_init>:
8000ed0c:	27bdffe8 	addiu	sp,sp,-24
8000ed10:	afbe0014 	sw	s8,20(sp)
8000ed14:	03a0f025 	move	s8,sp
8000ed18:	3c028100 	lui	v0,0x8100
8000ed1c:	afc20004 	sw	v0,4(s8)
8000ed20:	3c02c000 	lui	v0,0xc000
8000ed24:	afc20008 	sw	v0,8(s8)
8000ed28:	afc00000 	sw	zero,0(s8)
8000ed2c:	1000000e 	b	8000ed68 <TLB_init+0x5c>
8000ed30:	00000000 	nop
8000ed34:	8fc20004 	lw	v0,4(s8)
8000ed38:	8fc30000 	lw	v1,0(s8)
8000ed3c:	40801000 	mtc0	zero,c0_entrylo0
8000ed40:	40801800 	mtc0	zero,c0_entrylo1
8000ed44:	40802800 	mtc0	zero,c0_pagemask
8000ed48:	40825000 	mtc0	v0,c0_entryhi
8000ed4c:	40830000 	mtc0	v1,c0_index
	...
8000ed58:	42000002 	tlbwi
8000ed5c:	8fc20000 	lw	v0,0(s8)
8000ed60:	24420001 	addiu	v0,v0,1
8000ed64:	afc20000 	sw	v0,0(s8)
8000ed68:	8fc20000 	lw	v0,0(s8)
8000ed6c:	2c420020 	sltiu	v0,v0,32
8000ed70:	1440fff0 	bnez	v0,8000ed34 <TLB_init+0x28>
8000ed74:	00000000 	nop
8000ed78:	8fc20008 	lw	v0,8(s8)
8000ed7c:	40822000 	mtc0	v0,c0_context
8000ed80:	03c0e825 	move	sp,s8
8000ed84:	8fbe0014 	lw	s8,20(sp)
8000ed88:	27bd0018 	addiu	sp,sp,24
8000ed8c:	03e00008 	jr	ra
8000ed90:	00000000 	nop

8000ed94 <printTLBEntry>:
8000ed94:	27bdffe0 	addiu	sp,sp,-32
8000ed98:	afbf001c 	sw	ra,28(sp)
8000ed9c:	afbe0018 	sw	s8,24(sp)
8000eda0:	03a0f025 	move	s8,sp
8000eda4:	afc40020 	sw	a0,32(s8)
8000eda8:	8fc20020 	lw	v0,32(s8)
8000edac:	8c450008 	lw	a1,8(v0)
8000edb0:	8fc20020 	lw	v0,32(s8)
8000edb4:	8c460000 	lw	a2,0(v0)
8000edb8:	8fc20020 	lw	v0,32(s8)
8000edbc:	8c430004 	lw	v1,4(v0)
8000edc0:	8fc20020 	lw	v0,32(s8)
8000edc4:	8c42000c 	lw	v0,12(v0)
8000edc8:	afa20010 	sw	v0,16(sp)
8000edcc:	3c028002 	lui	v0,0x8002
8000edd0:	24448d5c 	addiu	a0,v0,-29348
8000edd4:	00603825 	move	a3,v1
8000edd8:	0c000aaa 	jal	80002aa8 <kernel_printf>
8000eddc:	00000000 	nop
8000ede0:	03c0e825 	move	sp,s8
8000ede4:	8fbf001c 	lw	ra,28(sp)
8000ede8:	8fbe0018 	lw	s8,24(sp)
8000edec:	27bd0020 	addiu	sp,sp,32
8000edf0:	03e00008 	jr	ra
8000edf4:	00000000 	nop

8000edf8 <testTLB>:
8000edf8:	27bdffd0 	addiu	sp,sp,-48
8000edfc:	afbf002c 	sw	ra,44(sp)
8000ee00:	afbe0028 	sw	s8,40(sp)
8000ee04:	03a0f025 	move	s8,sp
8000ee08:	afc40030 	sw	a0,48(s8)
8000ee0c:	0c004003 	jal	8001000c <getasid>
8000ee10:	00000000 	nop
8000ee14:	afc20010 	sw	v0,16(s8)
8000ee18:	8fc30030 	lw	v1,48(s8)
8000ee1c:	2402e000 	li	v0,-8192
8000ee20:	00621024 	and	v0,v1,v0
8000ee24:	8f8380e0 	lw	v1,-32544(gp)
8000ee28:	8c630088 	lw	v1,136(v1)
8000ee2c:	00431025 	or	v0,v0,v1
8000ee30:	afc20014 	sw	v0,20(s8)
8000ee34:	3c028002 	lui	v0,0x8002
8000ee38:	24448d8c 	addiu	a0,v0,-29300
8000ee3c:	8fc50014 	lw	a1,20(s8)
8000ee40:	0c000aaa 	jal	80002aa8 <kernel_printf>
8000ee44:	00000000 	nop
8000ee48:	40835000 	mtc0	v1,c0_entryhi
	...
8000ee54:	42000008 	tlbp
8000ee58:	42000001 	tlbr
	...
8000ee64:	40051000 	mfc0	a1,c0_entrylo0
8000ee68:	40041800 	mfc0	a0,c0_entrylo1
8000ee6c:	40035000 	mfc0	v1,c0_entryhi
8000ee70:	40022800 	mfc0	v0,c0_pagemask
8000ee74:	afc50018 	sw	a1,24(s8)
8000ee78:	afc4001c 	sw	a0,28(s8)
8000ee7c:	afc30014 	sw	v1,20(s8)
8000ee80:	afc20020 	sw	v0,32(s8)
8000ee84:	8fc20030 	lw	v0,48(s8)
8000ee88:	30421000 	andi	v0,v0,0x1000
8000ee8c:	10400004 	beqz	v0,8000eea0 <testTLB+0xa8>
8000ee90:	00000000 	nop
8000ee94:	8fc2001c 	lw	v0,28(s8)
8000ee98:	10000002 	b	8000eea4 <testTLB+0xac>
8000ee9c:	00000000 	nop
8000eea0:	8fc20018 	lw	v0,24(s8)
8000eea4:	afc20024 	sw	v0,36(s8)
8000eea8:	3c028002 	lui	v0,0x8002
8000eeac:	24448da8 	addiu	a0,v0,-29272
8000eeb0:	8fc50024 	lw	a1,36(s8)
8000eeb4:	0c000aaa 	jal	80002aa8 <kernel_printf>
8000eeb8:	00000000 	nop
8000eebc:	8fc30024 	lw	v1,36(s8)
8000eec0:	2402f000 	li	v0,-4096
8000eec4:	00621024 	and	v0,v1,v0
8000eec8:	afc20024 	sw	v0,36(s8)
8000eecc:	8fc20030 	lw	v0,48(s8)
8000eed0:	30420fff 	andi	v0,v0,0xfff
8000eed4:	8fc30024 	lw	v1,36(s8)
8000eed8:	00621025 	or	v0,v1,v0
8000eedc:	afc20024 	sw	v0,36(s8)
8000eee0:	8fc20010 	lw	v0,16(s8)
8000eee4:	00402025 	move	a0,v0
8000eee8:	0c00400f 	jal	8001003c <setasid>
8000eeec:	00000000 	nop
8000eef0:	8fc20024 	lw	v0,36(s8)
8000eef4:	03c0e825 	move	sp,s8
8000eef8:	8fbf002c 	lw	ra,44(sp)
8000eefc:	8fbe0028 	lw	s8,40(sp)
8000ef00:	27bd0030 	addiu	sp,sp,48
8000ef04:	03e00008 	jr	ra
8000ef08:	00000000 	nop

8000ef0c <printTLB>:
8000ef0c:	27bdffc8 	addiu	sp,sp,-56
8000ef10:	afbf0034 	sw	ra,52(sp)
8000ef14:	afbe0030 	sw	s8,48(sp)
8000ef18:	03a0f025 	move	s8,sp
8000ef1c:	0c004003 	jal	8001000c <getasid>
8000ef20:	00000000 	nop
8000ef24:	afc2001c 	sw	v0,28(s8)
8000ef28:	3c028002 	lui	v0,0x8002
8000ef2c:	24448dc0 	addiu	a0,v0,-29248
8000ef30:	0c000aaa 	jal	80002aa8 <kernel_printf>
8000ef34:	00000000 	nop
8000ef38:	afc00018 	sw	zero,24(s8)
8000ef3c:	10000029 	b	8000efe4 <printTLB+0xd8>
8000ef40:	00000000 	nop
8000ef44:	8fc20018 	lw	v0,24(s8)
8000ef48:	40820000 	mtc0	v0,c0_index
	...
8000ef54:	42000001 	tlbr
	...
8000ef60:	40051000 	mfc0	a1,c0_entrylo0
8000ef64:	00000000 	nop
8000ef68:	40041800 	mfc0	a0,c0_entrylo1
8000ef6c:	00000000 	nop
8000ef70:	40035000 	mfc0	v1,c0_entryhi
8000ef74:	00000000 	nop
8000ef78:	40022800 	mfc0	v0,c0_pagemask
8000ef7c:	00000000 	nop
8000ef80:	afc50020 	sw	a1,32(s8)
8000ef84:	afc40024 	sw	a0,36(s8)
8000ef88:	afc30028 	sw	v1,40(s8)
8000ef8c:	afc2002c 	sw	v0,44(s8)
8000ef90:	8fc30028 	lw	v1,40(s8)
8000ef94:	3c028100 	lui	v0,0x8100
8000ef98:	1062000f 	beq	v1,v0,8000efd8 <printTLB+0xcc>
8000ef9c:	00000000 	nop
8000efa0:	3c028002 	lui	v0,0x8002
8000efa4:	24448dd4 	addiu	a0,v0,-29228
8000efa8:	8fc50018 	lw	a1,24(s8)
8000efac:	0c000aaa 	jal	80002aa8 <kernel_printf>
8000efb0:	00000000 	nop
8000efb4:	8fc2002c 	lw	v0,44(s8)
8000efb8:	afa20010 	sw	v0,16(sp)
8000efbc:	3c028002 	lui	v0,0x8002
8000efc0:	24448d5c 	addiu	a0,v0,-29348
8000efc4:	8fc50028 	lw	a1,40(s8)
8000efc8:	8fc60020 	lw	a2,32(s8)
8000efcc:	8fc70024 	lw	a3,36(s8)
8000efd0:	0c000aaa 	jal	80002aa8 <kernel_printf>
8000efd4:	00000000 	nop
8000efd8:	8fc20018 	lw	v0,24(s8)
8000efdc:	24420001 	addiu	v0,v0,1
8000efe0:	afc20018 	sw	v0,24(s8)
8000efe4:	8fc20018 	lw	v0,24(s8)
8000efe8:	28420020 	slti	v0,v0,32
8000efec:	1440ffd5 	bnez	v0,8000ef44 <printTLB+0x38>
8000eff0:	00000000 	nop
8000eff4:	8fc2001c 	lw	v0,28(s8)
8000eff8:	00402025 	move	a0,v0
8000effc:	0c00400f 	jal	8001003c <setasid>
8000f000:	00000000 	nop
8000f004:	03c0e825 	move	sp,s8
8000f008:	8fbf0034 	lw	ra,52(sp)
8000f00c:	8fbe0030 	lw	s8,48(sp)
8000f010:	27bd0038 	addiu	sp,sp,56
8000f014:	03e00008 	jr	ra
8000f018:	00000000 	nop

8000f01c <TLBMod_exc>:
8000f01c:	27bdffe0 	addiu	sp,sp,-32
8000f020:	afbf001c 	sw	ra,28(sp)
8000f024:	afbe0018 	sw	s8,24(sp)
8000f028:	03a0f025 	move	s8,sp
8000f02c:	afc40020 	sw	a0,32(s8)
8000f030:	afc50024 	sw	a1,36(s8)
8000f034:	afc60028 	sw	a2,40(s8)
8000f038:	40024000 	mfc0	v0,c0_badvaddr
8000f03c:	afc20010 	sw	v0,16(s8)
8000f040:	3c028002 	lui	v0,0x8002
8000f044:	24448de0 	addiu	a0,v0,-29216
8000f048:	8fc50010 	lw	a1,16(s8)
8000f04c:	0c000aaa 	jal	80002aa8 <kernel_printf>
8000f050:	00000000 	nop
8000f054:	03c0e825 	move	sp,s8
8000f058:	8fbf001c 	lw	ra,28(sp)
8000f05c:	8fbe0018 	lw	s8,24(sp)
8000f060:	27bd0020 	addiu	sp,sp,32
8000f064:	03e00008 	jr	ra
8000f068:	00000000 	nop

8000f06c <TLBL_exc>:
8000f06c:	27bdffb8 	addiu	sp,sp,-72
8000f070:	afbf0044 	sw	ra,68(sp)
8000f074:	afbe0040 	sw	s8,64(sp)
8000f078:	afb0003c 	sw	s0,60(sp)
8000f07c:	03a0f025 	move	s8,sp
8000f080:	afc40048 	sw	a0,72(s8)
8000f084:	afc5004c 	sw	a1,76(s8)
8000f088:	afc60050 	sw	a2,80(s8)
8000f08c:	40024000 	mfc0	v0,c0_badvaddr
8000f090:	afc20018 	sw	v0,24(s8)
8000f094:	8f828014 	lw	v0,-32748(gp)
8000f098:	afc2001c 	sw	v0,28(s8)
8000f09c:	8fc2001c 	lw	v0,28(s8)
8000f0a0:	ac5d0000 	sw	sp,0(v0)
8000f0a4:	8fc20050 	lw	v0,80(s8)
8000f0a8:	8c500000 	lw	s0,0(v0)
8000f0ac:	0c004003 	jal	8001000c <getasid>
8000f0b0:	00000000 	nop
8000f0b4:	00401825 	move	v1,v0
8000f0b8:	8f8280e0 	lw	v0,-32544(gp)
8000f0bc:	8c420088 	lw	v0,136(v0)
8000f0c0:	afa20010 	sw	v0,16(sp)
8000f0c4:	3c028002 	lui	v0,0x8002
8000f0c8:	24448df4 	addiu	a0,v0,-29196
8000f0cc:	8fc50018 	lw	a1,24(s8)
8000f0d0:	02003025 	move	a2,s0
8000f0d4:	00603825 	move	a3,v1
8000f0d8:	0c000aaa 	jal	80002aa8 <kernel_printf>
8000f0dc:	00000000 	nop
8000f0e0:	00000000 	nop
8000f0e4:	24040002 	li	a0,2
8000f0e8:	0c003e9f 	jal	8000fa7c <sw>
8000f0ec:	00000000 	nop
8000f0f0:	1440fffc 	bnez	v0,8000f0e4 <TLBL_exc+0x78>
8000f0f4:	00000000 	nop
8000f0f8:	0c003bc3 	jal	8000ef0c <printTLB>
8000f0fc:	00000000 	nop
8000f100:	8fc30018 	lw	v1,24(s8)
8000f104:	3c02c000 	lui	v0,0xc000
8000f108:	0062102b 	sltu	v0,v1,v0
8000f10c:	14400060 	bnez	v0,8000f290 <TLBL_exc+0x224>
8000f110:	00000000 	nop
8000f114:	8fc30018 	lw	v1,24(s8)
8000f118:	3c024000 	lui	v0,0x4000
8000f11c:	00621021 	addu	v0,v1,v0
8000f120:	afc20020 	sw	v0,32(s8)
8000f124:	8fc20020 	lw	v0,32(s8)
8000f128:	00021302 	srl	v0,v0,0xc
8000f12c:	afc20020 	sw	v0,32(s8)
8000f130:	8f8280e0 	lw	v0,-32544(gp)
8000f134:	8c4300b4 	lw	v1,180(v0)
8000f138:	8fc20020 	lw	v0,32(s8)
8000f13c:	00021080 	sll	v0,v0,0x2
8000f140:	00621021 	addu	v0,v1,v0
8000f144:	8c420000 	lw	v0,0(v0)
8000f148:	10400049 	beqz	v0,8000f270 <TLBL_exc+0x204>
8000f14c:	00000000 	nop
8000f150:	8fc30018 	lw	v1,24(s8)
8000f154:	2402e000 	li	v0,-8192
8000f158:	00621824 	and	v1,v1,v0
8000f15c:	8f8280e0 	lw	v0,-32544(gp)
8000f160:	8c420088 	lw	v0,136(v0)
8000f164:	00621025 	or	v0,v1,v0
8000f168:	afc2002c 	sw	v0,44(s8)
8000f16c:	afc00030 	sw	zero,48(s8)
8000f170:	8fc20020 	lw	v0,32(s8)
8000f174:	30420001 	andi	v0,v0,0x1
8000f178:	10400013 	beqz	v0,8000f1c8 <TLBL_exc+0x15c>
8000f17c:	00000000 	nop
8000f180:	3c028100 	lui	v0,0x8100
8000f184:	afc20024 	sw	v0,36(s8)
8000f188:	8f8280e0 	lw	v0,-32544(gp)
8000f18c:	8c4300b4 	lw	v1,180(v0)
8000f190:	8fc20020 	lw	v0,32(s8)
8000f194:	00021080 	sll	v0,v0,0x2
8000f198:	00621021 	addu	v0,v1,v0
8000f19c:	8c420000 	lw	v0,0(v0)
8000f1a0:	00401825 	move	v1,v0
8000f1a4:	3c027fff 	lui	v0,0x7fff
8000f1a8:	3442ffff 	ori	v0,v0,0xffff
8000f1ac:	00621024 	and	v0,v1,v0
8000f1b0:	00021302 	srl	v0,v0,0xc
8000f1b4:	00021180 	sll	v0,v0,0x6
8000f1b8:	3442001e 	ori	v0,v0,0x1e
8000f1bc:	afc20028 	sw	v0,40(s8)
8000f1c0:	10000011 	b	8000f208 <TLBL_exc+0x19c>
8000f1c4:	00000000 	nop
8000f1c8:	8f8280e0 	lw	v0,-32544(gp)
8000f1cc:	8c4300b4 	lw	v1,180(v0)
8000f1d0:	8fc20020 	lw	v0,32(s8)
8000f1d4:	00021080 	sll	v0,v0,0x2
8000f1d8:	00621021 	addu	v0,v1,v0
8000f1dc:	8c420000 	lw	v0,0(v0)
8000f1e0:	00401825 	move	v1,v0
8000f1e4:	3c027fff 	lui	v0,0x7fff
8000f1e8:	3442ffff 	ori	v0,v0,0xffff
8000f1ec:	00621024 	and	v0,v1,v0
8000f1f0:	00021302 	srl	v0,v0,0xc
8000f1f4:	00021180 	sll	v0,v0,0x6
8000f1f8:	3442001e 	ori	v0,v0,0x1e
8000f1fc:	afc20024 	sw	v0,36(s8)
8000f200:	3c028100 	lui	v0,0x8100
8000f204:	afc20028 	sw	v0,40(s8)
8000f208:	8f8280e0 	lw	v0,-32544(gp)
8000f20c:	8c420088 	lw	v0,136(v0)
8000f210:	00401825 	move	v1,v0
8000f214:	27c20024 	addiu	v0,s8,36
8000f218:	00402025 	move	a0,v0
8000f21c:	00602825 	move	a1,v1
8000f220:	0c003d8c 	jal	8000f630 <insertTLB>
8000f224:	00000000 	nop
8000f228:	3c028002 	lui	v0,0x8002
8000f22c:	24448e24 	addiu	a0,v0,-29148
8000f230:	0c000aaa 	jal	80002aa8 <kernel_printf>
8000f234:	00000000 	nop
8000f238:	27c20024 	addiu	v0,s8,36
8000f23c:	00402025 	move	a0,v0
8000f240:	0c003b65 	jal	8000ed94 <printTLBEntry>
8000f244:	00000000 	nop
8000f248:	8fc20024 	lw	v0,36(s8)
8000f24c:	00021182 	srl	v0,v0,0x6
8000f250:	00021b00 	sll	v1,v0,0xc
8000f254:	3c028000 	lui	v0,0x8000
8000f258:	00621025 	or	v0,v1,v0
8000f25c:	00402025 	move	a0,v0
8000f260:	0c003b65 	jal	8000ed94 <printTLBEntry>
8000f264:	00000000 	nop
8000f268:	1000000d 	b	8000f2a0 <TLBL_exc+0x234>
8000f26c:	00000000 	nop
8000f270:	3c028002 	lui	v0,0x8002
8000f274:	24448e30 	addiu	a0,v0,-29136
8000f278:	3c028002 	lui	v0,0x8002
8000f27c:	24458e34 	addiu	a1,v0,-29132
8000f280:	0c000aaa 	jal	80002aa8 <kernel_printf>
8000f284:	00000000 	nop
8000f288:	1000ffff 	b	8000f288 <TLBL_exc+0x21c>
8000f28c:	00000000 	nop
8000f290:	3c028002 	lui	v0,0x8002
8000f294:	24448e74 	addiu	a0,v0,-29068
8000f298:	0c000aaa 	jal	80002aa8 <kernel_printf>
8000f29c:	00000000 	nop
8000f2a0:	00000000 	nop
8000f2a4:	24040003 	li	a0,3
8000f2a8:	0c003e9f 	jal	8000fa7c <sw>
8000f2ac:	00000000 	nop
8000f2b0:	1440fffc 	bnez	v0,8000f2a4 <TLBL_exc+0x238>
8000f2b4:	00000000 	nop
8000f2b8:	3c028002 	lui	v0,0x8002
8000f2bc:	24448e9c 	addiu	a0,v0,-29028
8000f2c0:	0c000aaa 	jal	80002aa8 <kernel_printf>
8000f2c4:	00000000 	nop
8000f2c8:	0c003bc3 	jal	8000ef0c <printTLB>
8000f2cc:	00000000 	nop
8000f2d0:	03c0e825 	move	sp,s8
8000f2d4:	8fbf0044 	lw	ra,68(sp)
8000f2d8:	8fbe0040 	lw	s8,64(sp)
8000f2dc:	8fb0003c 	lw	s0,60(sp)
8000f2e0:	27bd0048 	addiu	sp,sp,72
8000f2e4:	03e00008 	jr	ra
8000f2e8:	00000000 	nop

8000f2ec <TLBS_exc>:
8000f2ec:	27bdffc0 	addiu	sp,sp,-64
8000f2f0:	afbf003c 	sw	ra,60(sp)
8000f2f4:	afbe0038 	sw	s8,56(sp)
8000f2f8:	afb00034 	sw	s0,52(sp)
8000f2fc:	03a0f025 	move	s8,sp
8000f300:	afc40040 	sw	a0,64(s8)
8000f304:	afc50044 	sw	a1,68(s8)
8000f308:	afc60048 	sw	a2,72(s8)
8000f30c:	40024000 	mfc0	v0,c0_badvaddr
8000f310:	afc20018 	sw	v0,24(s8)
8000f314:	8fc20048 	lw	v0,72(s8)
8000f318:	8c500000 	lw	s0,0(v0)
8000f31c:	0c004003 	jal	8001000c <getasid>
8000f320:	00000000 	nop
8000f324:	00401825 	move	v1,v0
8000f328:	8f8280e0 	lw	v0,-32544(gp)
8000f32c:	8c420088 	lw	v0,136(v0)
8000f330:	afa20010 	sw	v0,16(sp)
8000f334:	3c028002 	lui	v0,0x8002
8000f338:	24448eb0 	addiu	a0,v0,-29008
8000f33c:	8fc50018 	lw	a1,24(s8)
8000f340:	02003025 	move	a2,s0
8000f344:	00603825 	move	a3,v1
8000f348:	0c000aaa 	jal	80002aa8 <kernel_printf>
8000f34c:	00000000 	nop
8000f350:	00000000 	nop
8000f354:	24040002 	li	a0,2
8000f358:	0c003e9f 	jal	8000fa7c <sw>
8000f35c:	00000000 	nop
8000f360:	1440fffc 	bnez	v0,8000f354 <TLBS_exc+0x68>
8000f364:	00000000 	nop
8000f368:	8fc30018 	lw	v1,24(s8)
8000f36c:	3c02c000 	lui	v0,0xc000
8000f370:	0062102b 	sltu	v0,v1,v0
8000f374:	14400070 	bnez	v0,8000f538 <TLBS_exc+0x24c>
8000f378:	00000000 	nop
8000f37c:	8fc30018 	lw	v1,24(s8)
8000f380:	3c024000 	lui	v0,0x4000
8000f384:	00621021 	addu	v0,v1,v0
8000f388:	afc2001c 	sw	v0,28(s8)
8000f38c:	8fc2001c 	lw	v0,28(s8)
8000f390:	00021302 	srl	v0,v0,0xc
8000f394:	afc2001c 	sw	v0,28(s8)
8000f398:	8f8280e0 	lw	v0,-32544(gp)
8000f39c:	8c4300b4 	lw	v1,180(v0)
8000f3a0:	8fc2001c 	lw	v0,28(s8)
8000f3a4:	00021080 	sll	v0,v0,0x2
8000f3a8:	00621021 	addu	v0,v1,v0
8000f3ac:	8c420000 	lw	v0,0(v0)
8000f3b0:	10400059 	beqz	v0,8000f518 <TLBS_exc+0x22c>
8000f3b4:	00000000 	nop
8000f3b8:	8fc30018 	lw	v1,24(s8)
8000f3bc:	2402e000 	li	v0,-8192
8000f3c0:	00621824 	and	v1,v1,v0
8000f3c4:	8f8280e0 	lw	v0,-32544(gp)
8000f3c8:	8c420088 	lw	v0,136(v0)
8000f3cc:	00621025 	or	v0,v1,v0
8000f3d0:	afc20028 	sw	v0,40(s8)
8000f3d4:	afc0002c 	sw	zero,44(s8)
8000f3d8:	8fc2001c 	lw	v0,28(s8)
8000f3dc:	30420001 	andi	v0,v0,0x1
8000f3e0:	10400017 	beqz	v0,8000f440 <TLBS_exc+0x154>
8000f3e4:	00000000 	nop
8000f3e8:	3c028002 	lui	v0,0x8002
8000f3ec:	24448ee0 	addiu	a0,v0,-28960
8000f3f0:	0c000aaa 	jal	80002aa8 <kernel_printf>
8000f3f4:	00000000 	nop
8000f3f8:	3c028100 	lui	v0,0x8100
8000f3fc:	afc20020 	sw	v0,32(s8)
8000f400:	8f8280e0 	lw	v0,-32544(gp)
8000f404:	8c4300b4 	lw	v1,180(v0)
8000f408:	8fc2001c 	lw	v0,28(s8)
8000f40c:	00021080 	sll	v0,v0,0x2
8000f410:	00621021 	addu	v0,v1,v0
8000f414:	8c420000 	lw	v0,0(v0)
8000f418:	00401825 	move	v1,v0
8000f41c:	3c027fff 	lui	v0,0x7fff
8000f420:	3442ffff 	ori	v0,v0,0xffff
8000f424:	00621024 	and	v0,v1,v0
8000f428:	00021302 	srl	v0,v0,0xc
8000f42c:	00021180 	sll	v0,v0,0x6
8000f430:	3442001e 	ori	v0,v0,0x1e
8000f434:	afc20024 	sw	v0,36(s8)
8000f438:	10000015 	b	8000f490 <TLBS_exc+0x1a4>
8000f43c:	00000000 	nop
8000f440:	3c028002 	lui	v0,0x8002
8000f444:	24448ef0 	addiu	a0,v0,-28944
8000f448:	0c000aaa 	jal	80002aa8 <kernel_printf>
8000f44c:	00000000 	nop
8000f450:	8f8280e0 	lw	v0,-32544(gp)
8000f454:	8c4300b4 	lw	v1,180(v0)
8000f458:	8fc2001c 	lw	v0,28(s8)
8000f45c:	00021080 	sll	v0,v0,0x2
8000f460:	00621021 	addu	v0,v1,v0
8000f464:	8c420000 	lw	v0,0(v0)
8000f468:	00401825 	move	v1,v0
8000f46c:	3c027fff 	lui	v0,0x7fff
8000f470:	3442ffff 	ori	v0,v0,0xffff
8000f474:	00621024 	and	v0,v1,v0
8000f478:	00021302 	srl	v0,v0,0xc
8000f47c:	00021180 	sll	v0,v0,0x6
8000f480:	3442001e 	ori	v0,v0,0x1e
8000f484:	afc20020 	sw	v0,32(s8)
8000f488:	3c028100 	lui	v0,0x8100
8000f48c:	afc20024 	sw	v0,36(s8)
8000f490:	3c028002 	lui	v0,0x8002
8000f494:	24448f04 	addiu	a0,v0,-28924
8000f498:	0c000aaa 	jal	80002aa8 <kernel_printf>
8000f49c:	00000000 	nop
8000f4a0:	8f8280e0 	lw	v0,-32544(gp)
8000f4a4:	8c420088 	lw	v0,136(v0)
8000f4a8:	00401825 	move	v1,v0
8000f4ac:	27c20020 	addiu	v0,s8,32
8000f4b0:	00402025 	move	a0,v0
8000f4b4:	00602825 	move	a1,v1
8000f4b8:	0c003d8c 	jal	8000f630 <insertTLB>
8000f4bc:	00000000 	nop
8000f4c0:	3c028002 	lui	v0,0x8002
8000f4c4:	24448e24 	addiu	a0,v0,-29148
8000f4c8:	0c000aaa 	jal	80002aa8 <kernel_printf>
8000f4cc:	00000000 	nop
8000f4d0:	27c20020 	addiu	v0,s8,32
8000f4d4:	00402025 	move	a0,v0
8000f4d8:	0c003b65 	jal	8000ed94 <printTLBEntry>
8000f4dc:	00000000 	nop
8000f4e0:	3c028002 	lui	v0,0x8002
8000f4e4:	24448f28 	addiu	a0,v0,-28888
8000f4e8:	0c000aaa 	jal	80002aa8 <kernel_printf>
8000f4ec:	00000000 	nop
8000f4f0:	8fc20020 	lw	v0,32(s8)
8000f4f4:	00021182 	srl	v0,v0,0x6
8000f4f8:	00021b00 	sll	v1,v0,0xc
8000f4fc:	3c028000 	lui	v0,0x8000
8000f500:	00621025 	or	v0,v1,v0
8000f504:	00402025 	move	a0,v0
8000f508:	0c003b65 	jal	8000ed94 <printTLBEntry>
8000f50c:	00000000 	nop
8000f510:	1000000d 	b	8000f548 <TLBS_exc+0x25c>
8000f514:	00000000 	nop
8000f518:	3c028002 	lui	v0,0x8002
8000f51c:	24448e30 	addiu	a0,v0,-29136
8000f520:	3c028002 	lui	v0,0x8002
8000f524:	24458e34 	addiu	a1,v0,-29132
8000f528:	0c000aaa 	jal	80002aa8 <kernel_printf>
8000f52c:	00000000 	nop
8000f530:	1000ffff 	b	8000f530 <TLBS_exc+0x244>
8000f534:	00000000 	nop
8000f538:	3c028002 	lui	v0,0x8002
8000f53c:	24448f3c 	addiu	a0,v0,-28868
8000f540:	0c000aaa 	jal	80002aa8 <kernel_printf>
8000f544:	00000000 	nop
8000f548:	3c028002 	lui	v0,0x8002
8000f54c:	24448f64 	addiu	a0,v0,-28828
8000f550:	0c000aaa 	jal	80002aa8 <kernel_printf>
8000f554:	00000000 	nop
8000f558:	00000000 	nop
8000f55c:	24040003 	li	a0,3
8000f560:	0c003e9f 	jal	8000fa7c <sw>
8000f564:	00000000 	nop
8000f568:	1440fffc 	bnez	v0,8000f55c <TLBS_exc+0x270>
8000f56c:	00000000 	nop
8000f570:	0c003bc3 	jal	8000ef0c <printTLB>
8000f574:	00000000 	nop
8000f578:	03c0e825 	move	sp,s8
8000f57c:	8fbf003c 	lw	ra,60(sp)
8000f580:	8fbe0038 	lw	s8,56(sp)
8000f584:	8fb00034 	lw	s0,52(sp)
8000f588:	27bd0040 	addiu	sp,sp,64
8000f58c:	03e00008 	jr	ra
8000f590:	00000000 	nop

8000f594 <TLBrefill>:
8000f594:	27bdffe0 	addiu	sp,sp,-32
8000f598:	afbf001c 	sw	ra,28(sp)
8000f59c:	afbe0018 	sw	s8,24(sp)
8000f5a0:	03a0f025 	move	s8,sp
8000f5a4:	40032000 	mfc0	v1,c0_context
8000f5a8:	8c620000 	lw	v0,0(v1)
8000f5ac:	40821000 	mtc0	v0,c0_entrylo0
8000f5b0:	8c620004 	lw	v0,4(v1)
8000f5b4:	40821800 	mtc0	v0,c0_entrylo1
8000f5b8:	8c620008 	lw	v0,8(v1)
8000f5bc:	40825000 	mtc0	v0,c0_entryhi
8000f5c0:	8c62000c 	lw	v0,12(v1)
8000f5c4:	40822800 	mtc0	v0,c0_pagemask
	...
8000f5d0:	42000006 	tlbwr
8000f5d4:	afc30010 	sw	v1,16(s8)
8000f5d8:	afc20014 	sw	v0,20(s8)
8000f5dc:	3c028002 	lui	v0,0x8002
8000f5e0:	24448f78 	addiu	a0,v0,-28808
8000f5e4:	8fc50010 	lw	a1,16(s8)
8000f5e8:	0c000aaa 	jal	80002aa8 <kernel_printf>
8000f5ec:	00000000 	nop
8000f5f0:	3c028002 	lui	v0,0x8002
8000f5f4:	24448e24 	addiu	a0,v0,-29148
8000f5f8:	0c000aaa 	jal	80002aa8 <kernel_printf>
8000f5fc:	00000000 	nop
8000f600:	8fc20010 	lw	v0,16(s8)
8000f604:	00402025 	move	a0,v0
8000f608:	0c003b65 	jal	8000ed94 <printTLBEntry>
8000f60c:	00000000 	nop
8000f610:	0c003bc3 	jal	8000ef0c <printTLB>
8000f614:	00000000 	nop
8000f618:	03c0e825 	move	sp,s8
8000f61c:	8fbf001c 	lw	ra,28(sp)
8000f620:	8fbe0018 	lw	s8,24(sp)
8000f624:	27bd0020 	addiu	sp,sp,32
8000f628:	03e00008 	jr	ra
8000f62c:	00000000 	nop

8000f630 <insertTLB>:
8000f630:	27bdffe8 	addiu	sp,sp,-24
8000f634:	afbf0014 	sw	ra,20(sp)
8000f638:	afbe0010 	sw	s8,16(sp)
8000f63c:	03a0f025 	move	s8,sp
8000f640:	afc40018 	sw	a0,24(s8)
8000f644:	afc5001c 	sw	a1,28(s8)
8000f648:	3c028002 	lui	v0,0x8002
8000f64c:	24448f84 	addiu	a0,v0,-28796
8000f650:	8fc50018 	lw	a1,24(s8)
8000f654:	0c000aaa 	jal	80002aa8 <kernel_printf>
8000f658:	00000000 	nop
8000f65c:	8fc20018 	lw	v0,24(s8)
8000f660:	23bdfff8 	addi	sp,sp,-8
8000f664:	afba0000 	sw	k0,0(sp)
8000f668:	afbb0004 	sw	k1,4(sp)
8000f66c:	0040d025 	move	k0,v0
8000f670:	8f5b0000 	lw	k1,0(k0)
8000f674:	409b1000 	mtc0	k1,c0_entrylo0
8000f678:	8f5b0004 	lw	k1,4(k0)
8000f67c:	409b1800 	mtc0	k1,c0_entrylo1
8000f680:	8f5b0008 	lw	k1,8(k0)
8000f684:	409b5000 	mtc0	k1,c0_entryhi
8000f688:	8f5b000c 	lw	k1,12(k0)
8000f68c:	409b2800 	mtc0	k1,c0_pagemask
8000f690:	8fba0000 	lw	k0,0(sp)
8000f694:	8fbb0004 	lw	k1,4(sp)
8000f698:	23bd0008 	addi	sp,sp,8
8000f69c:	42000006 	tlbwr
8000f6a0:	8fc2001c 	lw	v0,28(s8)
8000f6a4:	00402025 	move	a0,v0
8000f6a8:	0c00400f 	jal	8001003c <setasid>
8000f6ac:	00000000 	nop
8000f6b0:	03c0e825 	move	sp,s8
8000f6b4:	8fbf0014 	lw	ra,20(sp)
8000f6b8:	8fbe0010 	lw	s8,16(sp)
8000f6bc:	27bd0018 	addiu	sp,sp,24
8000f6c0:	03e00008 	jr	ra
8000f6c4:	00000000 	nop

8000f6c8 <__list_add>:
8000f6c8:	27bdfff8 	addiu	sp,sp,-8
8000f6cc:	afbe0004 	sw	s8,4(sp)
8000f6d0:	03a0f025 	move	s8,sp
8000f6d4:	afc40008 	sw	a0,8(s8)
8000f6d8:	afc5000c 	sw	a1,12(s8)
8000f6dc:	afc60010 	sw	a2,16(s8)
8000f6e0:	8fc20008 	lw	v0,8(s8)
8000f6e4:	8fc30010 	lw	v1,16(s8)
8000f6e8:	ac430004 	sw	v1,4(v0)
8000f6ec:	8fc20008 	lw	v0,8(s8)
8000f6f0:	8fc3000c 	lw	v1,12(s8)
8000f6f4:	ac430000 	sw	v1,0(v0)
8000f6f8:	8fc2000c 	lw	v0,12(s8)
8000f6fc:	8fc30008 	lw	v1,8(s8)
8000f700:	ac430004 	sw	v1,4(v0)
8000f704:	8fc20010 	lw	v0,16(s8)
8000f708:	8fc30008 	lw	v1,8(s8)
8000f70c:	ac430000 	sw	v1,0(v0)
8000f710:	03c0e825 	move	sp,s8
8000f714:	8fbe0004 	lw	s8,4(sp)
8000f718:	27bd0008 	addiu	sp,sp,8
8000f71c:	03e00008 	jr	ra
8000f720:	00000000 	nop

8000f724 <list_add>:
8000f724:	27bdffe8 	addiu	sp,sp,-24
8000f728:	afbf0014 	sw	ra,20(sp)
8000f72c:	afbe0010 	sw	s8,16(sp)
8000f730:	03a0f025 	move	s8,sp
8000f734:	afc40018 	sw	a0,24(s8)
8000f738:	afc5001c 	sw	a1,28(s8)
8000f73c:	8fc2001c 	lw	v0,28(s8)
8000f740:	8c420004 	lw	v0,4(v0)
8000f744:	8fc40018 	lw	a0,24(s8)
8000f748:	8fc5001c 	lw	a1,28(s8)
8000f74c:	00403025 	move	a2,v0
8000f750:	0c003db2 	jal	8000f6c8 <__list_add>
8000f754:	00000000 	nop
8000f758:	03c0e825 	move	sp,s8
8000f75c:	8fbf0014 	lw	ra,20(sp)
8000f760:	8fbe0010 	lw	s8,16(sp)
8000f764:	27bd0018 	addiu	sp,sp,24
8000f768:	03e00008 	jr	ra
8000f76c:	00000000 	nop

8000f770 <list_add_tail>:
8000f770:	27bdffe8 	addiu	sp,sp,-24
8000f774:	afbf0014 	sw	ra,20(sp)
8000f778:	afbe0010 	sw	s8,16(sp)
8000f77c:	03a0f025 	move	s8,sp
8000f780:	afc40018 	sw	a0,24(s8)
8000f784:	afc5001c 	sw	a1,28(s8)
8000f788:	8fc2001c 	lw	v0,28(s8)
8000f78c:	8c420000 	lw	v0,0(v0)
8000f790:	8fc40018 	lw	a0,24(s8)
8000f794:	00402825 	move	a1,v0
8000f798:	8fc6001c 	lw	a2,28(s8)
8000f79c:	0c003db2 	jal	8000f6c8 <__list_add>
8000f7a0:	00000000 	nop
8000f7a4:	03c0e825 	move	sp,s8
8000f7a8:	8fbf0014 	lw	ra,20(sp)
8000f7ac:	8fbe0010 	lw	s8,16(sp)
8000f7b0:	27bd0018 	addiu	sp,sp,24
8000f7b4:	03e00008 	jr	ra
8000f7b8:	00000000 	nop

8000f7bc <__list_del>:
8000f7bc:	27bdfff8 	addiu	sp,sp,-8
8000f7c0:	afbe0004 	sw	s8,4(sp)
8000f7c4:	03a0f025 	move	s8,sp
8000f7c8:	afc40008 	sw	a0,8(s8)
8000f7cc:	afc5000c 	sw	a1,12(s8)
8000f7d0:	8fc20008 	lw	v0,8(s8)
8000f7d4:	8fc3000c 	lw	v1,12(s8)
8000f7d8:	ac430004 	sw	v1,4(v0)
8000f7dc:	8fc2000c 	lw	v0,12(s8)
8000f7e0:	8fc30008 	lw	v1,8(s8)
8000f7e4:	ac430000 	sw	v1,0(v0)
8000f7e8:	03c0e825 	move	sp,s8
8000f7ec:	8fbe0004 	lw	s8,4(sp)
8000f7f0:	27bd0008 	addiu	sp,sp,8
8000f7f4:	03e00008 	jr	ra
8000f7f8:	00000000 	nop

8000f7fc <list_del>:
8000f7fc:	27bdffe8 	addiu	sp,sp,-24
8000f800:	afbf0014 	sw	ra,20(sp)
8000f804:	afbe0010 	sw	s8,16(sp)
8000f808:	03a0f025 	move	s8,sp
8000f80c:	afc40018 	sw	a0,24(s8)
8000f810:	8fc20018 	lw	v0,24(s8)
8000f814:	8c430000 	lw	v1,0(v0)
8000f818:	8fc20018 	lw	v0,24(s8)
8000f81c:	8c420004 	lw	v0,4(v0)
8000f820:	00602025 	move	a0,v1
8000f824:	00402825 	move	a1,v0
8000f828:	0c003def 	jal	8000f7bc <__list_del>
8000f82c:	00000000 	nop
8000f830:	8fc20018 	lw	v0,24(s8)
8000f834:	3c031010 	lui	v1,0x1010
8000f838:	34631010 	ori	v1,v1,0x1010
8000f83c:	ac430000 	sw	v1,0(v0)
8000f840:	8fc20018 	lw	v0,24(s8)
8000f844:	3c032020 	lui	v1,0x2020
8000f848:	34632020 	ori	v1,v1,0x2020
8000f84c:	ac430004 	sw	v1,4(v0)
8000f850:	03c0e825 	move	sp,s8
8000f854:	8fbf0014 	lw	ra,20(sp)
8000f858:	8fbe0010 	lw	s8,16(sp)
8000f85c:	27bd0018 	addiu	sp,sp,24
8000f860:	03e00008 	jr	ra
8000f864:	00000000 	nop

8000f868 <list_del_init>:
8000f868:	27bdffe8 	addiu	sp,sp,-24
8000f86c:	afbf0014 	sw	ra,20(sp)
8000f870:	afbe0010 	sw	s8,16(sp)
8000f874:	03a0f025 	move	s8,sp
8000f878:	afc40018 	sw	a0,24(s8)
8000f87c:	8fc20018 	lw	v0,24(s8)
8000f880:	8c430000 	lw	v1,0(v0)
8000f884:	8fc20018 	lw	v0,24(s8)
8000f888:	8c420004 	lw	v0,4(v0)
8000f88c:	00602025 	move	a0,v1
8000f890:	00402825 	move	a1,v0
8000f894:	0c003def 	jal	8000f7bc <__list_del>
8000f898:	00000000 	nop
8000f89c:	8fc20018 	lw	v0,24(s8)
8000f8a0:	8fc30018 	lw	v1,24(s8)
8000f8a4:	ac430004 	sw	v1,4(v0)
8000f8a8:	8fc20018 	lw	v0,24(s8)
8000f8ac:	8fc30018 	lw	v1,24(s8)
8000f8b0:	ac430000 	sw	v1,0(v0)
8000f8b4:	03c0e825 	move	sp,s8
8000f8b8:	8fbf0014 	lw	ra,20(sp)
8000f8bc:	8fbe0010 	lw	s8,16(sp)
8000f8c0:	27bd0018 	addiu	sp,sp,24
8000f8c4:	03e00008 	jr	ra
8000f8c8:	00000000 	nop

8000f8cc <list_empty>:
8000f8cc:	27bdfff8 	addiu	sp,sp,-8
8000f8d0:	afbe0004 	sw	s8,4(sp)
8000f8d4:	03a0f025 	move	s8,sp
8000f8d8:	afc40008 	sw	a0,8(s8)
8000f8dc:	8fc20008 	lw	v0,8(s8)
8000f8e0:	8c430004 	lw	v1,4(v0)
8000f8e4:	8fc20008 	lw	v0,8(s8)
8000f8e8:	00621026 	xor	v0,v1,v0
8000f8ec:	2c420001 	sltiu	v0,v0,1
8000f8f0:	304200ff 	andi	v0,v0,0xff
8000f8f4:	03c0e825 	move	sp,s8
8000f8f8:	8fbe0004 	lw	s8,4(sp)
8000f8fc:	27bd0008 	addiu	sp,sp,8
8000f900:	03e00008 	jr	ra
8000f904:	00000000 	nop

8000f908 <pc_killallsons>:
8000f908:	27bdffd8 	addiu	sp,sp,-40
8000f90c:	afbf0024 	sw	ra,36(sp)
8000f910:	afbe0020 	sw	s8,32(sp)
8000f914:	03a0f025 	move	s8,sp
8000f918:	afc40028 	sw	a0,40(s8)
8000f91c:	8fc20028 	lw	v0,40(s8)
8000f920:	8c420100 	lw	v0,256(v0)
8000f924:	afc20010 	sw	v0,16(s8)
8000f928:	8fc20010 	lw	v0,16(s8)
8000f92c:	8c420004 	lw	v0,4(v0)
8000f930:	afc20014 	sw	v0,20(s8)
8000f934:	1000000c 	b	8000f968 <pc_killallsons+0x60>
8000f938:	00000000 	nop
8000f93c:	8fc20010 	lw	v0,16(s8)
8000f940:	2442ff10 	addiu	v0,v0,-240
8000f944:	afc20018 	sw	v0,24(s8)
8000f948:	8fc40018 	lw	a0,24(s8)
8000f94c:	0c003e88 	jal	8000fa20 <__kill>
8000f950:	00000000 	nop
8000f954:	8fc20014 	lw	v0,20(s8)
8000f958:	afc20010 	sw	v0,16(s8)
8000f95c:	8fc20010 	lw	v0,16(s8)
8000f960:	8c420004 	lw	v0,4(v0)
8000f964:	afc20014 	sw	v0,20(s8)
8000f968:	8fc20028 	lw	v0,40(s8)
8000f96c:	244300fc 	addiu	v1,v0,252
8000f970:	8fc20010 	lw	v0,16(s8)
8000f974:	1462fff1 	bne	v1,v0,8000f93c <pc_killallsons+0x34>
8000f978:	00000000 	nop
8000f97c:	03c0e825 	move	sp,s8
8000f980:	8fbf0024 	lw	ra,36(sp)
8000f984:	8fbe0020 	lw	s8,32(sp)
8000f988:	27bd0028 	addiu	sp,sp,40
8000f98c:	03e00008 	jr	ra
8000f990:	00000000 	nop

8000f994 <pc_releasewaiting>:
8000f994:	27bdffd8 	addiu	sp,sp,-40
8000f998:	afbf0024 	sw	ra,36(sp)
8000f99c:	afbe0020 	sw	s8,32(sp)
8000f9a0:	03a0f025 	move	s8,sp
8000f9a4:	afc40028 	sw	a0,40(s8)
8000f9a8:	8fc20028 	lw	v0,40(s8)
8000f9ac:	8c420108 	lw	v0,264(v0)
8000f9b0:	afc20010 	sw	v0,16(s8)
8000f9b4:	8fc20010 	lw	v0,16(s8)
8000f9b8:	8c420004 	lw	v0,4(v0)
8000f9bc:	afc20014 	sw	v0,20(s8)
8000f9c0:	1000000c 	b	8000f9f4 <pc_releasewaiting+0x60>
8000f9c4:	00000000 	nop
8000f9c8:	8fc20010 	lw	v0,16(s8)
8000f9cc:	2442ff18 	addiu	v0,v0,-232
8000f9d0:	afc20018 	sw	v0,24(s8)
8000f9d4:	8fc40018 	lw	a0,24(s8)
8000f9d8:	0c003e88 	jal	8000fa20 <__kill>
8000f9dc:	00000000 	nop
8000f9e0:	8fc20014 	lw	v0,20(s8)
8000f9e4:	afc20010 	sw	v0,16(s8)
8000f9e8:	8fc20010 	lw	v0,16(s8)
8000f9ec:	8c420004 	lw	v0,4(v0)
8000f9f0:	afc20014 	sw	v0,20(s8)
8000f9f4:	8fc20028 	lw	v0,40(s8)
8000f9f8:	24430104 	addiu	v1,v0,260
8000f9fc:	8fc20010 	lw	v0,16(s8)
8000fa00:	1462fff1 	bne	v1,v0,8000f9c8 <pc_releasewaiting+0x34>
8000fa04:	00000000 	nop
8000fa08:	03c0e825 	move	sp,s8
8000fa0c:	8fbf0024 	lw	ra,36(sp)
8000fa10:	8fbe0020 	lw	s8,32(sp)
8000fa14:	27bd0028 	addiu	sp,sp,40
8000fa18:	03e00008 	jr	ra
8000fa1c:	00000000 	nop

8000fa20 <__kill>:
8000fa20:	27bdffe8 	addiu	sp,sp,-24
8000fa24:	afbf0014 	sw	ra,20(sp)
8000fa28:	afbe0010 	sw	s8,16(sp)
8000fa2c:	03a0f025 	move	s8,sp
8000fa30:	afc40018 	sw	a0,24(s8)
8000fa34:	8fc40018 	lw	a0,24(s8)
8000fa38:	0c003e65 	jal	8000f994 <pc_releasewaiting>
8000fa3c:	00000000 	nop
8000fa40:	8fc40018 	lw	a0,24(s8)
8000fa44:	0c003e42 	jal	8000f908 <pc_killallsons>
8000fa48:	00000000 	nop
8000fa4c:	8fc40018 	lw	a0,24(s8)
8000fa50:	0c003ef7 	jal	8000fbdc <pc_deletelist>
8000fa54:	00000000 	nop
8000fa58:	8fc40018 	lw	a0,24(s8)
8000fa5c:	0c003f35 	jal	8000fcd4 <pc_deletetask>
8000fa60:	00000000 	nop
8000fa64:	03c0e825 	move	sp,s8
8000fa68:	8fbf0014 	lw	ra,20(sp)
8000fa6c:	8fbe0010 	lw	s8,16(sp)
8000fa70:	27bd0018 	addiu	sp,sp,24
8000fa74:	03e00008 	jr	ra
8000fa78:	00000000 	nop

8000fa7c <sw>:
8000fa7c:	27bdfff8 	addiu	sp,sp,-8
8000fa80:	afbe0004 	sw	s8,4(sp)
8000fa84:	03a0f025 	move	s8,sp
8000fa88:	afc40008 	sw	a0,8(s8)
8000fa8c:	8f82800c 	lw	v0,-32756(gp)
8000fa90:	8c430000 	lw	v1,0(v0)
8000fa94:	8fc20008 	lw	v0,8(s8)
8000fa98:	00431006 	srlv	v0,v1,v0
8000fa9c:	30420001 	andi	v0,v0,0x1
8000faa0:	10400004 	beqz	v0,8000fab4 <sw+0x38>
8000faa4:	00000000 	nop
8000faa8:	24020001 	li	v0,1
8000faac:	10000002 	b	8000fab8 <sw+0x3c>
8000fab0:	00000000 	nop
8000fab4:	00001025 	move	v0,zero
8000fab8:	03c0e825 	move	sp,s8
8000fabc:	8fbe0004 	lw	s8,4(sp)
8000fac0:	27bd0008 	addiu	sp,sp,8
8000fac4:	03e00008 	jr	ra
8000fac8:	00000000 	nop

8000facc <pc_create>:
8000facc:	27bdffe0 	addiu	sp,sp,-32
8000fad0:	afbf001c 	sw	ra,28(sp)
8000fad4:	afbe0018 	sw	s8,24(sp)
8000fad8:	03a0f025 	move	s8,sp
8000fadc:	afc40020 	sw	a0,32(s8)
8000fae0:	afc50024 	sw	a1,36(s8)
8000fae4:	8fc40024 	lw	a0,36(s8)
8000fae8:	24050001 	li	a1,1
8000faec:	24060001 	li	a2,1
8000faf0:	0c0040d5 	jal	80010354 <create_kthread>
8000faf4:	00000000 	nop
8000faf8:	afc20010 	sw	v0,16(s8)
8000fafc:	8fc30020 	lw	v1,32(s8)
8000fb00:	8fc20010 	lw	v0,16(s8)
8000fb04:	ac430000 	sw	v1,0(v0)
8000fb08:	8fc20010 	lw	v0,16(s8)
8000fb0c:	244400d4 	addiu	a0,v0,212
8000fb10:	8fc20010 	lw	v0,16(s8)
8000fb14:	8c4200c4 	lw	v0,196(v0)
8000fb18:	000218c0 	sll	v1,v0,0x3
8000fb1c:	3c028003 	lui	v0,0x8003
8000fb20:	2442d218 	addiu	v0,v0,-11752
8000fb24:	00621021 	addu	v0,v1,v0
8000fb28:	00402825 	move	a1,v0
8000fb2c:	0c003ddc 	jal	8000f770 <list_add_tail>
8000fb30:	00000000 	nop
8000fb34:	8fc20010 	lw	v0,16(s8)
8000fb38:	ac4000c8 	sw	zero,200(v0)
8000fb3c:	03c0e825 	move	sp,s8
8000fb40:	8fbf001c 	lw	ra,28(sp)
8000fb44:	8fbe0018 	lw	s8,24(sp)
8000fb48:	27bd0020 	addiu	sp,sp,32
8000fb4c:	03e00008 	jr	ra
8000fb50:	00000000 	nop

8000fb54 <pc_create_son>:
8000fb54:	27bdffe0 	addiu	sp,sp,-32
8000fb58:	afbf001c 	sw	ra,28(sp)
8000fb5c:	afbe0018 	sw	s8,24(sp)
8000fb60:	03a0f025 	move	s8,sp
8000fb64:	afc40020 	sw	a0,32(s8)
8000fb68:	afc50024 	sw	a1,36(s8)
8000fb6c:	8fc40024 	lw	a0,36(s8)
8000fb70:	24050001 	li	a1,1
8000fb74:	24060001 	li	a2,1
8000fb78:	0c0040d5 	jal	80010354 <create_kthread>
8000fb7c:	00000000 	nop
8000fb80:	afc20010 	sw	v0,16(s8)
8000fb84:	8fc30020 	lw	v1,32(s8)
8000fb88:	8fc20010 	lw	v0,16(s8)
8000fb8c:	ac430000 	sw	v1,0(v0)
8000fb90:	8fc20010 	lw	v0,16(s8)
8000fb94:	244400d4 	addiu	a0,v0,212
8000fb98:	8fc20010 	lw	v0,16(s8)
8000fb9c:	8c4200c4 	lw	v0,196(v0)
8000fba0:	000218c0 	sll	v1,v0,0x3
8000fba4:	3c028003 	lui	v0,0x8003
8000fba8:	2442d218 	addiu	v0,v0,-11752
8000fbac:	00621021 	addu	v0,v1,v0
8000fbb0:	00402825 	move	a1,v0
8000fbb4:	0c003ddc 	jal	8000f770 <list_add_tail>
8000fbb8:	00000000 	nop
8000fbbc:	8fc20010 	lw	v0,16(s8)
8000fbc0:	ac4000c8 	sw	zero,200(v0)
8000fbc4:	03c0e825 	move	sp,s8
8000fbc8:	8fbf001c 	lw	ra,28(sp)
8000fbcc:	8fbe0018 	lw	s8,24(sp)
8000fbd0:	27bd0020 	addiu	sp,sp,32
8000fbd4:	03e00008 	jr	ra
8000fbd8:	00000000 	nop

8000fbdc <pc_deletelist>:
8000fbdc:	27bdffe8 	addiu	sp,sp,-24
8000fbe0:	afbf0014 	sw	ra,20(sp)
8000fbe4:	afbe0010 	sw	s8,16(sp)
8000fbe8:	03a0f025 	move	s8,sp
8000fbec:	afc40018 	sw	a0,24(s8)
8000fbf0:	0c000473 	jal	800011cc <disable_interrupts>
8000fbf4:	00000000 	nop
8000fbf8:	8fc20018 	lw	v0,24(s8)
8000fbfc:	244200cc 	addiu	v0,v0,204
8000fc00:	00402025 	move	a0,v0
8000fc04:	0c003e1a 	jal	8000f868 <list_del_init>
8000fc08:	00000000 	nop
8000fc0c:	8fc20018 	lw	v0,24(s8)
8000fc10:	8c4200c8 	lw	v0,200(v0)
8000fc14:	24030002 	li	v1,2
8000fc18:	10430025 	beq	v0,v1,8000fcb0 <pc_deletelist+0xd4>
8000fc1c:	00000000 	nop
8000fc20:	2c430003 	sltiu	v1,v0,3
8000fc24:	10600005 	beqz	v1,8000fc3c <pc_deletelist+0x60>
8000fc28:	00000000 	nop
8000fc2c:	1040000b 	beqz	v0,8000fc5c <pc_deletelist+0x80>
8000fc30:	00000000 	nop
8000fc34:	1000001f 	b	8000fcb4 <pc_deletelist+0xd8>
8000fc38:	00000000 	nop
8000fc3c:	24030004 	li	v1,4
8000fc40:	1043000d 	beq	v0,v1,8000fc78 <pc_deletelist+0x9c>
8000fc44:	00000000 	nop
8000fc48:	24030010 	li	v1,16
8000fc4c:	10430011 	beq	v0,v1,8000fc94 <pc_deletelist+0xb8>
8000fc50:	00000000 	nop
8000fc54:	10000017 	b	8000fcb4 <pc_deletelist+0xd8>
8000fc58:	00000000 	nop
8000fc5c:	8fc20018 	lw	v0,24(s8)
8000fc60:	244200d4 	addiu	v0,v0,212
8000fc64:	00402025 	move	a0,v0
8000fc68:	0c003e1a 	jal	8000f868 <list_del_init>
8000fc6c:	00000000 	nop
8000fc70:	10000010 	b	8000fcb4 <pc_deletelist+0xd8>
8000fc74:	00000000 	nop
8000fc78:	8fc20018 	lw	v0,24(s8)
8000fc7c:	244200e8 	addiu	v0,v0,232
8000fc80:	00402025 	move	a0,v0
8000fc84:	0c003e1a 	jal	8000f868 <list_del_init>
8000fc88:	00000000 	nop
8000fc8c:	10000009 	b	8000fcb4 <pc_deletelist+0xd8>
8000fc90:	00000000 	nop
8000fc94:	8fc20018 	lw	v0,24(s8)
8000fc98:	244200dc 	addiu	v0,v0,220
8000fc9c:	00402025 	move	a0,v0
8000fca0:	0c003e1a 	jal	8000f868 <list_del_init>
8000fca4:	00000000 	nop
8000fca8:	10000002 	b	8000fcb4 <pc_deletelist+0xd8>
8000fcac:	00000000 	nop
8000fcb0:	00000000 	nop
8000fcb4:	0c000464 	jal	80001190 <enable_interrupts>
8000fcb8:	00000000 	nop
8000fcbc:	03c0e825 	move	sp,s8
8000fcc0:	8fbf0014 	lw	ra,20(sp)
8000fcc4:	8fbe0010 	lw	s8,16(sp)
8000fcc8:	27bd0018 	addiu	sp,sp,24
8000fccc:	03e00008 	jr	ra
8000fcd0:	00000000 	nop

8000fcd4 <pc_deletetask>:
8000fcd4:	27bdffe8 	addiu	sp,sp,-24
8000fcd8:	afbf0014 	sw	ra,20(sp)
8000fcdc:	afbe0010 	sw	s8,16(sp)
8000fce0:	03a0f025 	move	s8,sp
8000fce4:	afc40018 	sw	a0,24(s8)
8000fce8:	8fc20018 	lw	v0,24(s8)
8000fcec:	8c420088 	lw	v0,136(v0)
8000fcf0:	00402025 	move	a0,v0
8000fcf4:	0c004025 	jal	80010094 <clearasid>
8000fcf8:	00000000 	nop
8000fcfc:	8fc20018 	lw	v0,24(s8)
8000fd00:	8c4200b0 	lw	v0,176(v0)
8000fd04:	14400009 	bnez	v0,8000fd2c <pc_deletetask+0x58>
8000fd08:	00000000 	nop
8000fd0c:	8fc40018 	lw	a0,24(s8)
8000fd10:	0c004d8c 	jal	80013630 <unmap_all>
8000fd14:	00000000 	nop
8000fd18:	8fc20018 	lw	v0,24(s8)
8000fd1c:	8c4200b4 	lw	v0,180(v0)
8000fd20:	00402025 	move	a0,v0
8000fd24:	0c003b13 	jal	8000ec4c <kfree>
8000fd28:	00000000 	nop
8000fd2c:	8fc40018 	lw	a0,24(s8)
8000fd30:	0c003b13 	jal	8000ec4c <kfree>
8000fd34:	00000000 	nop
8000fd38:	03c0e825 	move	sp,s8
8000fd3c:	8fbf0014 	lw	ra,20(sp)
8000fd40:	8fbe0010 	lw	s8,16(sp)
8000fd44:	27bd0018 	addiu	sp,sp,24
8000fd48:	03e00008 	jr	ra
8000fd4c:	00000000 	nop

8000fd50 <pc_kill>:
8000fd50:	27bdffe0 	addiu	sp,sp,-32
8000fd54:	afbf001c 	sw	ra,28(sp)
8000fd58:	afbe0018 	sw	s8,24(sp)
8000fd5c:	03a0f025 	move	s8,sp
8000fd60:	afc40020 	sw	a0,32(s8)
8000fd64:	8fc20020 	lw	v0,32(s8)
8000fd68:	304200ff 	andi	v0,v0,0xff
8000fd6c:	afc20020 	sw	v0,32(s8)
8000fd70:	24020005 	li	v0,5
8000fd74:	afc20010 	sw	v0,16(s8)
8000fd78:	8fc20020 	lw	v0,32(s8)
8000fd7c:	1040000e 	beqz	v0,8000fdb8 <pc_kill+0x68>
8000fd80:	00000000 	nop
8000fd84:	8fc40020 	lw	a0,32(s8)
8000fd88:	0c003f7b 	jal	8000fdec <pc_find>
8000fd8c:	00000000 	nop
8000fd90:	10400009 	beqz	v0,8000fdb8 <pc_kill+0x68>
8000fd94:	00000000 	nop
8000fd98:	8fc20010 	lw	v0,16(s8)
8000fd9c:	8fc30020 	lw	v1,32(s8)
8000fda0:	00021020 	add	v0,zero,v0
8000fda4:	00032020 	add	a0,zero,v1
8000fda8:	0000000c 	syscall
8000fdac:	00001025 	move	v0,zero
8000fdb0:	10000008 	b	8000fdd4 <pc_kill+0x84>
8000fdb4:	00000000 	nop
8000fdb8:	8fc20020 	lw	v0,32(s8)
8000fdbc:	14400004 	bnez	v0,8000fdd0 <pc_kill+0x80>
8000fdc0:	00000000 	nop
8000fdc4:	24020001 	li	v0,1
8000fdc8:	10000002 	b	8000fdd4 <pc_kill+0x84>
8000fdcc:	00000000 	nop
8000fdd0:	24020002 	li	v0,2
8000fdd4:	03c0e825 	move	sp,s8
8000fdd8:	8fbf001c 	lw	ra,28(sp)
8000fddc:	8fbe0018 	lw	s8,24(sp)
8000fde0:	27bd0020 	addiu	sp,sp,32
8000fde4:	03e00008 	jr	ra
8000fde8:	00000000 	nop

8000fdec <pc_find>:
8000fdec:	27bdfff0 	addiu	sp,sp,-16
8000fdf0:	afbe000c 	sw	s8,12(sp)
8000fdf4:	03a0f025 	move	s8,sp
8000fdf8:	afc40010 	sw	a0,16(s8)
8000fdfc:	8f8280dc 	lw	v0,-32548(gp)
8000fe00:	afc20000 	sw	v0,0(s8)
8000fe04:	1000000e 	b	8000fe40 <pc_find+0x54>
8000fe08:	00000000 	nop
8000fe0c:	8fc20000 	lw	v0,0(s8)
8000fe10:	2442ff34 	addiu	v0,v0,-204
8000fe14:	8c430088 	lw	v1,136(v0)
8000fe18:	8fc20010 	lw	v0,16(s8)
8000fe1c:	14620005 	bne	v1,v0,8000fe34 <pc_find+0x48>
8000fe20:	00000000 	nop
8000fe24:	8fc20000 	lw	v0,0(s8)
8000fe28:	2442ff34 	addiu	v0,v0,-204
8000fe2c:	10000009 	b	8000fe54 <pc_find+0x68>
8000fe30:	00000000 	nop
8000fe34:	8fc20000 	lw	v0,0(s8)
8000fe38:	8c420004 	lw	v0,4(v0)
8000fe3c:	afc20000 	sw	v0,0(s8)
8000fe40:	8fc30000 	lw	v1,0(s8)
8000fe44:	278280d8 	addiu	v0,gp,-32552
8000fe48:	1462fff0 	bne	v1,v0,8000fe0c <pc_find+0x20>
8000fe4c:	00000000 	nop
8000fe50:	00001025 	move	v0,zero
8000fe54:	03c0e825 	move	sp,s8
8000fe58:	8fbe000c 	lw	s8,12(sp)
8000fe5c:	27bd0010 	addiu	sp,sp,16
8000fe60:	03e00008 	jr	ra
8000fe64:	00000000 	nop

8000fe68 <print_proc>:
8000fe68:	27bdffe0 	addiu	sp,sp,-32
8000fe6c:	afbf001c 	sw	ra,28(sp)
8000fe70:	afbe0018 	sw	s8,24(sp)
8000fe74:	03a0f025 	move	s8,sp
8000fe78:	3c028002 	lui	v0,0x8002
8000fe7c:	24448fa4 	addiu	a0,v0,-28764
8000fe80:	24050fff 	li	a1,4095
8000fe84:	00003025 	move	a2,zero
8000fe88:	0c00088b 	jal	8000222c <kernel_puts>
8000fe8c:	00000000 	nop
8000fe90:	8f8280dc 	lw	v0,-32548(gp)
8000fe94:	afc20010 	sw	v0,16(s8)
8000fe98:	1000000f 	b	8000fed8 <print_proc+0x70>
8000fe9c:	00000000 	nop
8000fea0:	8fc20010 	lw	v0,16(s8)
8000fea4:	2442ff34 	addiu	v0,v0,-204
8000fea8:	8c450088 	lw	a1,136(v0)
8000feac:	8fc20010 	lw	v0,16(s8)
8000feb0:	2442ff34 	addiu	v0,v0,-204
8000feb4:	2443008c 	addiu	v1,v0,140
8000feb8:	3c028002 	lui	v0,0x8002
8000febc:	24448fb0 	addiu	a0,v0,-28752
8000fec0:	00603025 	move	a2,v1
8000fec4:	0c000aaa 	jal	80002aa8 <kernel_printf>
8000fec8:	00000000 	nop
8000fecc:	8fc20010 	lw	v0,16(s8)
8000fed0:	8c420004 	lw	v0,4(v0)
8000fed4:	afc20010 	sw	v0,16(s8)
8000fed8:	8fc30010 	lw	v1,16(s8)
8000fedc:	278280d8 	addiu	v0,gp,-32552
8000fee0:	1462ffef 	bne	v1,v0,8000fea0 <print_proc+0x38>
8000fee4:	00000000 	nop
8000fee8:	00001025 	move	v0,zero
8000feec:	03c0e825 	move	sp,s8
8000fef0:	8fbf001c 	lw	ra,28(sp)
8000fef4:	8fbe0018 	lw	s8,24(sp)
8000fef8:	27bd0020 	addiu	sp,sp,32
8000fefc:	03e00008 	jr	ra
8000ff00:	00000000 	nop

8000ff04 <getemptyasid>:
8000ff04:	27bdffe0 	addiu	sp,sp,-32
8000ff08:	afbf001c 	sw	ra,28(sp)
8000ff0c:	afbe0018 	sw	s8,24(sp)
8000ff10:	03a0f025 	move	s8,sp
8000ff14:	afc00010 	sw	zero,16(s8)
8000ff18:	10000031 	b	8000ffe0 <getemptyasid+0xdc>
8000ff1c:	00000000 	nop
8000ff20:	3c028003 	lui	v0,0x8003
8000ff24:	8fc30010 	lw	v1,16(s8)
8000ff28:	00031880 	sll	v1,v1,0x2
8000ff2c:	2442d230 	addiu	v0,v0,-11728
8000ff30:	00621021 	addu	v0,v1,v0
8000ff34:	8c430000 	lw	v1,0(v0)
8000ff38:	2402ffff 	li	v0,-1
8000ff3c:	14620003 	bne	v1,v0,8000ff4c <getemptyasid+0x48>
8000ff40:	00000000 	nop
8000ff44:	10000023 	b	8000ffd4 <getemptyasid+0xd0>
8000ff48:	00000000 	nop
8000ff4c:	afc00014 	sw	zero,20(s8)
8000ff50:	1000001c 	b	8000ffc4 <getemptyasid+0xc0>
8000ff54:	00000000 	nop
8000ff58:	3c028003 	lui	v0,0x8003
8000ff5c:	8fc30010 	lw	v1,16(s8)
8000ff60:	00031880 	sll	v1,v1,0x2
8000ff64:	2442d230 	addiu	v0,v0,-11728
8000ff68:	00621021 	addu	v0,v1,v0
8000ff6c:	8c430000 	lw	v1,0(v0)
8000ff70:	8fc20014 	lw	v0,20(s8)
8000ff74:	00431006 	srlv	v0,v1,v0
8000ff78:	30420001 	andi	v0,v0,0x1
8000ff7c:	1440000e 	bnez	v0,8000ffb8 <getemptyasid+0xb4>
8000ff80:	00000000 	nop
8000ff84:	8fc20010 	lw	v0,16(s8)
8000ff88:	00021940 	sll	v1,v0,0x5
8000ff8c:	8fc20014 	lw	v0,20(s8)
8000ff90:	00621021 	addu	v0,v1,v0
8000ff94:	00402025 	move	a0,v0
8000ff98:	0c004040 	jal	80010100 <setasidmap>
8000ff9c:	00000000 	nop
8000ffa0:	8fc20010 	lw	v0,16(s8)
8000ffa4:	00021940 	sll	v1,v0,0x5
8000ffa8:	8fc20014 	lw	v0,20(s8)
8000ffac:	00621021 	addu	v0,v1,v0
8000ffb0:	10000010 	b	8000fff4 <getemptyasid+0xf0>
8000ffb4:	00000000 	nop
8000ffb8:	8fc20014 	lw	v0,20(s8)
8000ffbc:	24420001 	addiu	v0,v0,1
8000ffc0:	afc20014 	sw	v0,20(s8)
8000ffc4:	8fc20014 	lw	v0,20(s8)
8000ffc8:	2c420020 	sltiu	v0,v0,32
8000ffcc:	1440ffe2 	bnez	v0,8000ff58 <getemptyasid+0x54>
8000ffd0:	00000000 	nop
8000ffd4:	8fc20010 	lw	v0,16(s8)
8000ffd8:	24420001 	addiu	v0,v0,1
8000ffdc:	afc20010 	sw	v0,16(s8)
8000ffe0:	8fc20010 	lw	v0,16(s8)
8000ffe4:	2c420008 	sltiu	v0,v0,8
8000ffe8:	1440ffcd 	bnez	v0,8000ff20 <getemptyasid+0x1c>
8000ffec:	00000000 	nop
8000fff0:	2402ffff 	li	v0,-1
8000fff4:	03c0e825 	move	sp,s8
8000fff8:	8fbf001c 	lw	ra,28(sp)
8000fffc:	8fbe0018 	lw	s8,24(sp)
80010000:	27bd0020 	addiu	sp,sp,32
80010004:	03e00008 	jr	ra
80010008:	00000000 	nop

8001000c <getasid>:
8001000c:	27bdfff0 	addiu	sp,sp,-16
80010010:	afbe000c 	sw	s8,12(sp)
80010014:	03a0f025 	move	s8,sp
80010018:	40025000 	mfc0	v0,c0_entryhi
8001001c:	afc20000 	sw	v0,0(s8)
80010020:	8fc20000 	lw	v0,0(s8)
80010024:	304200ff 	andi	v0,v0,0xff
80010028:	03c0e825 	move	sp,s8
8001002c:	8fbe000c 	lw	s8,12(sp)
80010030:	27bd0010 	addiu	sp,sp,16
80010034:	03e00008 	jr	ra
80010038:	00000000 	nop

8001003c <setasid>:
8001003c:	27bdfff0 	addiu	sp,sp,-16
80010040:	afbe000c 	sw	s8,12(sp)
80010044:	03a0f025 	move	s8,sp
80010048:	afc40010 	sw	a0,16(s8)
8001004c:	40025000 	mfc0	v0,c0_entryhi
80010050:	afc20000 	sw	v0,0(s8)
80010054:	8fc30000 	lw	v1,0(s8)
80010058:	2402ff00 	li	v0,-256
8001005c:	00621024 	and	v0,v1,v0
80010060:	afc20000 	sw	v0,0(s8)
80010064:	8fc20010 	lw	v0,16(s8)
80010068:	304200ff 	andi	v0,v0,0xff
8001006c:	8fc30000 	lw	v1,0(s8)
80010070:	00621025 	or	v0,v1,v0
80010074:	afc20000 	sw	v0,0(s8)
80010078:	8fc20000 	lw	v0,0(s8)
8001007c:	40825000 	mtc0	v0,c0_entryhi
80010080:	03c0e825 	move	sp,s8
80010084:	8fbe000c 	lw	s8,12(sp)
80010088:	27bd0010 	addiu	sp,sp,16
8001008c:	03e00008 	jr	ra
80010090:	00000000 	nop

80010094 <clearasid>:
80010094:	27bdfff8 	addiu	sp,sp,-8
80010098:	afbe0004 	sw	s8,4(sp)
8001009c:	03a0f025 	move	s8,sp
800100a0:	afc40008 	sw	a0,8(s8)
800100a4:	8fc20008 	lw	v0,8(s8)
800100a8:	00021142 	srl	v0,v0,0x5
800100ac:	3c038003 	lui	v1,0x8003
800100b0:	00022080 	sll	a0,v0,0x2
800100b4:	2463d230 	addiu	v1,v1,-11728
800100b8:	00831821 	addu	v1,a0,v1
800100bc:	8c630000 	lw	v1,0(v1)
800100c0:	8fc40008 	lw	a0,8(s8)
800100c4:	3084001f 	andi	a0,a0,0x1f
800100c8:	24050001 	li	a1,1
800100cc:	00852004 	sllv	a0,a1,a0
800100d0:	00042027 	nor	a0,zero,a0
800100d4:	00641824 	and	v1,v1,a0
800100d8:	3c058003 	lui	a1,0x8003
800100dc:	00022080 	sll	a0,v0,0x2
800100e0:	24a2d230 	addiu	v0,a1,-11728
800100e4:	00821021 	addu	v0,a0,v0
800100e8:	ac430000 	sw	v1,0(v0)
800100ec:	03c0e825 	move	sp,s8
800100f0:	8fbe0004 	lw	s8,4(sp)
800100f4:	27bd0008 	addiu	sp,sp,8
800100f8:	03e00008 	jr	ra
800100fc:	00000000 	nop

80010100 <setasidmap>:
80010100:	27bdfff8 	addiu	sp,sp,-8
80010104:	afbe0004 	sw	s8,4(sp)
80010108:	03a0f025 	move	s8,sp
8001010c:	afc40008 	sw	a0,8(s8)
80010110:	8fc20008 	lw	v0,8(s8)
80010114:	00021142 	srl	v0,v0,0x5
80010118:	3c038003 	lui	v1,0x8003
8001011c:	00022080 	sll	a0,v0,0x2
80010120:	2463d230 	addiu	v1,v1,-11728
80010124:	00831821 	addu	v1,a0,v1
80010128:	8c630000 	lw	v1,0(v1)
8001012c:	8fc40008 	lw	a0,8(s8)
80010130:	3084001f 	andi	a0,a0,0x1f
80010134:	24050001 	li	a1,1
80010138:	00852004 	sllv	a0,a1,a0
8001013c:	00641825 	or	v1,v1,a0
80010140:	3c058003 	lui	a1,0x8003
80010144:	00022080 	sll	a0,v0,0x2
80010148:	24a2d230 	addiu	v0,a1,-11728
8001014c:	00821021 	addu	v0,a0,v0
80010150:	ac430000 	sw	v1,0(v0)
80010154:	03c0e825 	move	sp,s8
80010158:	8fbe0004 	lw	s8,4(sp)
8001015c:	27bd0008 	addiu	sp,sp,8
80010160:	03e00008 	jr	ra
80010164:	00000000 	nop

80010168 <clearasidmap>:
80010168:	27bdfff0 	addiu	sp,sp,-16
8001016c:	afbe000c 	sw	s8,12(sp)
80010170:	03a0f025 	move	s8,sp
80010174:	afc00000 	sw	zero,0(s8)
80010178:	1000000a 	b	800101a4 <clearasidmap+0x3c>
8001017c:	00000000 	nop
80010180:	3c028003 	lui	v0,0x8003
80010184:	8fc30000 	lw	v1,0(s8)
80010188:	00031880 	sll	v1,v1,0x2
8001018c:	2442d230 	addiu	v0,v0,-11728
80010190:	00621021 	addu	v0,v1,v0
80010194:	ac400000 	sw	zero,0(v0)
80010198:	8fc20000 	lw	v0,0(s8)
8001019c:	24420001 	addiu	v0,v0,1
800101a0:	afc20000 	sw	v0,0(s8)
800101a4:	8fc20000 	lw	v0,0(s8)
800101a8:	28420008 	slti	v0,v0,8
800101ac:	1440fff4 	bnez	v0,80010180 <clearasidmap+0x18>
800101b0:	00000000 	nop
800101b4:	03c0e825 	move	sp,s8
800101b8:	8fbe000c 	lw	s8,12(sp)
800101bc:	27bd0010 	addiu	sp,sp,16
800101c0:	03e00008 	jr	ra
800101c4:	00000000 	nop

800101c8 <init_pc>:
800101c8:	27bdffe0 	addiu	sp,sp,-32
800101cc:	afbf001c 	sw	ra,28(sp)
800101d0:	afbe0018 	sw	s8,24(sp)
800101d4:	03a0f025 	move	s8,sp
800101d8:	af8080e4 	sw	zero,-32540(gp)
800101dc:	0c00405a 	jal	80010168 <clearasidmap>
800101e0:	00000000 	nop
800101e4:	278280d8 	addiu	v0,gp,-32552
800101e8:	af8280dc 	sw	v0,-32548(gp)
800101ec:	278280d8 	addiu	v0,gp,-32552
800101f0:	af8280d8 	sw	v0,-32552(gp)
800101f4:	afc00010 	sw	zero,16(s8)
800101f8:	1000001a 	b	80010264 <init_pc+0x9c>
800101fc:	00000000 	nop
80010200:	8fc20010 	lw	v0,16(s8)
80010204:	000218c0 	sll	v1,v0,0x3
80010208:	3c028003 	lui	v0,0x8003
8001020c:	2442d218 	addiu	v0,v0,-11752
80010210:	00621821 	addu	v1,v1,v0
80010214:	3c028003 	lui	v0,0x8003
80010218:	8fc40010 	lw	a0,16(s8)
8001021c:	000420c0 	sll	a0,a0,0x3
80010220:	2442d218 	addiu	v0,v0,-11752
80010224:	00821021 	addu	v0,a0,v0
80010228:	ac430004 	sw	v1,4(v0)
8001022c:	8fc20010 	lw	v0,16(s8)
80010230:	000218c0 	sll	v1,v0,0x3
80010234:	3c028003 	lui	v0,0x8003
80010238:	2442d218 	addiu	v0,v0,-11752
8001023c:	00621821 	addu	v1,v1,v0
80010240:	3c028003 	lui	v0,0x8003
80010244:	8fc40010 	lw	a0,16(s8)
80010248:	000420c0 	sll	a0,a0,0x3
8001024c:	2442d218 	addiu	v0,v0,-11752
80010250:	00821021 	addu	v0,a0,v0
80010254:	ac430000 	sw	v1,0(v0)
80010258:	8fc20010 	lw	v0,16(s8)
8001025c:	24420001 	addiu	v0,v0,1
80010260:	afc20010 	sw	v0,16(s8)
80010264:	8fc20010 	lw	v0,16(s8)
80010268:	28420003 	slti	v0,v0,3
8001026c:	1440ffe4 	bnez	v0,80010200 <init_pc+0x38>
80010270:	00000000 	nop
80010274:	278280d0 	addiu	v0,gp,-32560
80010278:	af8280d4 	sw	v0,-32556(gp)
8001027c:	278280d0 	addiu	v0,gp,-32560
80010280:	af8280d0 	sw	v0,-32560(gp)
80010284:	278280c8 	addiu	v0,gp,-32568
80010288:	af8280cc 	sw	v0,-32564(gp)
8001028c:	278280c8 	addiu	v0,gp,-32568
80010290:	af8280c8 	sw	v0,-32568(gp)
80010294:	0c003b43 	jal	8000ed0c <TLB_init>
80010298:	00000000 	nop
8001029c:	af8080e0 	sw	zero,-32544(gp)
800102a0:	3c028002 	lui	v0,0x8002
800102a4:	24448fbc 	addiu	a0,v0,-28740
800102a8:	00002825 	move	a1,zero
800102ac:	00003025 	move	a2,zero
800102b0:	0c0040d5 	jal	80010354 <create_kthread>
800102b4:	00000000 	nop
800102b8:	af8280e0 	sw	v0,-32544(gp)
800102bc:	8f8280e0 	lw	v0,-32544(gp)
800102c0:	24030002 	li	v1,2
800102c4:	ac4300c8 	sw	v1,200(v0)
800102c8:	24040007 	li	a0,7
800102cc:	3c028001 	lui	v0,0x8001
800102d0:	24451d2c 	addiu	a1,v0,7468
800102d4:	0c0004b7 	jal	800012dc <register_interrupt_handler>
800102d8:	00000000 	nop
800102dc:	0c00413d 	jal	800104f4 <pc_init_syscall>
800102e0:	00000000 	nop
800102e4:	24040001 	li	a0,1
800102e8:	3c028001 	lui	v0,0x8001
800102ec:	2445f01c 	addiu	a1,v0,-4068
800102f0:	0c000438 	jal	800010e0 <register_exception_handler>
800102f4:	00000000 	nop
800102f8:	24040002 	li	a0,2
800102fc:	3c028001 	lui	v0,0x8001
80010300:	2445f06c 	addiu	a1,v0,-3988
80010304:	0c000438 	jal	800010e0 <register_exception_handler>
80010308:	00000000 	nop
8001030c:	24040003 	li	a0,3
80010310:	3c028001 	lui	v0,0x8001
80010314:	2445f2ec 	addiu	a1,v0,-3348
80010318:	0c000438 	jal	800010e0 <register_exception_handler>
8001031c:	00000000 	nop
80010320:	3c02000f 	lui	v0,0xf
80010324:	34424240 	ori	v0,v0,0x4240
80010328:	afc20014 	sw	v0,20(s8)
8001032c:	8fc20014 	lw	v0,20(s8)
80010330:	00401025 	move	v0,v0
80010334:	40825800 	mtc0	v0,c0_compare
80010338:	40804800 	mtc0	zero,c0_count
8001033c:	03c0e825 	move	sp,s8
80010340:	8fbf001c 	lw	ra,28(sp)
80010344:	8fbe0018 	lw	s8,24(sp)
80010348:	27bd0020 	addiu	sp,sp,32
8001034c:	03e00008 	jr	ra
80010350:	00000000 	nop

80010354 <create_kthread>:
80010354:	27bdffe0 	addiu	sp,sp,-32
80010358:	afbf001c 	sw	ra,28(sp)
8001035c:	afbe0018 	sw	s8,24(sp)
80010360:	03a0f025 	move	s8,sp
80010364:	afc40020 	sw	a0,32(s8)
80010368:	afc50024 	sw	a1,36(s8)
8001036c:	afc60028 	sw	a2,40(s8)
80010370:	24041000 	li	a0,4096
80010374:	0c003abb 	jal	8000eaec <kmalloc>
80010378:	00000000 	nop
8001037c:	afc20010 	sw	v0,16(s8)
80010380:	8fc20010 	lw	v0,16(s8)
80010384:	14400004 	bnez	v0,80010398 <create_kthread+0x44>
80010388:	00000000 	nop
8001038c:	00001025 	move	v0,zero
80010390:	10000052 	b	800104dc <create_kthread+0x188>
80010394:	00000000 	nop
80010398:	8fc20010 	lw	v0,16(s8)
8001039c:	afc20014 	sw	v0,20(s8)
800103a0:	8fc20010 	lw	v0,16(s8)
800103a4:	24431000 	addiu	v1,v0,4096
800103a8:	8fc20014 	lw	v0,20(s8)
800103ac:	ac430074 	sw	v1,116(v0)
800103b0:	3c038002 	lui	v1,0x8002
800103b4:	24632900 	addiu	v1,v1,10496
800103b8:	8fc20014 	lw	v0,20(s8)
800103bc:	ac430070 	sw	v1,112(v0)
800103c0:	8fc20014 	lw	v0,20(s8)
800103c4:	24430104 	addiu	v1,v0,260
800103c8:	8fc20014 	lw	v0,20(s8)
800103cc:	ac430108 	sw	v1,264(v0)
800103d0:	8fc20014 	lw	v0,20(s8)
800103d4:	24430104 	addiu	v1,v0,260
800103d8:	8fc20014 	lw	v0,20(s8)
800103dc:	ac430104 	sw	v1,260(v0)
800103e0:	8fc20014 	lw	v0,20(s8)
800103e4:	244300fc 	addiu	v1,v0,252
800103e8:	8fc20014 	lw	v0,20(s8)
800103ec:	ac430100 	sw	v1,256(v0)
800103f0:	8fc20014 	lw	v0,20(s8)
800103f4:	244300fc 	addiu	v1,v0,252
800103f8:	8fc20014 	lw	v0,20(s8)
800103fc:	ac4300fc 	sw	v1,252(v0)
80010400:	8f8280e0 	lw	v0,-32544(gp)
80010404:	1040000c 	beqz	v0,80010438 <create_kthread+0xe4>
80010408:	00000000 	nop
8001040c:	8fc20028 	lw	v0,40(s8)
80010410:	10400009 	beqz	v0,80010438 <create_kthread+0xe4>
80010414:	00000000 	nop
80010418:	8fc20014 	lw	v0,20(s8)
8001041c:	244300f0 	addiu	v1,v0,240
80010420:	8f8280e0 	lw	v0,-32544(gp)
80010424:	244200fc 	addiu	v0,v0,252
80010428:	00602025 	move	a0,v1
8001042c:	00402825 	move	a1,v0
80010430:	0c003ddc 	jal	8000f770 <list_add_tail>
80010434:	00000000 	nop
80010438:	0c003fc1 	jal	8000ff04 <getemptyasid>
8001043c:	00000000 	nop
80010440:	00401825 	move	v1,v0
80010444:	8fc20014 	lw	v0,20(s8)
80010448:	ac430088 	sw	v1,136(v0)
8001044c:	8fc20014 	lw	v0,20(s8)
80010450:	8c430088 	lw	v1,136(v0)
80010454:	2402ffff 	li	v0,-1
80010458:	14620007 	bne	v1,v0,80010478 <create_kthread+0x124>
8001045c:	00000000 	nop
80010460:	8fc40010 	lw	a0,16(s8)
80010464:	0c003b13 	jal	8000ec4c <kfree>
80010468:	00000000 	nop
8001046c:	00001025 	move	v0,zero
80010470:	1000001a 	b	800104dc <create_kthread+0x188>
80010474:	00000000 	nop
80010478:	8fc20014 	lw	v0,20(s8)
8001047c:	24030001 	li	v1,1
80010480:	ac4300b0 	sw	v1,176(v0)
80010484:	8fc20014 	lw	v0,20(s8)
80010488:	2442008c 	addiu	v0,v0,140
8001048c:	00402025 	move	a0,v0
80010490:	8fc50020 	lw	a1,32(s8)
80010494:	0c005ead 	jal	80017ab4 <kernel_strcpy>
80010498:	00000000 	nop
8001049c:	8fc20014 	lw	v0,20(s8)
800104a0:	24030001 	li	v1,1
800104a4:	ac4300f8 	sw	v1,248(v0)
800104a8:	8fc20014 	lw	v0,20(s8)
800104ac:	244200cc 	addiu	v0,v0,204
800104b0:	00402025 	move	a0,v0
800104b4:	278580d8 	addiu	a1,gp,-32552
800104b8:	0c003ddc 	jal	8000f770 <list_add_tail>
800104bc:	00000000 	nop
800104c0:	8fc20014 	lw	v0,20(s8)
800104c4:	24030008 	li	v1,8
800104c8:	ac4300c8 	sw	v1,200(v0)
800104cc:	8fc30024 	lw	v1,36(s8)
800104d0:	8fc20014 	lw	v0,20(s8)
800104d4:	ac4300c4 	sw	v1,196(v0)
800104d8:	8fc20014 	lw	v0,20(s8)
800104dc:	03c0e825 	move	sp,s8
800104e0:	8fbf001c 	lw	ra,28(sp)
800104e4:	8fbe0018 	lw	s8,24(sp)
800104e8:	27bd0020 	addiu	sp,sp,32
800104ec:	03e00008 	jr	ra
800104f0:	00000000 	nop

800104f4 <pc_init_syscall>:
800104f4:	27bdffe8 	addiu	sp,sp,-24
800104f8:	afbf0014 	sw	ra,20(sp)
800104fc:	afbe0010 	sw	s8,16(sp)
80010500:	03a0f025 	move	s8,sp
80010504:	24040001 	li	a0,1
80010508:	3c028001 	lui	v0,0x8001
8001050c:	244507a4 	addiu	a1,v0,1956
80010510:	0c0050b0 	jal	800142c0 <register_syscall>
80010514:	00000000 	nop
80010518:	24040002 	li	a0,2
8001051c:	3c028001 	lui	v0,0x8001
80010520:	24450840 	addiu	a1,v0,2112
80010524:	0c0050b0 	jal	800142c0 <register_syscall>
80010528:	00000000 	nop
8001052c:	24040003 	li	a0,3
80010530:	3c028001 	lui	v0,0x8001
80010534:	24450920 	addiu	a1,v0,2336
80010538:	0c0050b0 	jal	800142c0 <register_syscall>
8001053c:	00000000 	nop
80010540:	24040005 	li	a0,5
80010544:	3c028001 	lui	v0,0x8001
80010548:	244509b4 	addiu	a1,v0,2484
8001054c:	0c0050b0 	jal	800142c0 <register_syscall>
80010550:	00000000 	nop
80010554:	24040006 	li	a0,6
80010558:	3c028001 	lui	v0,0x8001
8001055c:	24450768 	addiu	a1,v0,1896
80010560:	0c0050b0 	jal	800142c0 <register_syscall>
80010564:	00000000 	nop
80010568:	24040007 	li	a0,7
8001056c:	3c028001 	lui	v0,0x8001
80010570:	24450658 	addiu	a1,v0,1624
80010574:	0c0050b0 	jal	800142c0 <register_syscall>
80010578:	00000000 	nop
8001057c:	24040008 	li	a0,8
80010580:	3c028001 	lui	v0,0x8001
80010584:	244506a0 	addiu	a1,v0,1696
80010588:	0c0050b0 	jal	800142c0 <register_syscall>
8001058c:	00000000 	nop
80010590:	24040009 	li	a0,9
80010594:	3c028001 	lui	v0,0x8001
80010598:	24450b1c 	addiu	a1,v0,2844
8001059c:	0c0050b0 	jal	800142c0 <register_syscall>
800105a0:	00000000 	nop
800105a4:	03c0e825 	move	sp,s8
800105a8:	8fbf0014 	lw	ra,20(sp)
800105ac:	8fbe0010 	lw	s8,16(sp)
800105b0:	27bd0018 	addiu	sp,sp,24
800105b4:	03e00008 	jr	ra
800105b8:	00000000 	nop

800105bc <syscall_wait>:
800105bc:	27bdffe0 	addiu	sp,sp,-32
800105c0:	afbf001c 	sw	ra,28(sp)
800105c4:	afbe0018 	sw	s8,24(sp)
800105c8:	03a0f025 	move	s8,sp
800105cc:	afc40020 	sw	a0,32(s8)
800105d0:	afc50024 	sw	a1,36(s8)
800105d4:	afc60028 	sw	a2,40(s8)
800105d8:	8fc20028 	lw	v0,40(s8)
800105dc:	8c420010 	lw	v0,16(v0)
800105e0:	afc20010 	sw	v0,16(s8)
800105e4:	8fc40010 	lw	a0,16(s8)
800105e8:	0c003f7b 	jal	8000fdec <pc_find>
800105ec:	00000000 	nop
800105f0:	afc20014 	sw	v0,20(s8)
800105f4:	8fc20014 	lw	v0,20(s8)
800105f8:	10400011 	beqz	v0,80010640 <syscall_wait+0x84>
800105fc:	00000000 	nop
80010600:	8f8280e0 	lw	v0,-32544(gp)
80010604:	244300e8 	addiu	v1,v0,232
80010608:	8fc20014 	lw	v0,20(s8)
8001060c:	24420104 	addiu	v0,v0,260
80010610:	00602025 	move	a0,v1
80010614:	00402825 	move	a1,v0
80010618:	0c003ddc 	jal	8000f770 <list_add_tail>
8001061c:	00000000 	nop
80010620:	8f8280e0 	lw	v0,-32544(gp)
80010624:	24030004 	li	v1,4
80010628:	ac4300c8 	sw	v1,200(v0)
8001062c:	8fc40020 	lw	a0,32(s8)
80010630:	8fc50024 	lw	a1,36(s8)
80010634:	8fc60028 	lw	a2,40(s8)
80010638:	0c00477d 	jal	80011df4 <__pc_schedule>
8001063c:	00000000 	nop
80010640:	03c0e825 	move	sp,s8
80010644:	8fbf001c 	lw	ra,28(sp)
80010648:	8fbe0018 	lw	s8,24(sp)
8001064c:	27bd0020 	addiu	sp,sp,32
80010650:	03e00008 	jr	ra
80010654:	00000000 	nop

80010658 <__syscall_schedule>:
80010658:	27bdffe8 	addiu	sp,sp,-24
8001065c:	afbf0014 	sw	ra,20(sp)
80010660:	afbe0010 	sw	s8,16(sp)
80010664:	03a0f025 	move	s8,sp
80010668:	afc40018 	sw	a0,24(s8)
8001066c:	afc5001c 	sw	a1,28(s8)
80010670:	afc60020 	sw	a2,32(s8)
80010674:	8fc40018 	lw	a0,24(s8)
80010678:	8fc5001c 	lw	a1,28(s8)
8001067c:	8fc60020 	lw	a2,32(s8)
80010680:	0c00477d 	jal	80011df4 <__pc_schedule>
80010684:	00000000 	nop
80010688:	03c0e825 	move	sp,s8
8001068c:	8fbf0014 	lw	ra,20(sp)
80010690:	8fbe0010 	lw	s8,16(sp)
80010694:	27bd0018 	addiu	sp,sp,24
80010698:	03e00008 	jr	ra
8001069c:	00000000 	nop

800106a0 <syscall_fork>:
800106a0:	27bdffe0 	addiu	sp,sp,-32
800106a4:	afbf001c 	sw	ra,28(sp)
800106a8:	afbe0018 	sw	s8,24(sp)
800106ac:	03a0f025 	move	s8,sp
800106b0:	afc40020 	sw	a0,32(s8)
800106b4:	afc50024 	sw	a1,36(s8)
800106b8:	afc60028 	sw	a2,40(s8)
800106bc:	8f8280e0 	lw	v0,-32544(gp)
800106c0:	8fc40028 	lw	a0,40(s8)
800106c4:	00402825 	move	a1,v0
800106c8:	0c00468d 	jal	80011a34 <copy_context>
800106cc:	00000000 	nop
800106d0:	8f8280e0 	lw	v0,-32544(gp)
800106d4:	8c4200b0 	lw	v0,176(v0)
800106d8:	10400014 	beqz	v0,8001072c <syscall_fork+0x8c>
800106dc:	00000000 	nop
800106e0:	8f8280e0 	lw	v0,-32544(gp)
800106e4:	00402025 	move	a0,v0
800106e8:	0c0044df 	jal	8001137c <__fork_kthread>
800106ec:	00000000 	nop
800106f0:	afc20010 	sw	v0,16(s8)
800106f4:	8fc30010 	lw	v1,16(s8)
800106f8:	2402ffff 	li	v0,-1
800106fc:	10620006 	beq	v1,v0,80010718 <syscall_fork+0x78>
80010700:	00000000 	nop
80010704:	8fc20028 	lw	v0,40(s8)
80010708:	8fc30010 	lw	v1,16(s8)
8001070c:	ac430010 	sw	v1,16(v0)
80010710:	1000000f 	b	80010750 <syscall_fork+0xb0>
80010714:	00000000 	nop
80010718:	8fc20028 	lw	v0,40(s8)
8001071c:	2403ffff 	li	v1,-1
80010720:	ac430010 	sw	v1,16(v0)
80010724:	1000000a 	b	80010750 <syscall_fork+0xb0>
80010728:	00000000 	nop
8001072c:	3c028002 	lui	v0,0x8002
80010730:	24448fc4 	addiu	a0,v0,-28732
80010734:	0c000aaa 	jal	80002aa8 <kernel_printf>
80010738:	00000000 	nop
8001073c:	8fc40020 	lw	a0,32(s8)
80010740:	8fc50024 	lw	a1,36(s8)
80010744:	8fc60028 	lw	a2,40(s8)
80010748:	0c004248 	jal	80010920 <syscall_exit>
8001074c:	00000000 	nop
80010750:	03c0e825 	move	sp,s8
80010754:	8fbf001c 	lw	ra,28(sp)
80010758:	8fbe0018 	lw	s8,24(sp)
8001075c:	27bd0020 	addiu	sp,sp,32
80010760:	03e00008 	jr	ra
80010764:	00000000 	nop

80010768 <syscall_printtasks>:
80010768:	27bdffe8 	addiu	sp,sp,-24
8001076c:	afbf0014 	sw	ra,20(sp)
80010770:	afbe0010 	sw	s8,16(sp)
80010774:	03a0f025 	move	s8,sp
80010778:	afc40018 	sw	a0,24(s8)
8001077c:	afc5001c 	sw	a1,28(s8)
80010780:	afc60020 	sw	a2,32(s8)
80010784:	0c0043f5 	jal	80010fd4 <printalltask>
80010788:	00000000 	nop
8001078c:	03c0e825 	move	sp,s8
80010790:	8fbf0014 	lw	ra,20(sp)
80010794:	8fbe0010 	lw	s8,16(sp)
80010798:	27bd0018 	addiu	sp,sp,24
8001079c:	03e00008 	jr	ra
800107a0:	00000000 	nop

800107a4 <syscall_malloc>:
800107a4:	27bdffe0 	addiu	sp,sp,-32
800107a8:	afbf001c 	sw	ra,28(sp)
800107ac:	afbe0018 	sw	s8,24(sp)
800107b0:	03a0f025 	move	s8,sp
800107b4:	afc40020 	sw	a0,32(s8)
800107b8:	afc50024 	sw	a1,36(s8)
800107bc:	afc60028 	sw	a2,40(s8)
800107c0:	8fc20028 	lw	v0,40(s8)
800107c4:	8c420010 	lw	v0,16(v0)
800107c8:	00402025 	move	a0,v0
800107cc:	0c003abb 	jal	8000eaec <kmalloc>
800107d0:	00000000 	nop
800107d4:	afc20010 	sw	v0,16(s8)
800107d8:	8f8280e0 	lw	v0,-32544(gp)
800107dc:	8c4300c0 	lw	v1,192(v0)
800107e0:	8fc20028 	lw	v0,40(s8)
800107e4:	8c420010 	lw	v0,16(v0)
800107e8:	00602025 	move	a0,v1
800107ec:	8fc50010 	lw	a1,16(s8)
800107f0:	00403025 	move	a2,v0
800107f4:	0c004cc9 	jal	80013324 <add_vma>
800107f8:	00000000 	nop
800107fc:	8f8280e0 	lw	v0,-32544(gp)
80010800:	8f8380e0 	lw	v1,-32544(gp)
80010804:	8c6300c0 	lw	v1,192(v1)
80010808:	8c630004 	lw	v1,4(v1)
8001080c:	ac4300c0 	sw	v1,192(v0)
80010810:	8f8280e0 	lw	v0,-32544(gp)
80010814:	8c4200c0 	lw	v0,192(v0)
80010818:	2442fff4 	addiu	v0,v0,-12
8001081c:	8c430000 	lw	v1,0(v0)
80010820:	8fc20028 	lw	v0,40(s8)
80010824:	ac430010 	sw	v1,16(v0)
80010828:	03c0e825 	move	sp,s8
8001082c:	8fbf001c 	lw	ra,28(sp)
80010830:	8fbe0018 	lw	s8,24(sp)
80010834:	27bd0020 	addiu	sp,sp,32
80010838:	03e00008 	jr	ra
8001083c:	00000000 	nop

80010840 <syscall_free>:
80010840:	27bdffe0 	addiu	sp,sp,-32
80010844:	afbf001c 	sw	ra,28(sp)
80010848:	afbe0018 	sw	s8,24(sp)
8001084c:	03a0f025 	move	s8,sp
80010850:	afc40020 	sw	a0,32(s8)
80010854:	afc50024 	sw	a1,36(s8)
80010858:	afc60028 	sw	a2,40(s8)
8001085c:	8fc20028 	lw	v0,40(s8)
80010860:	8c420010 	lw	v0,16(v0)
80010864:	00402025 	move	a0,v0
80010868:	0c004d09 	jal	80013424 <findvma>
8001086c:	00000000 	nop
80010870:	afc20010 	sw	v0,16(s8)
80010874:	8fc20010 	lw	v0,16(s8)
80010878:	2443000c 	addiu	v1,v0,12
8001087c:	8f8280e0 	lw	v0,-32544(gp)
80010880:	8c4200bc 	lw	v0,188(v0)
80010884:	1462000a 	bne	v1,v0,800108b0 <syscall_free+0x70>
80010888:	00000000 	nop
8001088c:	8f8280e0 	lw	v0,-32544(gp)
80010890:	8c430088 	lw	v1,136(v0)
80010894:	3c028002 	lui	v0,0x8002
80010898:	24448fe0 	addiu	a0,v0,-28704
8001089c:	00602825 	move	a1,v1
800108a0:	0c000aaa 	jal	80002aa8 <kernel_printf>
800108a4:	00000000 	nop
800108a8:	1000ffff 	b	800108a8 <syscall_free+0x68>
800108ac:	00000000 	nop
800108b0:	8fc20010 	lw	v0,16(s8)
800108b4:	10400006 	beqz	v0,800108d0 <syscall_free+0x90>
800108b8:	00000000 	nop
800108bc:	8fc20010 	lw	v0,16(s8)
800108c0:	8c420004 	lw	v0,4(v0)
800108c4:	00402025 	move	a0,v0
800108c8:	0c003b13 	jal	8000ec4c <kfree>
800108cc:	00000000 	nop
800108d0:	8f8280e0 	lw	v0,-32544(gp)
800108d4:	8c4200b4 	lw	v0,180(v0)
800108d8:	8fc40010 	lw	a0,16(s8)
800108dc:	00402825 	move	a1,v0
800108e0:	0c004eae 	jal	80013ab8 <do_unmapping>
800108e4:	00000000 	nop
800108e8:	8fc20010 	lw	v0,16(s8)
800108ec:	2442000c 	addiu	v0,v0,12
800108f0:	00402025 	move	a0,v0
800108f4:	0c003dff 	jal	8000f7fc <list_del>
800108f8:	00000000 	nop
800108fc:	8fc40010 	lw	a0,16(s8)
80010900:	0c003b13 	jal	8000ec4c <kfree>
80010904:	00000000 	nop
80010908:	03c0e825 	move	sp,s8
8001090c:	8fbf001c 	lw	ra,28(sp)
80010910:	8fbe0018 	lw	s8,24(sp)
80010914:	27bd0020 	addiu	sp,sp,32
80010918:	03e00008 	jr	ra
8001091c:	00000000 	nop

80010920 <syscall_exit>:
80010920:	27bdffe0 	addiu	sp,sp,-32
80010924:	afbf001c 	sw	ra,28(sp)
80010928:	afbe0018 	sw	s8,24(sp)
8001092c:	03a0f025 	move	s8,sp
80010930:	afc40020 	sw	a0,32(s8)
80010934:	afc50024 	sw	a1,36(s8)
80010938:	afc60028 	sw	a2,40(s8)
8001093c:	8f8280e0 	lw	v0,-32544(gp)
80010940:	2445008c 	addiu	a1,v0,140
80010944:	8fc20028 	lw	v0,40(s8)
80010948:	8c430010 	lw	v1,16(v0)
8001094c:	3c028002 	lui	v0,0x8002
80010950:	24449008 	addiu	a0,v0,-28664
80010954:	00603025 	move	a2,v1
80010958:	0c000aaa 	jal	80002aa8 <kernel_printf>
8001095c:	00000000 	nop
80010960:	8fc20028 	lw	v0,40(s8)
80010964:	8c420010 	lw	v0,16(v0)
80010968:	afc20010 	sw	v0,16(s8)
8001096c:	8f8280e0 	lw	v0,-32544(gp)
80010970:	8c430088 	lw	v1,136(v0)
80010974:	8fc20028 	lw	v0,40(s8)
80010978:	ac430010 	sw	v1,16(v0)
8001097c:	8fc40020 	lw	a0,32(s8)
80010980:	8fc50024 	lw	a1,36(s8)
80010984:	8fc60028 	lw	a2,40(s8)
80010988:	0c00426d 	jal	800109b4 <pc_kill_syscall>
8001098c:	00000000 	nop
80010990:	8fc30010 	lw	v1,16(s8)
80010994:	8fc20028 	lw	v0,40(s8)
80010998:	ac430010 	sw	v1,16(v0)
8001099c:	03c0e825 	move	sp,s8
800109a0:	8fbf001c 	lw	ra,28(sp)
800109a4:	8fbe0018 	lw	s8,24(sp)
800109a8:	27bd0020 	addiu	sp,sp,32
800109ac:	03e00008 	jr	ra
800109b0:	00000000 	nop

800109b4 <pc_kill_syscall>:
800109b4:	27bdffe0 	addiu	sp,sp,-32
800109b8:	afbf001c 	sw	ra,28(sp)
800109bc:	afbe0018 	sw	s8,24(sp)
800109c0:	03a0f025 	move	s8,sp
800109c4:	afc40020 	sw	a0,32(s8)
800109c8:	afc50024 	sw	a1,36(s8)
800109cc:	afc60028 	sw	a2,40(s8)
800109d0:	8fc20028 	lw	v0,40(s8)
800109d4:	8c420010 	lw	v0,16(v0)
800109d8:	00402025 	move	a0,v0
800109dc:	0c003f7b 	jal	8000fdec <pc_find>
800109e0:	00000000 	nop
800109e4:	afc20010 	sw	v0,16(s8)
800109e8:	8fc20010 	lw	v0,16(s8)
800109ec:	1040000d 	beqz	v0,80010a24 <pc_kill_syscall+0x70>
800109f0:	00000000 	nop
800109f4:	8fc40010 	lw	a0,16(s8)
800109f8:	0c003e88 	jal	8000fa20 <__kill>
800109fc:	00000000 	nop
80010a00:	8f8280e0 	lw	v0,-32544(gp)
80010a04:	8fc30010 	lw	v1,16(s8)
80010a08:	14620006 	bne	v1,v0,80010a24 <pc_kill_syscall+0x70>
80010a0c:	00000000 	nop
80010a10:	8fc40020 	lw	a0,32(s8)
80010a14:	8fc50024 	lw	a1,36(s8)
80010a18:	8fc60028 	lw	a2,40(s8)
80010a1c:	0c00477d 	jal	80011df4 <__pc_schedule>
80010a20:	00000000 	nop
80010a24:	03c0e825 	move	sp,s8
80010a28:	8fbf001c 	lw	ra,28(sp)
80010a2c:	8fbe0018 	lw	s8,24(sp)
80010a30:	27bd0020 	addiu	sp,sp,32
80010a34:	03e00008 	jr	ra
80010a38:	00000000 	nop

80010a3c <flushsleeplist>:
80010a3c:	27bdffd8 	addiu	sp,sp,-40
80010a40:	afbf0024 	sw	ra,36(sp)
80010a44:	afbe0020 	sw	s8,32(sp)
80010a48:	03a0f025 	move	s8,sp
80010a4c:	8f8280cc 	lw	v0,-32564(gp)
80010a50:	afc20010 	sw	v0,16(s8)
80010a54:	8fc20010 	lw	v0,16(s8)
80010a58:	8c420004 	lw	v0,4(v0)
80010a5c:	afc20014 	sw	v0,20(s8)
80010a60:	10000024 	b	80010af4 <flushsleeplist+0xb8>
80010a64:	00000000 	nop
80010a68:	8fc20010 	lw	v0,16(s8)
80010a6c:	2442ff24 	addiu	v0,v0,-220
80010a70:	afc20018 	sw	v0,24(s8)
80010a74:	8fc20018 	lw	v0,24(s8)
80010a78:	8c4200e4 	lw	v0,228(v0)
80010a7c:	2443fff6 	addiu	v1,v0,-10
80010a80:	8fc20018 	lw	v0,24(s8)
80010a84:	ac4300e4 	sw	v1,228(v0)
80010a88:	8fc20018 	lw	v0,24(s8)
80010a8c:	8c4200e4 	lw	v0,228(v0)
80010a90:	1c400013 	bgtz	v0,80010ae0 <flushsleeplist+0xa4>
80010a94:	00000000 	nop
80010a98:	8fc20018 	lw	v0,24(s8)
80010a9c:	244200dc 	addiu	v0,v0,220
80010aa0:	00402025 	move	a0,v0
80010aa4:	0c003e1a 	jal	8000f868 <list_del_init>
80010aa8:	00000000 	nop
80010aac:	8fc20018 	lw	v0,24(s8)
80010ab0:	ac4000c8 	sw	zero,200(v0)
80010ab4:	8fc20018 	lw	v0,24(s8)
80010ab8:	244400d4 	addiu	a0,v0,212
80010abc:	8fc20018 	lw	v0,24(s8)
80010ac0:	8c4200c4 	lw	v0,196(v0)
80010ac4:	000218c0 	sll	v1,v0,0x3
80010ac8:	3c028003 	lui	v0,0x8003
80010acc:	2442d218 	addiu	v0,v0,-11752
80010ad0:	00621021 	addu	v0,v1,v0
80010ad4:	00402825 	move	a1,v0
80010ad8:	0c003dc9 	jal	8000f724 <list_add>
80010adc:	00000000 	nop
80010ae0:	8fc20014 	lw	v0,20(s8)
80010ae4:	afc20010 	sw	v0,16(s8)
80010ae8:	8fc20010 	lw	v0,16(s8)
80010aec:	8c420004 	lw	v0,4(v0)
80010af0:	afc20014 	sw	v0,20(s8)
80010af4:	8fc30010 	lw	v1,16(s8)
80010af8:	278280c8 	addiu	v0,gp,-32568
80010afc:	1462ffda 	bne	v1,v0,80010a68 <flushsleeplist+0x2c>
80010b00:	00000000 	nop
80010b04:	03c0e825 	move	sp,s8
80010b08:	8fbf0024 	lw	ra,36(sp)
80010b0c:	8fbe0020 	lw	s8,32(sp)
80010b10:	27bd0028 	addiu	sp,sp,40
80010b14:	03e00008 	jr	ra
80010b18:	00000000 	nop

80010b1c <syscall_sleep>:
80010b1c:	27bdffe8 	addiu	sp,sp,-24
80010b20:	afbf0014 	sw	ra,20(sp)
80010b24:	afbe0010 	sw	s8,16(sp)
80010b28:	03a0f025 	move	s8,sp
80010b2c:	afc40018 	sw	a0,24(s8)
80010b30:	afc5001c 	sw	a1,28(s8)
80010b34:	afc60020 	sw	a2,32(s8)
80010b38:	8f8280e0 	lw	v0,-32544(gp)
80010b3c:	8fc30020 	lw	v1,32(s8)
80010b40:	8c630010 	lw	v1,16(v1)
80010b44:	ac4300e4 	sw	v1,228(v0)
80010b48:	8f8280e0 	lw	v0,-32544(gp)
80010b4c:	244200dc 	addiu	v0,v0,220
80010b50:	00402025 	move	a0,v0
80010b54:	278580c8 	addiu	a1,gp,-32568
80010b58:	0c003ddc 	jal	8000f770 <list_add_tail>
80010b5c:	00000000 	nop
80010b60:	8f8280e0 	lw	v0,-32544(gp)
80010b64:	24030010 	li	v1,16
80010b68:	ac4300c8 	sw	v1,200(v0)
80010b6c:	8fc40018 	lw	a0,24(s8)
80010b70:	8fc5001c 	lw	a1,28(s8)
80010b74:	8fc60020 	lw	a2,32(s8)
80010b78:	0c00477d 	jal	80011df4 <__pc_schedule>
80010b7c:	00000000 	nop
80010b80:	03c0e825 	move	sp,s8
80010b84:	8fbf0014 	lw	ra,20(sp)
80010b88:	8fbe0010 	lw	s8,16(sp)
80010b8c:	27bd0018 	addiu	sp,sp,24
80010b90:	03e00008 	jr	ra
80010b94:	00000000 	nop

80010b98 <__request_schedule>:
80010b98:	27bdfff0 	addiu	sp,sp,-16
80010b9c:	afbe000c 	sw	s8,12(sp)
80010ba0:	03a0f025 	move	s8,sp
80010ba4:	24020007 	li	v0,7
80010ba8:	afc20000 	sw	v0,0(s8)
80010bac:	8fc20000 	lw	v0,0(s8)
80010bb0:	00401025 	move	v0,v0
80010bb4:	0000000c 	syscall
80010bb8:	00000000 	nop
80010bbc:	03c0e825 	move	sp,s8
80010bc0:	8fbe000c 	lw	s8,12(sp)
80010bc4:	27bd0010 	addiu	sp,sp,16
80010bc8:	03e00008 	jr	ra
80010bcc:	00000000 	nop

80010bd0 <fk1>:
80010bd0:	27bdffd8 	addiu	sp,sp,-40
80010bd4:	afbf0024 	sw	ra,36(sp)
80010bd8:	afbe0020 	sw	s8,32(sp)
80010bdc:	03a0f025 	move	s8,sp
80010be0:	8f8280e0 	lw	v0,-32544(gp)
80010be4:	8c420088 	lw	v0,136(v0)
80010be8:	afc20014 	sw	v0,20(s8)
80010bec:	3c028002 	lui	v0,0x8002
80010bf0:	24449034 	addiu	a0,v0,-28620
80010bf4:	0c000aaa 	jal	80002aa8 <kernel_printf>
80010bf8:	00000000 	nop
80010bfc:	24040010 	li	a0,16
80010c00:	0c003abb 	jal	8000eaec <kmalloc>
80010c04:	00000000 	nop
80010c08:	afc20018 	sw	v0,24(s8)
80010c0c:	24041000 	li	a0,4096
80010c10:	0c003abb 	jal	8000eaec <kmalloc>
80010c14:	00000000 	nop
80010c18:	afc2001c 	sw	v0,28(s8)
80010c1c:	3c028002 	lui	v0,0x8002
80010c20:	24449048 	addiu	a0,v0,-28600
80010c24:	8fc5001c 	lw	a1,28(s8)
80010c28:	0c000aaa 	jal	80002aa8 <kernel_printf>
80010c2c:	00000000 	nop
80010c30:	8fc20018 	lw	v0,24(s8)
80010c34:	8fc30014 	lw	v1,20(s8)
80010c38:	ac430008 	sw	v1,8(v0)
80010c3c:	8fc20018 	lw	v0,24(s8)
80010c40:	ac40000c 	sw	zero,12(v0)
80010c44:	8fc3001c 	lw	v1,28(s8)
80010c48:	3c027fff 	lui	v0,0x7fff
80010c4c:	3442f000 	ori	v0,v0,0xf000
80010c50:	00621024 	and	v0,v1,v0
80010c54:	00021182 	srl	v0,v0,0x6
80010c58:	3443001e 	ori	v1,v0,0x1e
80010c5c:	8fc20018 	lw	v0,24(s8)
80010c60:	ac430000 	sw	v1,0(v0)
80010c64:	8fc20018 	lw	v0,24(s8)
80010c68:	ac400004 	sw	zero,4(v0)
80010c6c:	8fc20014 	lw	v0,20(s8)
80010c70:	8fc40018 	lw	a0,24(s8)
80010c74:	00402825 	move	a1,v0
80010c78:	0c003d8c 	jal	8000f630 <insertTLB>
80010c7c:	00000000 	nop
80010c80:	0c003bc3 	jal	8000ef0c <printTLB>
80010c84:	00000000 	nop
80010c88:	3c028002 	lui	v0,0x8002
80010c8c:	24449054 	addiu	a0,v0,-28588
80010c90:	0c000aaa 	jal	80002aa8 <kernel_printf>
80010c94:	00000000 	nop
80010c98:	afc00010 	sw	zero,16(s8)
80010c9c:	10000020 	b	80010d20 <fk1+0x150>
80010ca0:	00000000 	nop
80010ca4:	8fc20010 	lw	v0,16(s8)
80010ca8:	00021080 	sll	v0,v0,0x2
80010cac:	8c430000 	lw	v1,0(v0)
80010cb0:	3c028002 	lui	v0,0x8002
80010cb4:	24449064 	addiu	a0,v0,-28572
80010cb8:	00602825 	move	a1,v1
80010cbc:	0c000aaa 	jal	80002aa8 <kernel_printf>
80010cc0:	00000000 	nop
80010cc4:	8fc20010 	lw	v0,16(s8)
80010cc8:	00021880 	sll	v1,v0,0x2
80010ccc:	3c028002 	lui	v0,0x8002
80010cd0:	24449078 	addiu	a0,v0,-28552
80010cd4:	00602825 	move	a1,v1
80010cd8:	0c000aaa 	jal	80002aa8 <kernel_printf>
80010cdc:	00000000 	nop
80010ce0:	8fc20010 	lw	v0,16(s8)
80010ce4:	00021080 	sll	v0,v0,0x2
80010ce8:	00401825 	move	v1,v0
80010cec:	8fc20010 	lw	v0,16(s8)
80010cf0:	ac620000 	sw	v0,0(v1)
80010cf4:	8fc20010 	lw	v0,16(s8)
80010cf8:	00021080 	sll	v0,v0,0x2
80010cfc:	8c430000 	lw	v1,0(v0)
80010d00:	3c028002 	lui	v0,0x8002
80010d04:	24449098 	addiu	a0,v0,-28520
80010d08:	00602825 	move	a1,v1
80010d0c:	0c000aaa 	jal	80002aa8 <kernel_printf>
80010d10:	00000000 	nop
80010d14:	8fc20010 	lw	v0,16(s8)
80010d18:	24420001 	addiu	v0,v0,1
80010d1c:	afc20010 	sw	v0,16(s8)
80010d20:	8fc20010 	lw	v0,16(s8)
80010d24:	28420003 	slti	v0,v0,3
80010d28:	1440ffde 	bnez	v0,80010ca4 <fk1+0xd4>
80010d2c:	00000000 	nop
80010d30:	3c028002 	lui	v0,0x8002
80010d34:	244490ac 	addiu	a0,v0,-28500
80010d38:	0c000aaa 	jal	80002aa8 <kernel_printf>
80010d3c:	00000000 	nop
80010d40:	8fc40018 	lw	a0,24(s8)
80010d44:	0c003b13 	jal	8000ec4c <kfree>
80010d48:	00000000 	nop
80010d4c:	8fc2001c 	lw	v0,28(s8)
80010d50:	00402025 	move	a0,v0
80010d54:	0c003b13 	jal	8000ec4c <kfree>
80010d58:	00000000 	nop
80010d5c:	0c003b43 	jal	8000ed0c <TLB_init>
80010d60:	00000000 	nop
80010d64:	03c0e825 	move	sp,s8
80010d68:	8fbf0024 	lw	ra,36(sp)
80010d6c:	8fbe0020 	lw	s8,32(sp)
80010d70:	27bd0028 	addiu	sp,sp,40
80010d74:	03e00008 	jr	ra
80010d78:	00000000 	nop

80010d7c <test_sleep1sandprint>:
80010d7c:	27bdffe8 	addiu	sp,sp,-24
80010d80:	afbf0014 	sw	ra,20(sp)
80010d84:	afbe0010 	sw	s8,16(sp)
80010d88:	03a0f025 	move	s8,sp
80010d8c:	3c028002 	lui	v0,0x8002
80010d90:	244490c0 	addiu	a0,v0,-28480
80010d94:	0c000aaa 	jal	80002aa8 <kernel_printf>
80010d98:	00000000 	nop
80010d9c:	20020009 	addi	v0,zero,9
80010da0:	200403e8 	addi	a0,zero,1000
80010da4:	0000000c 	syscall
80010da8:	00000000 	nop
80010dac:	20020006 	addi	v0,zero,6
80010db0:	0000000c 	syscall
80010db4:	00000000 	nop
80010db8:	1000fff8 	b	80010d9c <test_sleep1sandprint+0x20>
80010dbc:	00000000 	nop

80010dc0 <test_sleep5sandkillasid2>:
80010dc0:	27bdffe8 	addiu	sp,sp,-24
80010dc4:	afbf0014 	sw	ra,20(sp)
80010dc8:	afbe0010 	sw	s8,16(sp)
80010dcc:	03a0f025 	move	s8,sp
80010dd0:	3c028002 	lui	v0,0x8002
80010dd4:	244490e4 	addiu	a0,v0,-28444
80010dd8:	0c000aaa 	jal	80002aa8 <kernel_printf>
80010ddc:	00000000 	nop
80010de0:	24040006 	li	a0,6
80010de4:	00002825 	move	a1,zero
80010de8:	0c004525 	jal	80011494 <call_syscall_a0>
80010dec:	00000000 	nop
80010df0:	24040009 	li	a0,9
80010df4:	24051388 	li	a1,5000
80010df8:	0c004525 	jal	80011494 <call_syscall_a0>
80010dfc:	00000000 	nop
80010e00:	3c028002 	lui	v0,0x8002
80010e04:	2444910c 	addiu	a0,v0,-28404
80010e08:	0c000aaa 	jal	80002aa8 <kernel_printf>
80010e0c:	00000000 	nop
80010e10:	24040003 	li	a0,3
80010e14:	00002825 	move	a1,zero
80010e18:	0c004525 	jal	80011494 <call_syscall_a0>
80010e1c:	00000000 	nop
80010e20:	03c0e825 	move	sp,s8
80010e24:	8fbf0014 	lw	ra,20(sp)
80010e28:	8fbe0010 	lw	s8,16(sp)
80010e2c:	27bd0018 	addiu	sp,sp,24
80010e30:	03e00008 	jr	ra
80010e34:	00000000 	nop

80010e38 <test_forkandkill>:
80010e38:	27bdffe0 	addiu	sp,sp,-32
80010e3c:	afbf001c 	sw	ra,28(sp)
80010e40:	afbe0018 	sw	s8,24(sp)
80010e44:	03a0f025 	move	s8,sp
80010e48:	3c028002 	lui	v0,0x8002
80010e4c:	24449120 	addiu	a0,v0,-28384
80010e50:	0c000aaa 	jal	80002aa8 <kernel_printf>
80010e54:	00000000 	nop
80010e58:	24040008 	li	a0,8
80010e5c:	00002825 	move	a1,zero
80010e60:	0c004525 	jal	80011494 <call_syscall_a0>
80010e64:	00000000 	nop
80010e68:	afc20010 	sw	v0,16(s8)
80010e6c:	8fc20010 	lw	v0,16(s8)
80010e70:	1040000c 	beqz	v0,80010ea4 <test_forkandkill+0x6c>
80010e74:	00000000 	nop
80010e78:	3c028002 	lui	v0,0x8002
80010e7c:	24449140 	addiu	a0,v0,-28352
80010e80:	8fc50010 	lw	a1,16(s8)
80010e84:	0c000aaa 	jal	80002aa8 <kernel_printf>
80010e88:	00000000 	nop
80010e8c:	24040003 	li	a0,3
80010e90:	00002825 	move	a1,zero
80010e94:	0c004525 	jal	80011494 <call_syscall_a0>
80010e98:	00000000 	nop
80010e9c:	1000000a 	b	80010ec8 <test_forkandkill+0x90>
80010ea0:	00000000 	nop
80010ea4:	3c028002 	lui	v0,0x8002
80010ea8:	24449158 	addiu	a0,v0,-28328
80010eac:	8fc50010 	lw	a1,16(s8)
80010eb0:	0c000aaa 	jal	80002aa8 <kernel_printf>
80010eb4:	00000000 	nop
80010eb8:	24040003 	li	a0,3
80010ebc:	00002825 	move	a1,zero
80010ec0:	0c004525 	jal	80011494 <call_syscall_a0>
80010ec4:	00000000 	nop
80010ec8:	03c0e825 	move	sp,s8
80010ecc:	8fbf001c 	lw	ra,28(sp)
80010ed0:	8fbe0018 	lw	s8,24(sp)
80010ed4:	27bd0020 	addiu	sp,sp,32
80010ed8:	03e00008 	jr	ra
80010edc:	00000000 	nop

80010ee0 <fu1>:
80010ee0:	27bdfff8 	addiu	sp,sp,-8
80010ee4:	afbe0004 	sw	s8,4(sp)
80010ee8:	03a0f025 	move	s8,sp
80010eec:	20020006 	addi	v0,zero,6
80010ef0:	0000000c 	syscall
80010ef4:	00000000 	nop
80010ef8:	00002020 	add	a0,zero,zero
80010efc:	20020003 	addi	v0,zero,3
80010f00:	0000000c 	syscall
80010f04:	00000000 	nop
80010f08:	03c0e825 	move	sp,s8
80010f0c:	8fbe0004 	lw	s8,4(sp)
80010f10:	27bd0008 	addiu	sp,sp,8
80010f14:	03e00008 	jr	ra
80010f18:	00000000 	nop

80010f1c <pc_test>:
80010f1c:	27bdffe8 	addiu	sp,sp,-24
80010f20:	afbf0014 	sw	ra,20(sp)
80010f24:	afbe0010 	sw	s8,16(sp)
80010f28:	03a0f025 	move	s8,sp
80010f2c:	24040006 	li	a0,6
80010f30:	00002825 	move	a1,zero
80010f34:	0c004525 	jal	80011494 <call_syscall_a0>
80010f38:	00000000 	nop
80010f3c:	3c028001 	lui	v0,0x8001
80010f40:	24440e38 	addiu	a0,v0,3640
80010f44:	3c028002 	lui	v0,0x8002
80010f48:	24459170 	addiu	a1,v0,-28304
80010f4c:	0c003eb3 	jal	8000facc <pc_create>
80010f50:	00000000 	nop
80010f54:	00001025 	move	v0,zero
80010f58:	03c0e825 	move	sp,s8
80010f5c:	8fbf0014 	lw	ra,20(sp)
80010f60:	8fbe0010 	lw	s8,16(sp)
80010f64:	27bd0018 	addiu	sp,sp,24
80010f68:	03e00008 	jr	ra
80010f6c:	00000000 	nop

80010f70 <printtask>:
80010f70:	27bdffe0 	addiu	sp,sp,-32
80010f74:	afbf001c 	sw	ra,28(sp)
80010f78:	afbe0018 	sw	s8,24(sp)
80010f7c:	03a0f025 	move	s8,sp
80010f80:	afc40020 	sw	a0,32(s8)
80010f84:	8fc20020 	lw	v0,32(s8)
80010f88:	2445008c 	addiu	a1,v0,140
80010f8c:	8fc20020 	lw	v0,32(s8)
80010f90:	8c460088 	lw	a2,136(v0)
80010f94:	8fc20020 	lw	v0,32(s8)
80010f98:	8c4300c8 	lw	v1,200(v0)
80010f9c:	8fc20020 	lw	v0,32(s8)
80010fa0:	8c4200f8 	lw	v0,248(v0)
80010fa4:	afa20010 	sw	v0,16(sp)
80010fa8:	3c028002 	lui	v0,0x8002
80010fac:	24449184 	addiu	a0,v0,-28284
80010fb0:	00603825 	move	a3,v1
80010fb4:	0c000aaa 	jal	80002aa8 <kernel_printf>
80010fb8:	00000000 	nop
80010fbc:	03c0e825 	move	sp,s8
80010fc0:	8fbf001c 	lw	ra,28(sp)
80010fc4:	8fbe0018 	lw	s8,24(sp)
80010fc8:	27bd0020 	addiu	sp,sp,32
80010fcc:	03e00008 	jr	ra
80010fd0:	00000000 	nop

80010fd4 <printalltask>:
80010fd4:	27bdffd8 	addiu	sp,sp,-40
80010fd8:	afbf0024 	sw	ra,36(sp)
80010fdc:	afbe0020 	sw	s8,32(sp)
80010fe0:	03a0f025 	move	s8,sp
80010fe4:	afc00010 	sw	zero,16(s8)
80010fe8:	8f8280dc 	lw	v0,-32548(gp)
80010fec:	afc20014 	sw	v0,20(s8)
80010ff0:	10000007 	b	80011010 <printalltask+0x3c>
80010ff4:	00000000 	nop
80010ff8:	8fc20010 	lw	v0,16(s8)
80010ffc:	24420001 	addiu	v0,v0,1
80011000:	afc20010 	sw	v0,16(s8)
80011004:	8fc20014 	lw	v0,20(s8)
80011008:	8c420004 	lw	v0,4(v0)
8001100c:	afc20014 	sw	v0,20(s8)
80011010:	8fc30014 	lw	v1,20(s8)
80011014:	278280d8 	addiu	v0,gp,-32552
80011018:	1462fff7 	bne	v1,v0,80010ff8 <printalltask+0x24>
8001101c:	00000000 	nop
80011020:	3c028002 	lui	v0,0x8002
80011024:	24449194 	addiu	a0,v0,-28268
80011028:	0c000aaa 	jal	80002aa8 <kernel_printf>
8001102c:	00000000 	nop
80011030:	8f8280dc 	lw	v0,-32548(gp)
80011034:	afc20014 	sw	v0,20(s8)
80011038:	1000000a 	b	80011064 <printalltask+0x90>
8001103c:	00000000 	nop
80011040:	8fc20014 	lw	v0,20(s8)
80011044:	2442ff34 	addiu	v0,v0,-204
80011048:	afc20018 	sw	v0,24(s8)
8001104c:	8fc40018 	lw	a0,24(s8)
80011050:	0c0043dc 	jal	80010f70 <printtask>
80011054:	00000000 	nop
80011058:	8fc20014 	lw	v0,20(s8)
8001105c:	8c420004 	lw	v0,4(v0)
80011060:	afc20014 	sw	v0,20(s8)
80011064:	8fc30014 	lw	v1,20(s8)
80011068:	278280d8 	addiu	v0,gp,-32552
8001106c:	1462fff4 	bne	v1,v0,80011040 <printalltask+0x6c>
80011070:	00000000 	nop
80011074:	03c0e825 	move	sp,s8
80011078:	8fbf0024 	lw	ra,36(sp)
8001107c:	8fbe0020 	lw	s8,32(sp)
80011080:	27bd0028 	addiu	sp,sp,40
80011084:	03e00008 	jr	ra
80011088:	00000000 	nop

8001108c <printreadylist>:
8001108c:	27bdffd8 	addiu	sp,sp,-40
80011090:	afbf0024 	sw	ra,36(sp)
80011094:	afbe0020 	sw	s8,32(sp)
80011098:	03a0f025 	move	s8,sp
8001109c:	afc00014 	sw	zero,20(s8)
800110a0:	10000035 	b	80011178 <printreadylist+0xec>
800110a4:	00000000 	nop
800110a8:	8fc20014 	lw	v0,20(s8)
800110ac:	000218c0 	sll	v1,v0,0x3
800110b0:	3c028003 	lui	v0,0x8003
800110b4:	2442d218 	addiu	v0,v0,-11752
800110b8:	00621021 	addu	v0,v1,v0
800110bc:	00402025 	move	a0,v0
800110c0:	0c003e33 	jal	8000f8cc <list_empty>
800110c4:	00000000 	nop
800110c8:	14400028 	bnez	v0,8001116c <printreadylist+0xe0>
800110cc:	00000000 	nop
800110d0:	3c028002 	lui	v0,0x8002
800110d4:	244491b0 	addiu	a0,v0,-28240
800110d8:	8fc50014 	lw	a1,20(s8)
800110dc:	0c000aaa 	jal	80002aa8 <kernel_printf>
800110e0:	00000000 	nop
800110e4:	3c028003 	lui	v0,0x8003
800110e8:	8fc30014 	lw	v1,20(s8)
800110ec:	000318c0 	sll	v1,v1,0x3
800110f0:	2442d218 	addiu	v0,v0,-11752
800110f4:	00621021 	addu	v0,v1,v0
800110f8:	8c420004 	lw	v0,4(v0)
800110fc:	afc20010 	sw	v0,16(s8)
80011100:	10000012 	b	8001114c <printreadylist+0xc0>
80011104:	00000000 	nop
80011108:	8fc20010 	lw	v0,16(s8)
8001110c:	2442ff2c 	addiu	v0,v0,-212
80011110:	afc20018 	sw	v0,24(s8)
80011114:	8fc20018 	lw	v0,24(s8)
80011118:	2445008c 	addiu	a1,v0,140
8001111c:	8fc20018 	lw	v0,24(s8)
80011120:	8c460088 	lw	a2,136(v0)
80011124:	8fc20018 	lw	v0,24(s8)
80011128:	8c4300b0 	lw	v1,176(v0)
8001112c:	3c028002 	lui	v0,0x8002
80011130:	244491c8 	addiu	a0,v0,-28216
80011134:	00603825 	move	a3,v1
80011138:	0c000aaa 	jal	80002aa8 <kernel_printf>
8001113c:	00000000 	nop
80011140:	8fc20010 	lw	v0,16(s8)
80011144:	8c420004 	lw	v0,4(v0)
80011148:	afc20010 	sw	v0,16(s8)
8001114c:	8fc20014 	lw	v0,20(s8)
80011150:	000218c0 	sll	v1,v0,0x3
80011154:	3c028003 	lui	v0,0x8003
80011158:	2442d218 	addiu	v0,v0,-11752
8001115c:	00621821 	addu	v1,v1,v0
80011160:	8fc20010 	lw	v0,16(s8)
80011164:	1462ffe8 	bne	v1,v0,80011108 <printreadylist+0x7c>
80011168:	00000000 	nop
8001116c:	8fc20014 	lw	v0,20(s8)
80011170:	24420001 	addiu	v0,v0,1
80011174:	afc20014 	sw	v0,20(s8)
80011178:	8fc20014 	lw	v0,20(s8)
8001117c:	28420003 	slti	v0,v0,3
80011180:	1440ffc9 	bnez	v0,800110a8 <printreadylist+0x1c>
80011184:	00000000 	nop
80011188:	03c0e825 	move	sp,s8
8001118c:	8fbf0024 	lw	ra,36(sp)
80011190:	8fbe0020 	lw	s8,32(sp)
80011194:	27bd0028 	addiu	sp,sp,40
80011198:	03e00008 	jr	ra
8001119c:	00000000 	nop

800111a0 <printvmalist>:
800111a0:	27bdffd0 	addiu	sp,sp,-48
800111a4:	afbf002c 	sw	ra,44(sp)
800111a8:	afbe0028 	sw	s8,40(sp)
800111ac:	03a0f025 	move	s8,sp
800111b0:	afc40030 	sw	a0,48(s8)
800111b4:	afc0001c 	sw	zero,28(s8)
800111b8:	8fc20030 	lw	v0,48(s8)
800111bc:	2443008c 	addiu	v1,v0,140
800111c0:	3c028002 	lui	v0,0x8002
800111c4:	244491e8 	addiu	a0,v0,-28184
800111c8:	00602825 	move	a1,v1
800111cc:	0c000aaa 	jal	80002aa8 <kernel_printf>
800111d0:	00000000 	nop
800111d4:	8fc20030 	lw	v0,48(s8)
800111d8:	8c4200bc 	lw	v0,188(v0)
800111dc:	afc20018 	sw	v0,24(s8)
800111e0:	1000001f 	b	80011260 <printvmalist+0xc0>
800111e4:	00000000 	nop
800111e8:	8fc20018 	lw	v0,24(s8)
800111ec:	2442fff4 	addiu	v0,v0,-12
800111f0:	afc20020 	sw	v0,32(s8)
800111f4:	8fc20020 	lw	v0,32(s8)
800111f8:	8c460000 	lw	a2,0(v0)
800111fc:	8fc20020 	lw	v0,32(s8)
80011200:	8c470008 	lw	a3,8(v0)
80011204:	8fc20020 	lw	v0,32(s8)
80011208:	8c430004 	lw	v1,4(v0)
8001120c:	8fc20020 	lw	v0,32(s8)
80011210:	8c440004 	lw	a0,4(v0)
80011214:	8fc20020 	lw	v0,32(s8)
80011218:	8c420008 	lw	v0,8(v0)
8001121c:	00822021 	addu	a0,a0,v0
80011220:	8fc20020 	lw	v0,32(s8)
80011224:	8c420000 	lw	v0,0(v0)
80011228:	00821023 	subu	v0,a0,v0
8001122c:	afa30010 	sw	v1,16(sp)
80011230:	afa20014 	sw	v0,20(sp)
80011234:	3c028002 	lui	v0,0x8002
80011238:	24449200 	addiu	a0,v0,-28160
8001123c:	8fc5001c 	lw	a1,28(s8)
80011240:	0c000aaa 	jal	80002aa8 <kernel_printf>
80011244:	00000000 	nop
80011248:	8fc2001c 	lw	v0,28(s8)
8001124c:	24420001 	addiu	v0,v0,1
80011250:	afc2001c 	sw	v0,28(s8)
80011254:	8fc20018 	lw	v0,24(s8)
80011258:	8c420004 	lw	v0,4(v0)
8001125c:	afc20018 	sw	v0,24(s8)
80011260:	8fc20030 	lw	v0,48(s8)
80011264:	244300b8 	addiu	v1,v0,184
80011268:	8fc20018 	lw	v0,24(s8)
8001126c:	1462ffde 	bne	v1,v0,800111e8 <printvmalist+0x48>
80011270:	00000000 	nop
80011274:	03c0e825 	move	sp,s8
80011278:	8fbf002c 	lw	ra,44(sp)
8001127c:	8fbe0028 	lw	s8,40(sp)
80011280:	27bd0030 	addiu	sp,sp,48
80011284:	03e00008 	jr	ra
80011288:	00000000 	nop

8001128c <getuseraddr>:
8001128c:	27bdffd8 	addiu	sp,sp,-40
80011290:	afbf0024 	sw	ra,36(sp)
80011294:	afbe0020 	sw	s8,32(sp)
80011298:	03a0f025 	move	s8,sp
8001129c:	afc40028 	sw	a0,40(s8)
800112a0:	afc5002c 	sw	a1,44(s8)
800112a4:	8fc40028 	lw	a0,40(s8)
800112a8:	0c003f7b 	jal	8000fdec <pc_find>
800112ac:	00000000 	nop
800112b0:	afc20014 	sw	v0,20(s8)
800112b4:	8fc20014 	lw	v0,20(s8)
800112b8:	8c4200bc 	lw	v0,188(v0)
800112bc:	afc20010 	sw	v0,16(s8)
800112c0:	10000022 	b	8001134c <getuseraddr+0xc0>
800112c4:	00000000 	nop
800112c8:	8fc20010 	lw	v0,16(s8)
800112cc:	2442fff4 	addiu	v0,v0,-12
800112d0:	afc20018 	sw	v0,24(s8)
800112d4:	8fc20018 	lw	v0,24(s8)
800112d8:	8c430004 	lw	v1,4(v0)
800112dc:	8fc2002c 	lw	v0,44(s8)
800112e0:	0043102b 	sltu	v0,v0,v1
800112e4:	14400016 	bnez	v0,80011340 <getuseraddr+0xb4>
800112e8:	00000000 	nop
800112ec:	8fc20018 	lw	v0,24(s8)
800112f0:	8c420004 	lw	v0,4(v0)
800112f4:	8fc3002c 	lw	v1,44(s8)
800112f8:	00621823 	subu	v1,v1,v0
800112fc:	8fc20018 	lw	v0,24(s8)
80011300:	8c440008 	lw	a0,8(v0)
80011304:	8fc20018 	lw	v0,24(s8)
80011308:	8c420000 	lw	v0,0(v0)
8001130c:	00821023 	subu	v0,a0,v0
80011310:	0043102b 	sltu	v0,v0,v1
80011314:	1440000a 	bnez	v0,80011340 <getuseraddr+0xb4>
80011318:	00000000 	nop
8001131c:	8fc20018 	lw	v0,24(s8)
80011320:	8c430000 	lw	v1,0(v0)
80011324:	8fc2002c 	lw	v0,44(s8)
80011328:	00621821 	addu	v1,v1,v0
8001132c:	8fc20018 	lw	v0,24(s8)
80011330:	8c420004 	lw	v0,4(v0)
80011334:	00621023 	subu	v0,v1,v0
80011338:	1000000a 	b	80011364 <getuseraddr+0xd8>
8001133c:	00000000 	nop
80011340:	8fc20010 	lw	v0,16(s8)
80011344:	8c420004 	lw	v0,4(v0)
80011348:	afc20010 	sw	v0,16(s8)
8001134c:	8fc20014 	lw	v0,20(s8)
80011350:	244300b8 	addiu	v1,v0,184
80011354:	8fc20010 	lw	v0,16(s8)
80011358:	1462ffdb 	bne	v1,v0,800112c8 <getuseraddr+0x3c>
8001135c:	00000000 	nop
80011360:	00001025 	move	v0,zero
80011364:	03c0e825 	move	sp,s8
80011368:	8fbf0024 	lw	ra,36(sp)
8001136c:	8fbe0020 	lw	s8,32(sp)
80011370:	27bd0028 	addiu	sp,sp,40
80011374:	03e00008 	jr	ra
80011378:	00000000 	nop

8001137c <__fork_kthread>:
8001137c:	27bdffe0 	addiu	sp,sp,-32
80011380:	afbf001c 	sw	ra,28(sp)
80011384:	afbe0018 	sw	s8,24(sp)
80011388:	03a0f025 	move	s8,sp
8001138c:	afc40020 	sw	a0,32(s8)
80011390:	24041000 	li	a0,4096
80011394:	0c003abb 	jal	8000eaec <kmalloc>
80011398:	00000000 	nop
8001139c:	afc20010 	sw	v0,16(s8)
800113a0:	8fc40010 	lw	a0,16(s8)
800113a4:	8fc50020 	lw	a1,32(s8)
800113a8:	24061000 	li	a2,4096
800113ac:	0c005d71 	jal	800175c4 <kernel_memcpy>
800113b0:	00000000 	nop
800113b4:	0c003fc1 	jal	8000ff04 <getemptyasid>
800113b8:	00000000 	nop
800113bc:	00401825 	move	v1,v0
800113c0:	8fc20010 	lw	v0,16(s8)
800113c4:	ac430088 	sw	v1,136(v0)
800113c8:	8fc20010 	lw	v0,16(s8)
800113cc:	8c430088 	lw	v1,136(v0)
800113d0:	2402ffff 	li	v0,-1
800113d4:	14620007 	bne	v1,v0,800113f4 <__fork_kthread+0x78>
800113d8:	00000000 	nop
800113dc:	8fc40010 	lw	a0,16(s8)
800113e0:	0c003b13 	jal	8000ec4c <kfree>
800113e4:	00000000 	nop
800113e8:	2402ffff 	li	v0,-1
800113ec:	10000023 	b	8001147c <__fork_kthread+0x100>
800113f0:	00000000 	nop
800113f4:	8fc20020 	lw	v0,32(s8)
800113f8:	8c430074 	lw	v1,116(v0)
800113fc:	8fc20020 	lw	v0,32(s8)
80011400:	00621823 	subu	v1,v1,v0
80011404:	8fc20010 	lw	v0,16(s8)
80011408:	00621821 	addu	v1,v1,v0
8001140c:	8fc20010 	lw	v0,16(s8)
80011410:	ac430074 	sw	v1,116(v0)
80011414:	8fc20010 	lw	v0,16(s8)
80011418:	ac400010 	sw	zero,16(v0)
8001141c:	8fc20010 	lw	v0,16(s8)
80011420:	ac4000c8 	sw	zero,200(v0)
80011424:	8fc20010 	lw	v0,16(s8)
80011428:	244200cc 	addiu	v0,v0,204
8001142c:	00402025 	move	a0,v0
80011430:	278580d8 	addiu	a1,gp,-32552
80011434:	0c003ddc 	jal	8000f770 <list_add_tail>
80011438:	00000000 	nop
8001143c:	8fc20010 	lw	v0,16(s8)
80011440:	244400d4 	addiu	a0,v0,212
80011444:	8fc20010 	lw	v0,16(s8)
80011448:	8c4200c4 	lw	v0,196(v0)
8001144c:	000218c0 	sll	v1,v0,0x3
80011450:	3c028003 	lui	v0,0x8003
80011454:	2442d218 	addiu	v0,v0,-11752
80011458:	00621021 	addu	v0,v1,v0
8001145c:	00402825 	move	a1,v0
80011460:	0c003ddc 	jal	8000f770 <list_add_tail>
80011464:	00000000 	nop
80011468:	8fc20010 	lw	v0,16(s8)
8001146c:	24030001 	li	v1,1
80011470:	ac4300f8 	sw	v1,248(v0)
80011474:	8fc20010 	lw	v0,16(s8)
80011478:	8c420088 	lw	v0,136(v0)
8001147c:	03c0e825 	move	sp,s8
80011480:	8fbf001c 	lw	ra,28(sp)
80011484:	8fbe0018 	lw	s8,24(sp)
80011488:	27bd0020 	addiu	sp,sp,32
8001148c:	03e00008 	jr	ra
80011490:	00000000 	nop

80011494 <call_syscall_a0>:
80011494:	27bdfff0 	addiu	sp,sp,-16
80011498:	afbe000c 	sw	s8,12(sp)
8001149c:	03a0f025 	move	s8,sp
800114a0:	afc40010 	sw	a0,16(s8)
800114a4:	afc50014 	sw	a1,20(s8)
800114a8:	8fc20010 	lw	v0,16(s8)
800114ac:	8fc30014 	lw	v1,20(s8)
800114b0:	00401025 	move	v0,v0
800114b4:	00602025 	move	a0,v1
800114b8:	0000000c 	syscall
800114bc:	00801025 	move	v0,a0
800114c0:	afc20000 	sw	v0,0(s8)
800114c4:	8fc20000 	lw	v0,0(s8)
800114c8:	03c0e825 	move	sp,s8
800114cc:	8fbe000c 	lw	s8,12(sp)
800114d0:	27bd0010 	addiu	sp,sp,16
800114d4:	03e00008 	jr	ra
800114d8:	00000000 	nop

800114dc <__list_add>:
800114dc:	27bdfff8 	addiu	sp,sp,-8
800114e0:	afbe0004 	sw	s8,4(sp)
800114e4:	03a0f025 	move	s8,sp
800114e8:	afc40008 	sw	a0,8(s8)
800114ec:	afc5000c 	sw	a1,12(s8)
800114f0:	afc60010 	sw	a2,16(s8)
800114f4:	8fc20008 	lw	v0,8(s8)
800114f8:	8fc30010 	lw	v1,16(s8)
800114fc:	ac430004 	sw	v1,4(v0)
80011500:	8fc20008 	lw	v0,8(s8)
80011504:	8fc3000c 	lw	v1,12(s8)
80011508:	ac430000 	sw	v1,0(v0)
8001150c:	8fc2000c 	lw	v0,12(s8)
80011510:	8fc30008 	lw	v1,8(s8)
80011514:	ac430004 	sw	v1,4(v0)
80011518:	8fc20010 	lw	v0,16(s8)
8001151c:	8fc30008 	lw	v1,8(s8)
80011520:	ac430000 	sw	v1,0(v0)
80011524:	03c0e825 	move	sp,s8
80011528:	8fbe0004 	lw	s8,4(sp)
8001152c:	27bd0008 	addiu	sp,sp,8
80011530:	03e00008 	jr	ra
80011534:	00000000 	nop

80011538 <list_add>:
80011538:	27bdffe8 	addiu	sp,sp,-24
8001153c:	afbf0014 	sw	ra,20(sp)
80011540:	afbe0010 	sw	s8,16(sp)
80011544:	03a0f025 	move	s8,sp
80011548:	afc40018 	sw	a0,24(s8)
8001154c:	afc5001c 	sw	a1,28(s8)
80011550:	8fc2001c 	lw	v0,28(s8)
80011554:	8c420004 	lw	v0,4(v0)
80011558:	8fc40018 	lw	a0,24(s8)
8001155c:	8fc5001c 	lw	a1,28(s8)
80011560:	00403025 	move	a2,v0
80011564:	0c004537 	jal	800114dc <__list_add>
80011568:	00000000 	nop
8001156c:	03c0e825 	move	sp,s8
80011570:	8fbf0014 	lw	ra,20(sp)
80011574:	8fbe0010 	lw	s8,16(sp)
80011578:	27bd0018 	addiu	sp,sp,24
8001157c:	03e00008 	jr	ra
80011580:	00000000 	nop

80011584 <list_add_tail>:
80011584:	27bdffe8 	addiu	sp,sp,-24
80011588:	afbf0014 	sw	ra,20(sp)
8001158c:	afbe0010 	sw	s8,16(sp)
80011590:	03a0f025 	move	s8,sp
80011594:	afc40018 	sw	a0,24(s8)
80011598:	afc5001c 	sw	a1,28(s8)
8001159c:	8fc2001c 	lw	v0,28(s8)
800115a0:	8c420000 	lw	v0,0(v0)
800115a4:	8fc40018 	lw	a0,24(s8)
800115a8:	00402825 	move	a1,v0
800115ac:	8fc6001c 	lw	a2,28(s8)
800115b0:	0c004537 	jal	800114dc <__list_add>
800115b4:	00000000 	nop
800115b8:	03c0e825 	move	sp,s8
800115bc:	8fbf0014 	lw	ra,20(sp)
800115c0:	8fbe0010 	lw	s8,16(sp)
800115c4:	27bd0018 	addiu	sp,sp,24
800115c8:	03e00008 	jr	ra
800115cc:	00000000 	nop

800115d0 <__list_del>:
800115d0:	27bdfff8 	addiu	sp,sp,-8
800115d4:	afbe0004 	sw	s8,4(sp)
800115d8:	03a0f025 	move	s8,sp
800115dc:	afc40008 	sw	a0,8(s8)
800115e0:	afc5000c 	sw	a1,12(s8)
800115e4:	8fc20008 	lw	v0,8(s8)
800115e8:	8fc3000c 	lw	v1,12(s8)
800115ec:	ac430004 	sw	v1,4(v0)
800115f0:	8fc2000c 	lw	v0,12(s8)
800115f4:	8fc30008 	lw	v1,8(s8)
800115f8:	ac430000 	sw	v1,0(v0)
800115fc:	03c0e825 	move	sp,s8
80011600:	8fbe0004 	lw	s8,4(sp)
80011604:	27bd0008 	addiu	sp,sp,8
80011608:	03e00008 	jr	ra
8001160c:	00000000 	nop

80011610 <list_del>:
80011610:	27bdffe8 	addiu	sp,sp,-24
80011614:	afbf0014 	sw	ra,20(sp)
80011618:	afbe0010 	sw	s8,16(sp)
8001161c:	03a0f025 	move	s8,sp
80011620:	afc40018 	sw	a0,24(s8)
80011624:	8fc20018 	lw	v0,24(s8)
80011628:	8c430000 	lw	v1,0(v0)
8001162c:	8fc20018 	lw	v0,24(s8)
80011630:	8c420004 	lw	v0,4(v0)
80011634:	00602025 	move	a0,v1
80011638:	00402825 	move	a1,v0
8001163c:	0c004574 	jal	800115d0 <__list_del>
80011640:	00000000 	nop
80011644:	8fc20018 	lw	v0,24(s8)
80011648:	3c031010 	lui	v1,0x1010
8001164c:	34631010 	ori	v1,v1,0x1010
80011650:	ac430000 	sw	v1,0(v0)
80011654:	8fc20018 	lw	v0,24(s8)
80011658:	3c032020 	lui	v1,0x2020
8001165c:	34632020 	ori	v1,v1,0x2020
80011660:	ac430004 	sw	v1,4(v0)
80011664:	03c0e825 	move	sp,s8
80011668:	8fbf0014 	lw	ra,20(sp)
8001166c:	8fbe0010 	lw	s8,16(sp)
80011670:	27bd0018 	addiu	sp,sp,24
80011674:	03e00008 	jr	ra
80011678:	00000000 	nop

8001167c <list_empty>:
8001167c:	27bdfff8 	addiu	sp,sp,-8
80011680:	afbe0004 	sw	s8,4(sp)
80011684:	03a0f025 	move	s8,sp
80011688:	afc40008 	sw	a0,8(s8)
8001168c:	8fc20008 	lw	v0,8(s8)
80011690:	8c430004 	lw	v1,4(v0)
80011694:	8fc20008 	lw	v0,8(s8)
80011698:	00621026 	xor	v0,v1,v0
8001169c:	2c420001 	sltiu	v0,v0,1
800116a0:	304200ff 	andi	v0,v0,0xff
800116a4:	03c0e825 	move	sp,s8
800116a8:	8fbe0004 	lw	s8,4(sp)
800116ac:	27bd0008 	addiu	sp,sp,8
800116b0:	03e00008 	jr	ra
800116b4:	00000000 	nop

800116b8 <create_semaphore>:
800116b8:	27bdffe0 	addiu	sp,sp,-32
800116bc:	afbf001c 	sw	ra,28(sp)
800116c0:	afbe0018 	sw	s8,24(sp)
800116c4:	03a0f025 	move	s8,sp
800116c8:	afc40020 	sw	a0,32(s8)
800116cc:	afc50024 	sw	a1,36(s8)
800116d0:	2404002c 	li	a0,44
800116d4:	0c003abb 	jal	8000eaec <kmalloc>
800116d8:	00000000 	nop
800116dc:	afc20010 	sw	v0,16(s8)
800116e0:	8fc20010 	lw	v0,16(s8)
800116e4:	00402025 	move	a0,v0
800116e8:	8fc50020 	lw	a1,32(s8)
800116ec:	2406001d 	li	a2,29
800116f0:	0c005d71 	jal	800175c4 <kernel_memcpy>
800116f4:	00000000 	nop
800116f8:	8fc20010 	lw	v0,16(s8)
800116fc:	a040001d 	sb	zero,29(v0)
80011700:	8fc20010 	lw	v0,16(s8)
80011704:	8fc30024 	lw	v1,36(s8)
80011708:	ac430028 	sw	v1,40(v0)
8001170c:	8fc20010 	lw	v0,16(s8)
80011710:	24430020 	addiu	v1,v0,32
80011714:	8fc20010 	lw	v0,16(s8)
80011718:	ac430024 	sw	v1,36(v0)
8001171c:	8fc20010 	lw	v0,16(s8)
80011720:	24430020 	addiu	v1,v0,32
80011724:	8fc20010 	lw	v0,16(s8)
80011728:	ac430020 	sw	v1,32(v0)
8001172c:	03c0e825 	move	sp,s8
80011730:	8fbf001c 	lw	ra,28(sp)
80011734:	8fbe0018 	lw	s8,24(sp)
80011738:	27bd0020 	addiu	sp,sp,32
8001173c:	03e00008 	jr	ra
80011740:	00000000 	nop

80011744 <release_semaphore>:
80011744:	27bdffe8 	addiu	sp,sp,-24
80011748:	afbf0014 	sw	ra,20(sp)
8001174c:	afbe0010 	sw	s8,16(sp)
80011750:	03a0f025 	move	s8,sp
80011754:	afc40018 	sw	a0,24(s8)
80011758:	8fc40018 	lw	a0,24(s8)
8001175c:	0c003b13 	jal	8000ec4c <kfree>
80011760:	00000000 	nop
80011764:	03c0e825 	move	sp,s8
80011768:	8fbf0014 	lw	ra,20(sp)
8001176c:	8fbe0010 	lw	s8,16(sp)
80011770:	27bd0018 	addiu	sp,sp,24
80011774:	03e00008 	jr	ra
80011778:	00000000 	nop

8001177c <sem_wait>:
8001177c:	27bdffe8 	addiu	sp,sp,-24
80011780:	afbf0014 	sw	ra,20(sp)
80011784:	afbe0010 	sw	s8,16(sp)
80011788:	03a0f025 	move	s8,sp
8001178c:	afc40018 	sw	a0,24(s8)
80011790:	8fc20018 	lw	v0,24(s8)
80011794:	8c420028 	lw	v0,40(v0)
80011798:	2443ffff 	addiu	v1,v0,-1
8001179c:	8fc20018 	lw	v0,24(s8)
800117a0:	ac430028 	sw	v1,40(v0)
800117a4:	8fc20018 	lw	v0,24(s8)
800117a8:	8c420028 	lw	v0,40(v0)
800117ac:	0441000e 	bgez	v0,800117e8 <sem_wait+0x6c>
800117b0:	00000000 	nop
800117b4:	8f8280e0 	lw	v0,-32544(gp)
800117b8:	24030004 	li	v1,4
800117bc:	ac4300c8 	sw	v1,200(v0)
800117c0:	8f8280e0 	lw	v0,-32544(gp)
800117c4:	244300e8 	addiu	v1,v0,232
800117c8:	8fc20018 	lw	v0,24(s8)
800117cc:	24420020 	addiu	v0,v0,32
800117d0:	00602025 	move	a0,v1
800117d4:	00402825 	move	a1,v0
800117d8:	0c004561 	jal	80011584 <list_add_tail>
800117dc:	00000000 	nop
800117e0:	0c0042e6 	jal	80010b98 <__request_schedule>
800117e4:	00000000 	nop
800117e8:	03c0e825 	move	sp,s8
800117ec:	8fbf0014 	lw	ra,20(sp)
800117f0:	8fbe0010 	lw	s8,16(sp)
800117f4:	27bd0018 	addiu	sp,sp,24
800117f8:	03e00008 	jr	ra
800117fc:	00000000 	nop

80011800 <sem_signal>:
80011800:	27bdffe0 	addiu	sp,sp,-32
80011804:	afbf001c 	sw	ra,28(sp)
80011808:	afbe0018 	sw	s8,24(sp)
8001180c:	03a0f025 	move	s8,sp
80011810:	afc40020 	sw	a0,32(s8)
80011814:	8fc20020 	lw	v0,32(s8)
80011818:	8c420028 	lw	v0,40(v0)
8001181c:	24430001 	addiu	v1,v0,1
80011820:	8fc20020 	lw	v0,32(s8)
80011824:	ac430028 	sw	v1,40(v0)
80011828:	8fc20020 	lw	v0,32(s8)
8001182c:	24420020 	addiu	v0,v0,32
80011830:	00402025 	move	a0,v0
80011834:	0c00459f 	jal	8001167c <list_empty>
80011838:	00000000 	nop
8001183c:	14400015 	bnez	v0,80011894 <sem_signal+0x94>
80011840:	00000000 	nop
80011844:	8fc20020 	lw	v0,32(s8)
80011848:	8c420024 	lw	v0,36(v0)
8001184c:	2442ff18 	addiu	v0,v0,-232
80011850:	afc20010 	sw	v0,16(s8)
80011854:	8fc20020 	lw	v0,32(s8)
80011858:	8c420024 	lw	v0,36(v0)
8001185c:	00402025 	move	a0,v0
80011860:	0c004584 	jal	80011610 <list_del>
80011864:	00000000 	nop
80011868:	8fc20010 	lw	v0,16(s8)
8001186c:	244400d4 	addiu	a0,v0,212
80011870:	8fc20010 	lw	v0,16(s8)
80011874:	8c4200c4 	lw	v0,196(v0)
80011878:	000218c0 	sll	v1,v0,0x3
8001187c:	3c028003 	lui	v0,0x8003
80011880:	2442d218 	addiu	v0,v0,-11752
80011884:	00621021 	addu	v0,v1,v0
80011888:	00402825 	move	a1,v0
8001188c:	0c00454e 	jal	80011538 <list_add>
80011890:	00000000 	nop
80011894:	03c0e825 	move	sp,s8
80011898:	8fbf001c 	lw	ra,28(sp)
8001189c:	8fbe0018 	lw	s8,24(sp)
800118a0:	27bd0020 	addiu	sp,sp,32
800118a4:	03e00008 	jr	ra
800118a8:	00000000 	nop

800118ac <__list_add>:
800118ac:	27bdfff8 	addiu	sp,sp,-8
800118b0:	afbe0004 	sw	s8,4(sp)
800118b4:	03a0f025 	move	s8,sp
800118b8:	afc40008 	sw	a0,8(s8)
800118bc:	afc5000c 	sw	a1,12(s8)
800118c0:	afc60010 	sw	a2,16(s8)
800118c4:	8fc20008 	lw	v0,8(s8)
800118c8:	8fc30010 	lw	v1,16(s8)
800118cc:	ac430004 	sw	v1,4(v0)
800118d0:	8fc20008 	lw	v0,8(s8)
800118d4:	8fc3000c 	lw	v1,12(s8)
800118d8:	ac430000 	sw	v1,0(v0)
800118dc:	8fc2000c 	lw	v0,12(s8)
800118e0:	8fc30008 	lw	v1,8(s8)
800118e4:	ac430004 	sw	v1,4(v0)
800118e8:	8fc20010 	lw	v0,16(s8)
800118ec:	8fc30008 	lw	v1,8(s8)
800118f0:	ac430000 	sw	v1,0(v0)
800118f4:	03c0e825 	move	sp,s8
800118f8:	8fbe0004 	lw	s8,4(sp)
800118fc:	27bd0008 	addiu	sp,sp,8
80011900:	03e00008 	jr	ra
80011904:	00000000 	nop

80011908 <list_add_tail>:
80011908:	27bdffe8 	addiu	sp,sp,-24
8001190c:	afbf0014 	sw	ra,20(sp)
80011910:	afbe0010 	sw	s8,16(sp)
80011914:	03a0f025 	move	s8,sp
80011918:	afc40018 	sw	a0,24(s8)
8001191c:	afc5001c 	sw	a1,28(s8)
80011920:	8fc2001c 	lw	v0,28(s8)
80011924:	8c420000 	lw	v0,0(v0)
80011928:	8fc40018 	lw	a0,24(s8)
8001192c:	00402825 	move	a1,v0
80011930:	8fc6001c 	lw	a2,28(s8)
80011934:	0c00462b 	jal	800118ac <__list_add>
80011938:	00000000 	nop
8001193c:	03c0e825 	move	sp,s8
80011940:	8fbf0014 	lw	ra,20(sp)
80011944:	8fbe0010 	lw	s8,16(sp)
80011948:	27bd0018 	addiu	sp,sp,24
8001194c:	03e00008 	jr	ra
80011950:	00000000 	nop

80011954 <__list_del>:
80011954:	27bdfff8 	addiu	sp,sp,-8
80011958:	afbe0004 	sw	s8,4(sp)
8001195c:	03a0f025 	move	s8,sp
80011960:	afc40008 	sw	a0,8(s8)
80011964:	afc5000c 	sw	a1,12(s8)
80011968:	8fc20008 	lw	v0,8(s8)
8001196c:	8fc3000c 	lw	v1,12(s8)
80011970:	ac430004 	sw	v1,4(v0)
80011974:	8fc2000c 	lw	v0,12(s8)
80011978:	8fc30008 	lw	v1,8(s8)
8001197c:	ac430000 	sw	v1,0(v0)
80011980:	03c0e825 	move	sp,s8
80011984:	8fbe0004 	lw	s8,4(sp)
80011988:	27bd0008 	addiu	sp,sp,8
8001198c:	03e00008 	jr	ra
80011990:	00000000 	nop

80011994 <list_del_init>:
80011994:	27bdffe8 	addiu	sp,sp,-24
80011998:	afbf0014 	sw	ra,20(sp)
8001199c:	afbe0010 	sw	s8,16(sp)
800119a0:	03a0f025 	move	s8,sp
800119a4:	afc40018 	sw	a0,24(s8)
800119a8:	8fc20018 	lw	v0,24(s8)
800119ac:	8c430000 	lw	v1,0(v0)
800119b0:	8fc20018 	lw	v0,24(s8)
800119b4:	8c420004 	lw	v0,4(v0)
800119b8:	00602025 	move	a0,v1
800119bc:	00402825 	move	a1,v0
800119c0:	0c004655 	jal	80011954 <__list_del>
800119c4:	00000000 	nop
800119c8:	8fc20018 	lw	v0,24(s8)
800119cc:	8fc30018 	lw	v1,24(s8)
800119d0:	ac430004 	sw	v1,4(v0)
800119d4:	8fc20018 	lw	v0,24(s8)
800119d8:	8fc30018 	lw	v1,24(s8)
800119dc:	ac430000 	sw	v1,0(v0)
800119e0:	03c0e825 	move	sp,s8
800119e4:	8fbf0014 	lw	ra,20(sp)
800119e8:	8fbe0010 	lw	s8,16(sp)
800119ec:	27bd0018 	addiu	sp,sp,24
800119f0:	03e00008 	jr	ra
800119f4:	00000000 	nop

800119f8 <list_empty>:
800119f8:	27bdfff8 	addiu	sp,sp,-8
800119fc:	afbe0004 	sw	s8,4(sp)
80011a00:	03a0f025 	move	s8,sp
80011a04:	afc40008 	sw	a0,8(s8)
80011a08:	8fc20008 	lw	v0,8(s8)
80011a0c:	8c430004 	lw	v1,4(v0)
80011a10:	8fc20008 	lw	v0,8(s8)
80011a14:	00621026 	xor	v0,v1,v0
80011a18:	2c420001 	sltiu	v0,v0,1
80011a1c:	304200ff 	andi	v0,v0,0xff
80011a20:	03c0e825 	move	sp,s8
80011a24:	8fbe0004 	lw	s8,4(sp)
80011a28:	27bd0008 	addiu	sp,sp,8
80011a2c:	03e00008 	jr	ra
80011a30:	00000000 	nop

80011a34 <copy_context>:
80011a34:	27bdfff8 	addiu	sp,sp,-8
80011a38:	afbe0004 	sw	s8,4(sp)
80011a3c:	03a0f025 	move	s8,sp
80011a40:	afc40008 	sw	a0,8(s8)
80011a44:	afc5000c 	sw	a1,12(s8)
80011a48:	8fc20008 	lw	v0,8(s8)
80011a4c:	8c430000 	lw	v1,0(v0)
80011a50:	8fc2000c 	lw	v0,12(s8)
80011a54:	ac430000 	sw	v1,0(v0)
80011a58:	8fc20008 	lw	v0,8(s8)
80011a5c:	8c430004 	lw	v1,4(v0)
80011a60:	8fc2000c 	lw	v0,12(s8)
80011a64:	ac430004 	sw	v1,4(v0)
80011a68:	8fc20008 	lw	v0,8(s8)
80011a6c:	8c430008 	lw	v1,8(v0)
80011a70:	8fc2000c 	lw	v0,12(s8)
80011a74:	ac430008 	sw	v1,8(v0)
80011a78:	8fc20008 	lw	v0,8(s8)
80011a7c:	8c43000c 	lw	v1,12(v0)
80011a80:	8fc2000c 	lw	v0,12(s8)
80011a84:	ac43000c 	sw	v1,12(v0)
80011a88:	8fc20008 	lw	v0,8(s8)
80011a8c:	8c430010 	lw	v1,16(v0)
80011a90:	8fc2000c 	lw	v0,12(s8)
80011a94:	ac430010 	sw	v1,16(v0)
80011a98:	8fc20008 	lw	v0,8(s8)
80011a9c:	8c430014 	lw	v1,20(v0)
80011aa0:	8fc2000c 	lw	v0,12(s8)
80011aa4:	ac430014 	sw	v1,20(v0)
80011aa8:	8fc20008 	lw	v0,8(s8)
80011aac:	8c430018 	lw	v1,24(v0)
80011ab0:	8fc2000c 	lw	v0,12(s8)
80011ab4:	ac430018 	sw	v1,24(v0)
80011ab8:	8fc20008 	lw	v0,8(s8)
80011abc:	8c43001c 	lw	v1,28(v0)
80011ac0:	8fc2000c 	lw	v0,12(s8)
80011ac4:	ac43001c 	sw	v1,28(v0)
80011ac8:	8fc20008 	lw	v0,8(s8)
80011acc:	8c430020 	lw	v1,32(v0)
80011ad0:	8fc2000c 	lw	v0,12(s8)
80011ad4:	ac430020 	sw	v1,32(v0)
80011ad8:	8fc20008 	lw	v0,8(s8)
80011adc:	8c430024 	lw	v1,36(v0)
80011ae0:	8fc2000c 	lw	v0,12(s8)
80011ae4:	ac430024 	sw	v1,36(v0)
80011ae8:	8fc20008 	lw	v0,8(s8)
80011aec:	8c430028 	lw	v1,40(v0)
80011af0:	8fc2000c 	lw	v0,12(s8)
80011af4:	ac430028 	sw	v1,40(v0)
80011af8:	8fc20008 	lw	v0,8(s8)
80011afc:	8c43002c 	lw	v1,44(v0)
80011b00:	8fc2000c 	lw	v0,12(s8)
80011b04:	ac43002c 	sw	v1,44(v0)
80011b08:	8fc20008 	lw	v0,8(s8)
80011b0c:	8c430030 	lw	v1,48(v0)
80011b10:	8fc2000c 	lw	v0,12(s8)
80011b14:	ac430030 	sw	v1,48(v0)
80011b18:	8fc20008 	lw	v0,8(s8)
80011b1c:	8c430034 	lw	v1,52(v0)
80011b20:	8fc2000c 	lw	v0,12(s8)
80011b24:	ac430034 	sw	v1,52(v0)
80011b28:	8fc20008 	lw	v0,8(s8)
80011b2c:	8c430038 	lw	v1,56(v0)
80011b30:	8fc2000c 	lw	v0,12(s8)
80011b34:	ac430038 	sw	v1,56(v0)
80011b38:	8fc20008 	lw	v0,8(s8)
80011b3c:	8c43003c 	lw	v1,60(v0)
80011b40:	8fc2000c 	lw	v0,12(s8)
80011b44:	ac43003c 	sw	v1,60(v0)
80011b48:	8fc20008 	lw	v0,8(s8)
80011b4c:	8c430040 	lw	v1,64(v0)
80011b50:	8fc2000c 	lw	v0,12(s8)
80011b54:	ac430040 	sw	v1,64(v0)
80011b58:	8fc20008 	lw	v0,8(s8)
80011b5c:	8c430044 	lw	v1,68(v0)
80011b60:	8fc2000c 	lw	v0,12(s8)
80011b64:	ac430044 	sw	v1,68(v0)
80011b68:	8fc20008 	lw	v0,8(s8)
80011b6c:	8c430048 	lw	v1,72(v0)
80011b70:	8fc2000c 	lw	v0,12(s8)
80011b74:	ac430048 	sw	v1,72(v0)
80011b78:	8fc20008 	lw	v0,8(s8)
80011b7c:	8c43004c 	lw	v1,76(v0)
80011b80:	8fc2000c 	lw	v0,12(s8)
80011b84:	ac43004c 	sw	v1,76(v0)
80011b88:	8fc20008 	lw	v0,8(s8)
80011b8c:	8c430050 	lw	v1,80(v0)
80011b90:	8fc2000c 	lw	v0,12(s8)
80011b94:	ac430050 	sw	v1,80(v0)
80011b98:	8fc20008 	lw	v0,8(s8)
80011b9c:	8c430054 	lw	v1,84(v0)
80011ba0:	8fc2000c 	lw	v0,12(s8)
80011ba4:	ac430054 	sw	v1,84(v0)
80011ba8:	8fc20008 	lw	v0,8(s8)
80011bac:	8c430058 	lw	v1,88(v0)
80011bb0:	8fc2000c 	lw	v0,12(s8)
80011bb4:	ac430058 	sw	v1,88(v0)
80011bb8:	8fc20008 	lw	v0,8(s8)
80011bbc:	8c43005c 	lw	v1,92(v0)
80011bc0:	8fc2000c 	lw	v0,12(s8)
80011bc4:	ac43005c 	sw	v1,92(v0)
80011bc8:	8fc20008 	lw	v0,8(s8)
80011bcc:	8c430060 	lw	v1,96(v0)
80011bd0:	8fc2000c 	lw	v0,12(s8)
80011bd4:	ac430060 	sw	v1,96(v0)
80011bd8:	8fc20008 	lw	v0,8(s8)
80011bdc:	8c430064 	lw	v1,100(v0)
80011be0:	8fc2000c 	lw	v0,12(s8)
80011be4:	ac430064 	sw	v1,100(v0)
80011be8:	8fc20008 	lw	v0,8(s8)
80011bec:	8c430068 	lw	v1,104(v0)
80011bf0:	8fc2000c 	lw	v0,12(s8)
80011bf4:	ac430068 	sw	v1,104(v0)
80011bf8:	8fc20008 	lw	v0,8(s8)
80011bfc:	8c43006c 	lw	v1,108(v0)
80011c00:	8fc2000c 	lw	v0,12(s8)
80011c04:	ac43006c 	sw	v1,108(v0)
80011c08:	8fc20008 	lw	v0,8(s8)
80011c0c:	8c430070 	lw	v1,112(v0)
80011c10:	8fc2000c 	lw	v0,12(s8)
80011c14:	ac430070 	sw	v1,112(v0)
80011c18:	8fc20008 	lw	v0,8(s8)
80011c1c:	8c430074 	lw	v1,116(v0)
80011c20:	8fc2000c 	lw	v0,12(s8)
80011c24:	ac430074 	sw	v1,116(v0)
80011c28:	8fc20008 	lw	v0,8(s8)
80011c2c:	8c430078 	lw	v1,120(v0)
80011c30:	8fc2000c 	lw	v0,12(s8)
80011c34:	ac430078 	sw	v1,120(v0)
80011c38:	8fc20008 	lw	v0,8(s8)
80011c3c:	8c43007c 	lw	v1,124(v0)
80011c40:	8fc2000c 	lw	v0,12(s8)
80011c44:	ac43007c 	sw	v1,124(v0)
80011c48:	03c0e825 	move	sp,s8
80011c4c:	8fbe0004 	lw	s8,4(sp)
80011c50:	27bd0008 	addiu	sp,sp,8
80011c54:	03e00008 	jr	ra
80011c58:	00000000 	nop

80011c5c <__getnexttask>:
80011c5c:	27bdffe0 	addiu	sp,sp,-32
80011c60:	afbf001c 	sw	ra,28(sp)
80011c64:	afbe0018 	sw	s8,24(sp)
80011c68:	03a0f025 	move	s8,sp
80011c6c:	0c00428f 	jal	80010a3c <flushsleeplist>
80011c70:	00000000 	nop
80011c74:	afc00010 	sw	zero,16(s8)
80011c78:	24020002 	li	v0,2
80011c7c:	afc20014 	sw	v0,20(s8)
80011c80:	10000018 	b	80011ce4 <__getnexttask+0x88>
80011c84:	00000000 	nop
80011c88:	8fc20014 	lw	v0,20(s8)
80011c8c:	000218c0 	sll	v1,v0,0x3
80011c90:	3c028003 	lui	v0,0x8003
80011c94:	2442d218 	addiu	v0,v0,-11752
80011c98:	00621021 	addu	v0,v1,v0
80011c9c:	00402025 	move	a0,v0
80011ca0:	0c00467e 	jal	800119f8 <list_empty>
80011ca4:	00000000 	nop
80011ca8:	1440000b 	bnez	v0,80011cd8 <__getnexttask+0x7c>
80011cac:	00000000 	nop
80011cb0:	3c028003 	lui	v0,0x8003
80011cb4:	8fc30014 	lw	v1,20(s8)
80011cb8:	000318c0 	sll	v1,v1,0x3
80011cbc:	2442d218 	addiu	v0,v0,-11752
80011cc0:	00621021 	addu	v0,v1,v0
80011cc4:	8c420004 	lw	v0,4(v0)
80011cc8:	2442ff2c 	addiu	v0,v0,-212
80011ccc:	afc20010 	sw	v0,16(s8)
80011cd0:	10000007 	b	80011cf0 <__getnexttask+0x94>
80011cd4:	00000000 	nop
80011cd8:	8fc20014 	lw	v0,20(s8)
80011cdc:	2442ffff 	addiu	v0,v0,-1
80011ce0:	afc20014 	sw	v0,20(s8)
80011ce4:	8fc20014 	lw	v0,20(s8)
80011ce8:	0441ffe7 	bgez	v0,80011c88 <__getnexttask+0x2c>
80011cec:	00000000 	nop
80011cf0:	8fc20010 	lw	v0,16(s8)
80011cf4:	14400007 	bnez	v0,80011d14 <__getnexttask+0xb8>
80011cf8:	00000000 	nop
80011cfc:	3c028002 	lui	v0,0x8002
80011d00:	24449214 	addiu	a0,v0,-28140
80011d04:	0c000aaa 	jal	80002aa8 <kernel_printf>
80011d08:	00000000 	nop
80011d0c:	1000ffff 	b	80011d0c <__getnexttask+0xb0>
80011d10:	00000000 	nop
80011d14:	03c0e825 	move	sp,s8
80011d18:	8fbf001c 	lw	ra,28(sp)
80011d1c:	8fbe0018 	lw	s8,24(sp)
80011d20:	27bd0020 	addiu	sp,sp,32
80011d24:	03e00008 	jr	ra
80011d28:	00000000 	nop

80011d2c <pc_schedule>:
80011d2c:	27bdffe8 	addiu	sp,sp,-24
80011d30:	afbf0014 	sw	ra,20(sp)
80011d34:	afbe0010 	sw	s8,16(sp)
80011d38:	03a0f025 	move	s8,sp
80011d3c:	afc40018 	sw	a0,24(s8)
80011d40:	afc5001c 	sw	a1,28(s8)
80011d44:	afc60020 	sw	a2,32(s8)
80011d48:	8f8280e0 	lw	v0,-32544(gp)
80011d4c:	8c4300f8 	lw	v1,248(v0)
80011d50:	2463ffff 	addiu	v1,v1,-1
80011d54:	ac4300f8 	sw	v1,248(v0)
80011d58:	8f8280e0 	lw	v0,-32544(gp)
80011d5c:	8c4200f8 	lw	v0,248(v0)
80011d60:	10400009 	beqz	v0,80011d88 <pc_schedule+0x5c>
80011d64:	00000000 	nop
80011d68:	8f8280e0 	lw	v0,-32544(gp)
80011d6c:	8c4300f8 	lw	v1,248(v0)
80011d70:	2463ffff 	addiu	v1,v1,-1
80011d74:	ac4300f8 	sw	v1,248(v0)
80011d78:	0c0047a4 	jal	80011e90 <__reset_counter>
80011d7c:	00000000 	nop
80011d80:	10000016 	b	80011ddc <pc_schedule+0xb0>
80011d84:	00000000 	nop
80011d88:	8f8280e0 	lw	v0,-32544(gp)
80011d8c:	24030001 	li	v1,1
80011d90:	ac4300f8 	sw	v1,248(v0)
80011d94:	8f8280e0 	lw	v0,-32544(gp)
80011d98:	ac4000c8 	sw	zero,200(v0)
80011d9c:	8f8280e0 	lw	v0,-32544(gp)
80011da0:	244400d4 	addiu	a0,v0,212
80011da4:	8f8280e0 	lw	v0,-32544(gp)
80011da8:	8c4200c4 	lw	v0,196(v0)
80011dac:	000218c0 	sll	v1,v0,0x3
80011db0:	3c028003 	lui	v0,0x8003
80011db4:	2442d218 	addiu	v0,v0,-11752
80011db8:	00621021 	addu	v0,v1,v0
80011dbc:	00402825 	move	a1,v0
80011dc0:	0c004642 	jal	80011908 <list_add_tail>
80011dc4:	00000000 	nop
80011dc8:	8fc40018 	lw	a0,24(s8)
80011dcc:	8fc5001c 	lw	a1,28(s8)
80011dd0:	8fc60020 	lw	a2,32(s8)
80011dd4:	0c00477d 	jal	80011df4 <__pc_schedule>
80011dd8:	00000000 	nop
80011ddc:	03c0e825 	move	sp,s8
80011de0:	8fbf0014 	lw	ra,20(sp)
80011de4:	8fbe0010 	lw	s8,16(sp)
80011de8:	27bd0018 	addiu	sp,sp,24
80011dec:	03e00008 	jr	ra
80011df0:	00000000 	nop

80011df4 <__pc_schedule>:
80011df4:	27bdffe8 	addiu	sp,sp,-24
80011df8:	afbf0014 	sw	ra,20(sp)
80011dfc:	afbe0010 	sw	s8,16(sp)
80011e00:	03a0f025 	move	s8,sp
80011e04:	afc40018 	sw	a0,24(s8)
80011e08:	afc5001c 	sw	a1,28(s8)
80011e0c:	afc60020 	sw	a2,32(s8)
80011e10:	8f8280e0 	lw	v0,-32544(gp)
80011e14:	8fc40020 	lw	a0,32(s8)
80011e18:	00402825 	move	a1,v0
80011e1c:	0c00468d 	jal	80011a34 <copy_context>
80011e20:	00000000 	nop
80011e24:	0c004717 	jal	80011c5c <__getnexttask>
80011e28:	00000000 	nop
80011e2c:	af8280e0 	sw	v0,-32544(gp)
80011e30:	8f8280e0 	lw	v0,-32544(gp)
80011e34:	244200d4 	addiu	v0,v0,212
80011e38:	00402025 	move	a0,v0
80011e3c:	0c004665 	jal	80011994 <list_del_init>
80011e40:	00000000 	nop
80011e44:	8f8280e0 	lw	v0,-32544(gp)
80011e48:	10400004 	beqz	v0,80011e5c <__pc_schedule+0x68>
80011e4c:	00000000 	nop
80011e50:	8f8280e0 	lw	v0,-32544(gp)
80011e54:	24030002 	li	v1,2
80011e58:	ac4300c8 	sw	v1,200(v0)
80011e5c:	8f8280e0 	lw	v0,-32544(gp)
80011e60:	00402025 	move	a0,v0
80011e64:	8fc50020 	lw	a1,32(s8)
80011e68:	0c00468d 	jal	80011a34 <copy_context>
80011e6c:	00000000 	nop
80011e70:	0c0047a4 	jal	80011e90 <__reset_counter>
80011e74:	00000000 	nop
80011e78:	03c0e825 	move	sp,s8
80011e7c:	8fbf0014 	lw	ra,20(sp)
80011e80:	8fbe0010 	lw	s8,16(sp)
80011e84:	27bd0018 	addiu	sp,sp,24
80011e88:	03e00008 	jr	ra
80011e8c:	00000000 	nop

80011e90 <__reset_counter>:
80011e90:	27bdffe8 	addiu	sp,sp,-24
80011e94:	afbf0014 	sw	ra,20(sp)
80011e98:	afbe0010 	sw	s8,16(sp)
80011e9c:	03a0f025 	move	s8,sp
80011ea0:	8f8280e0 	lw	v0,-32544(gp)
80011ea4:	8c420088 	lw	v0,136(v0)
80011ea8:	00402025 	move	a0,v0
80011eac:	0c00400f 	jal	8001003c <setasid>
80011eb0:	00000000 	nop
80011eb4:	8f8280e0 	lw	v0,-32544(gp)
80011eb8:	8c420080 	lw	v0,128(v0)
80011ebc:	af828034 	sw	v0,-32716(gp)
80011ec0:	40804800 	mtc0	zero,c0_count
80011ec4:	03c0e825 	move	sp,s8
80011ec8:	8fbf0014 	lw	ra,20(sp)
80011ecc:	8fbe0010 	lw	s8,16(sp)
80011ed0:	27bd0018 	addiu	sp,sp,24
80011ed4:	03e00008 	jr	ra
80011ed8:	00000000 	nop

80011edc <lock_create>:
80011edc:	27bdffe0 	addiu	sp,sp,-32
80011ee0:	afbf001c 	sw	ra,28(sp)
80011ee4:	afbe0018 	sw	s8,24(sp)
80011ee8:	03a0f025 	move	s8,sp
80011eec:	afc40020 	sw	a0,32(s8)
80011ef0:	24040018 	li	a0,24
80011ef4:	0c003abb 	jal	8000eaec <kmalloc>
80011ef8:	00000000 	nop
80011efc:	afc20010 	sw	v0,16(s8)
80011f00:	8fc20010 	lw	v0,16(s8)
80011f04:	14400004 	bnez	v0,80011f18 <lock_create+0x3c>
80011f08:	00000000 	nop
80011f0c:	00001025 	move	v0,zero
80011f10:	10000038 	b	80011ff4 <lock_create+0x118>
80011f14:	00000000 	nop
80011f18:	8fc40020 	lw	a0,32(s8)
80011f1c:	0c005edc 	jal	80017b70 <kernel_strdup>
80011f20:	00000000 	nop
80011f24:	00401825 	move	v1,v0
80011f28:	8fc20010 	lw	v0,16(s8)
80011f2c:	ac430000 	sw	v1,0(v0)
80011f30:	8fc20010 	lw	v0,16(s8)
80011f34:	8c420000 	lw	v0,0(v0)
80011f38:	14400007 	bnez	v0,80011f58 <lock_create+0x7c>
80011f3c:	00000000 	nop
80011f40:	8fc40010 	lw	a0,16(s8)
80011f44:	0c003b13 	jal	8000ec4c <kfree>
80011f48:	00000000 	nop
80011f4c:	00001025 	move	v0,zero
80011f50:	10000028 	b	80011ff4 <lock_create+0x118>
80011f54:	00000000 	nop
80011f58:	8fc20010 	lw	v0,16(s8)
80011f5c:	8c420000 	lw	v0,0(v0)
80011f60:	00402025 	move	a0,v0
80011f64:	0c004f30 	jal	80013cc0 <wchan_create>
80011f68:	00000000 	nop
80011f6c:	00401825 	move	v1,v0
80011f70:	8fc20010 	lw	v0,16(s8)
80011f74:	ac430004 	sw	v1,4(v0)
80011f78:	8fc20010 	lw	v0,16(s8)
80011f7c:	8c420004 	lw	v0,4(v0)
80011f80:	1440000c 	bnez	v0,80011fb4 <lock_create+0xd8>
80011f84:	00000000 	nop
80011f88:	8fc20010 	lw	v0,16(s8)
80011f8c:	8c420000 	lw	v0,0(v0)
80011f90:	00402025 	move	a0,v0
80011f94:	0c003b13 	jal	8000ec4c <kfree>
80011f98:	00000000 	nop
80011f9c:	8fc40010 	lw	a0,16(s8)
80011fa0:	0c003b13 	jal	8000ec4c <kfree>
80011fa4:	00000000 	nop
80011fa8:	00001025 	move	v0,zero
80011fac:	10000011 	b	80011ff4 <lock_create+0x118>
80011fb0:	00000000 	nop
80011fb4:	8fc20010 	lw	v0,16(s8)
80011fb8:	ac400014 	sw	zero,20(v0)
80011fbc:	8fc20010 	lw	v0,16(s8)
80011fc0:	24420008 	addiu	v0,v0,8
80011fc4:	00402025 	move	a0,v0
80011fc8:	0c002f2b 	jal	8000bcac <lockup>
80011fcc:	00000000 	nop
80011fd0:	14400007 	bnez	v0,80011ff0 <lock_create+0x114>
80011fd4:	00000000 	nop
80011fd8:	3c028002 	lui	v0,0x8002
80011fdc:	24449244 	addiu	a0,v0,-28092
80011fe0:	3c028002 	lui	v0,0x8002
80011fe4:	2445925c 	addiu	a1,v0,-28068
80011fe8:	0c005c3f 	jal	800170fc <badassert>
80011fec:	00000000 	nop
80011ff0:	8fc20010 	lw	v0,16(s8)
80011ff4:	03c0e825 	move	sp,s8
80011ff8:	8fbf001c 	lw	ra,28(sp)
80011ffc:	8fbe0018 	lw	s8,24(sp)
80012000:	27bd0020 	addiu	sp,sp,32
80012004:	03e00008 	jr	ra
80012008:	00000000 	nop

8001200c <lock_destroy>:
8001200c:	27bdffe8 	addiu	sp,sp,-24
80012010:	afbf0014 	sw	ra,20(sp)
80012014:	afbe0010 	sw	s8,16(sp)
80012018:	03a0f025 	move	s8,sp
8001201c:	afc40018 	sw	a0,24(s8)
80012020:	8fc20018 	lw	v0,24(s8)
80012024:	14400007 	bnez	v0,80012044 <lock_destroy+0x38>
80012028:	00000000 	nop
8001202c:	3c028002 	lui	v0,0x8002
80012030:	24449268 	addiu	a0,v0,-28056
80012034:	3c028002 	lui	v0,0x8002
80012038:	24459278 	addiu	a1,v0,-28040
8001203c:	0c005c3f 	jal	800170fc <badassert>
80012040:	00000000 	nop
80012044:	8fc20018 	lw	v0,24(s8)
80012048:	24420008 	addiu	v0,v0,8
8001204c:	00402025 	move	a0,v0
80012050:	0c002f16 	jal	8000bc58 <cleanup_lock>
80012054:	00000000 	nop
80012058:	8fc20018 	lw	v0,24(s8)
8001205c:	8c420004 	lw	v0,4(v0)
80012060:	10400006 	beqz	v0,8001207c <lock_destroy+0x70>
80012064:	00000000 	nop
80012068:	8fc20018 	lw	v0,24(s8)
8001206c:	8c420004 	lw	v0,4(v0)
80012070:	00402025 	move	a0,v0
80012074:	0c004f53 	jal	80013d4c <wchan_destroy>
80012078:	00000000 	nop
8001207c:	8fc20018 	lw	v0,24(s8)
80012080:	8c420000 	lw	v0,0(v0)
80012084:	00402025 	move	a0,v0
80012088:	0c003b13 	jal	8000ec4c <kfree>
8001208c:	00000000 	nop
80012090:	8fc40018 	lw	a0,24(s8)
80012094:	0c003b13 	jal	8000ec4c <kfree>
80012098:	00000000 	nop
8001209c:	03c0e825 	move	sp,s8
800120a0:	8fbf0014 	lw	ra,20(sp)
800120a4:	8fbe0010 	lw	s8,16(sp)
800120a8:	27bd0018 	addiu	sp,sp,24
800120ac:	03e00008 	jr	ra
800120b0:	00000000 	nop

800120b4 <lock_acquire>:
800120b4:	27bdffe8 	addiu	sp,sp,-24
800120b8:	afbf0014 	sw	ra,20(sp)
800120bc:	afbe0010 	sw	s8,16(sp)
800120c0:	03a0f025 	move	s8,sp
800120c4:	afc40018 	sw	a0,24(s8)
800120c8:	8fc20018 	lw	v0,24(s8)
800120cc:	14400007 	bnez	v0,800120ec <lock_acquire+0x38>
800120d0:	00000000 	nop
800120d4:	3c028002 	lui	v0,0x8002
800120d8:	24449268 	addiu	a0,v0,-28056
800120dc:	3c028002 	lui	v0,0x8002
800120e0:	24459278 	addiu	a1,v0,-28040
800120e4:	0c005c3f 	jal	800170fc <badassert>
800120e8:	00000000 	nop
800120ec:	8f828070 	lw	v0,-32656(gp)
800120f0:	9042001c 	lbu	v0,28(v0)
800120f4:	38420001 	xori	v0,v0,0x1
800120f8:	304200ff 	andi	v0,v0,0xff
800120fc:	14400007 	bnez	v0,8001211c <lock_acquire+0x68>
80012100:	00000000 	nop
80012104:	3c028002 	lui	v0,0x8002
80012108:	24449288 	addiu	a0,v0,-28024
8001210c:	3c028002 	lui	v0,0x8002
80012110:	244592ac 	addiu	a1,v0,-27988
80012114:	0c005c3f 	jal	800170fc <badassert>
80012118:	00000000 	nop
8001211c:	8fc20018 	lw	v0,24(s8)
80012120:	24420008 	addiu	v0,v0,8
80012124:	00402025 	move	a0,v0
80012128:	0c002f2b 	jal	8000bcac <lockup>
8001212c:	00000000 	nop
80012130:	00401825 	move	v1,v0
80012134:	24020001 	li	v0,1
80012138:	10620007 	beq	v1,v0,80012158 <lock_acquire+0xa4>
8001213c:	00000000 	nop
80012140:	3c028002 	lui	v0,0x8002
80012144:	244492d4 	addiu	a0,v0,-27948
80012148:	3c028002 	lui	v0,0x8002
8001214c:	2445925c 	addiu	a1,v0,-28068
80012150:	0c005c3f 	jal	800170fc <badassert>
80012154:	00000000 	nop
80012158:	8fc40018 	lw	a0,24(s8)
8001215c:	0c0048e1 	jal	80012384 <lock_do_i_hold>
80012160:	00000000 	nop
80012164:	38420001 	xori	v0,v0,0x1
80012168:	304200ff 	andi	v0,v0,0xff
8001216c:	14400007 	bnez	v0,8001218c <lock_acquire+0xd8>
80012170:	00000000 	nop
80012174:	3c028002 	lui	v0,0x8002
80012178:	244492f0 	addiu	a0,v0,-27920
8001217c:	3c028002 	lui	v0,0x8002
80012180:	24459308 	addiu	a1,v0,-27896
80012184:	0c005c3f 	jal	800170fc <badassert>
80012188:	00000000 	nop
8001218c:	10000024 	b	80012220 <lock_acquire+0x16c>
80012190:	00000000 	nop
80012194:	8fc20018 	lw	v0,24(s8)
80012198:	8c420004 	lw	v0,4(v0)
8001219c:	00402025 	move	a0,v0
800121a0:	0c004f6b 	jal	80013dac <wchan_lock>
800121a4:	00000000 	nop
800121a8:	8fc20018 	lw	v0,24(s8)
800121ac:	24420008 	addiu	v0,v0,8
800121b0:	00402025 	move	a0,v0
800121b4:	0c002f42 	jal	8000bd08 <unlock>
800121b8:	00000000 	nop
800121bc:	00401825 	move	v1,v0
800121c0:	24020001 	li	v0,1
800121c4:	10620007 	beq	v1,v0,800121e4 <lock_acquire+0x130>
800121c8:	00000000 	nop
800121cc:	3c028002 	lui	v0,0x8002
800121d0:	24449334 	addiu	a0,v0,-27852
800121d4:	3c028002 	lui	v0,0x8002
800121d8:	24459350 	addiu	a1,v0,-27824
800121dc:	0c005c3f 	jal	800170fc <badassert>
800121e0:	00000000 	nop
800121e4:	8fc20018 	lw	v0,24(s8)
800121e8:	24420008 	addiu	v0,v0,8
800121ec:	00402025 	move	a0,v0
800121f0:	0c002f2b 	jal	8000bcac <lockup>
800121f4:	00000000 	nop
800121f8:	00401825 	move	v1,v0
800121fc:	24020001 	li	v0,1
80012200:	10620007 	beq	v1,v0,80012220 <lock_acquire+0x16c>
80012204:	00000000 	nop
80012208:	3c028002 	lui	v0,0x8002
8001220c:	244492d4 	addiu	a0,v0,-27948
80012210:	3c028002 	lui	v0,0x8002
80012214:	2445925c 	addiu	a1,v0,-28068
80012218:	0c005c3f 	jal	800170fc <badassert>
8001221c:	00000000 	nop
80012220:	8fc20018 	lw	v0,24(s8)
80012224:	8c420014 	lw	v0,20(v0)
80012228:	1440ffda 	bnez	v0,80012194 <lock_acquire+0xe0>
8001222c:	00000000 	nop
80012230:	8fc20018 	lw	v0,24(s8)
80012234:	8c420014 	lw	v0,20(v0)
80012238:	10400007 	beqz	v0,80012258 <lock_acquire+0x1a4>
8001223c:	00000000 	nop
80012240:	3c028002 	lui	v0,0x8002
80012244:	24449360 	addiu	a0,v0,-27808
80012248:	3c028002 	lui	v0,0x8002
8001224c:	24459378 	addiu	a1,v0,-27784
80012250:	0c005c3f 	jal	800170fc <badassert>
80012254:	00000000 	nop
80012258:	8f838070 	lw	v1,-32656(gp)
8001225c:	8fc20018 	lw	v0,24(s8)
80012260:	ac430014 	sw	v1,20(v0)
80012264:	8fc20018 	lw	v0,24(s8)
80012268:	24420008 	addiu	v0,v0,8
8001226c:	00402025 	move	a0,v0
80012270:	0c002f42 	jal	8000bd08 <unlock>
80012274:	00000000 	nop
80012278:	14400007 	bnez	v0,80012298 <lock_acquire+0x1e4>
8001227c:	00000000 	nop
80012280:	3c028002 	lui	v0,0x8002
80012284:	244493a0 	addiu	a0,v0,-27744
80012288:	3c028002 	lui	v0,0x8002
8001228c:	24459350 	addiu	a1,v0,-27824
80012290:	0c005c3f 	jal	800170fc <badassert>
80012294:	00000000 	nop
80012298:	03c0e825 	move	sp,s8
8001229c:	8fbf0014 	lw	ra,20(sp)
800122a0:	8fbe0010 	lw	s8,16(sp)
800122a4:	27bd0018 	addiu	sp,sp,24
800122a8:	03e00008 	jr	ra
800122ac:	00000000 	nop

800122b0 <lock_release>:
800122b0:	27bdffe8 	addiu	sp,sp,-24
800122b4:	afbf0014 	sw	ra,20(sp)
800122b8:	afbe0010 	sw	s8,16(sp)
800122bc:	03a0f025 	move	s8,sp
800122c0:	afc40018 	sw	a0,24(s8)
800122c4:	8fc20018 	lw	v0,24(s8)
800122c8:	14400007 	bnez	v0,800122e8 <lock_release+0x38>
800122cc:	00000000 	nop
800122d0:	3c028002 	lui	v0,0x8002
800122d4:	24449268 	addiu	a0,v0,-28056
800122d8:	3c028002 	lui	v0,0x8002
800122dc:	24459278 	addiu	a1,v0,-28040
800122e0:	0c005c3f 	jal	800170fc <badassert>
800122e4:	00000000 	nop
800122e8:	8fc20018 	lw	v0,24(s8)
800122ec:	24420008 	addiu	v0,v0,8
800122f0:	00402025 	move	a0,v0
800122f4:	0c002f2b 	jal	8000bcac <lockup>
800122f8:	00000000 	nop
800122fc:	14400007 	bnez	v0,8001231c <lock_release+0x6c>
80012300:	00000000 	nop
80012304:	3c028002 	lui	v0,0x8002
80012308:	24449244 	addiu	a0,v0,-28092
8001230c:	3c028002 	lui	v0,0x8002
80012310:	2445925c 	addiu	a1,v0,-28068
80012314:	0c005c3f 	jal	800170fc <badassert>
80012318:	00000000 	nop
8001231c:	8fc20018 	lw	v0,24(s8)
80012320:	ac400014 	sw	zero,20(v0)
80012324:	8fc20018 	lw	v0,24(s8)
80012328:	8c420004 	lw	v0,4(v0)
8001232c:	00402025 	move	a0,v0
80012330:	0c004fba 	jal	80013ee8 <wchan_wakeone>
80012334:	00000000 	nop
80012338:	8fc20018 	lw	v0,24(s8)
8001233c:	24420008 	addiu	v0,v0,8
80012340:	00402025 	move	a0,v0
80012344:	0c002f42 	jal	8000bd08 <unlock>
80012348:	00000000 	nop
8001234c:	14400007 	bnez	v0,8001236c <lock_release+0xbc>
80012350:	00000000 	nop
80012354:	3c028002 	lui	v0,0x8002
80012358:	244493a0 	addiu	a0,v0,-27744
8001235c:	3c028002 	lui	v0,0x8002
80012360:	24459350 	addiu	a1,v0,-27824
80012364:	0c005c3f 	jal	800170fc <badassert>
80012368:	00000000 	nop
8001236c:	03c0e825 	move	sp,s8
80012370:	8fbf0014 	lw	ra,20(sp)
80012374:	8fbe0010 	lw	s8,16(sp)
80012378:	27bd0018 	addiu	sp,sp,24
8001237c:	03e00008 	jr	ra
80012380:	00000000 	nop

80012384 <lock_do_i_hold>:
80012384:	27bdfff8 	addiu	sp,sp,-8
80012388:	afbe0004 	sw	s8,4(sp)
8001238c:	03a0f025 	move	s8,sp
80012390:	afc40008 	sw	a0,8(s8)
80012394:	8fc20008 	lw	v0,8(s8)
80012398:	8c430014 	lw	v1,20(v0)
8001239c:	8f828070 	lw	v0,-32656(gp)
800123a0:	14620004 	bne	v1,v0,800123b4 <lock_do_i_hold+0x30>
800123a4:	00000000 	nop
800123a8:	24020001 	li	v0,1
800123ac:	10000002 	b	800123b8 <lock_do_i_hold+0x34>
800123b0:	00000000 	nop
800123b4:	00001025 	move	v0,zero
800123b8:	03c0e825 	move	sp,s8
800123bc:	8fbe0004 	lw	s8,4(sp)
800123c0:	27bd0008 	addiu	sp,sp,8
800123c4:	03e00008 	jr	ra
800123c8:	00000000 	nop

800123cc <threadlistnode_init>:
800123cc:	27bdffe8 	addiu	sp,sp,-24
800123d0:	afbf0014 	sw	ra,20(sp)
800123d4:	afbe0010 	sw	s8,16(sp)
800123d8:	03a0f025 	move	s8,sp
800123dc:	afc40018 	sw	a0,24(s8)
800123e0:	afc5001c 	sw	a1,28(s8)
800123e4:	8fc20018 	lw	v0,24(s8)
800123e8:	14400007 	bnez	v0,80012408 <threadlistnode_init+0x3c>
800123ec:	00000000 	nop
800123f0:	3c028002 	lui	v0,0x8002
800123f4:	244493b8 	addiu	a0,v0,-27720
800123f8:	3c028002 	lui	v0,0x8002
800123fc:	244593c4 	addiu	a1,v0,-27708
80012400:	0c005c3f 	jal	800170fc <badassert>
80012404:	00000000 	nop
80012408:	8fc2001c 	lw	v0,28(s8)
8001240c:	14400007 	bnez	v0,8001242c <threadlistnode_init+0x60>
80012410:	00000000 	nop
80012414:	3c028002 	lui	v0,0x8002
80012418:	244493f4 	addiu	a0,v0,-27660
8001241c:	3c028002 	lui	v0,0x8002
80012420:	24459400 	addiu	a1,v0,-27648
80012424:	0c005c3f 	jal	800170fc <badassert>
80012428:	00000000 	nop
8001242c:	8fc20018 	lw	v0,24(s8)
80012430:	ac400004 	sw	zero,4(v0)
80012434:	8fc20018 	lw	v0,24(s8)
80012438:	ac400000 	sw	zero,0(v0)
8001243c:	8fc20018 	lw	v0,24(s8)
80012440:	8fc3001c 	lw	v1,28(s8)
80012444:	ac430008 	sw	v1,8(v0)
80012448:	03c0e825 	move	sp,s8
8001244c:	8fbf0014 	lw	ra,20(sp)
80012450:	8fbe0010 	lw	s8,16(sp)
80012454:	27bd0018 	addiu	sp,sp,24
80012458:	03e00008 	jr	ra
8001245c:	00000000 	nop

80012460 <threadlistnode_cleanup>:
80012460:	27bdffe8 	addiu	sp,sp,-24
80012464:	afbf0014 	sw	ra,20(sp)
80012468:	afbe0010 	sw	s8,16(sp)
8001246c:	03a0f025 	move	s8,sp
80012470:	afc40018 	sw	a0,24(s8)
80012474:	8fc20018 	lw	v0,24(s8)
80012478:	14400007 	bnez	v0,80012498 <threadlistnode_cleanup+0x38>
8001247c:	00000000 	nop
80012480:	3c028002 	lui	v0,0x8002
80012484:	244493b8 	addiu	a0,v0,-27720
80012488:	3c028002 	lui	v0,0x8002
8001248c:	24459428 	addiu	a1,v0,-27608
80012490:	0c005c3f 	jal	800170fc <badassert>
80012494:	00000000 	nop
80012498:	8fc20018 	lw	v0,24(s8)
8001249c:	8c420004 	lw	v0,4(v0)
800124a0:	10400007 	beqz	v0,800124c0 <threadlistnode_cleanup+0x60>
800124a4:	00000000 	nop
800124a8:	3c028002 	lui	v0,0x8002
800124ac:	24449458 	addiu	a0,v0,-27560
800124b0:	3c028002 	lui	v0,0x8002
800124b4:	24459470 	addiu	a1,v0,-27536
800124b8:	0c005c3f 	jal	800170fc <badassert>
800124bc:	00000000 	nop
800124c0:	8fc20018 	lw	v0,24(s8)
800124c4:	8c420000 	lw	v0,0(v0)
800124c8:	10400007 	beqz	v0,800124e8 <threadlistnode_cleanup+0x88>
800124cc:	00000000 	nop
800124d0:	3c028002 	lui	v0,0x8002
800124d4:	24449494 	addiu	a0,v0,-27500
800124d8:	3c028002 	lui	v0,0x8002
800124dc:	244594ac 	addiu	a1,v0,-27476
800124e0:	0c005c3f 	jal	800170fc <badassert>
800124e4:	00000000 	nop
800124e8:	8fc20018 	lw	v0,24(s8)
800124ec:	8c420008 	lw	v0,8(v0)
800124f0:	14400007 	bnez	v0,80012510 <threadlistnode_cleanup+0xb0>
800124f4:	00000000 	nop
800124f8:	3c028002 	lui	v0,0x8002
800124fc:	244494d4 	addiu	a0,v0,-27436
80012500:	3c028002 	lui	v0,0x8002
80012504:	244594ec 	addiu	a1,v0,-27412
80012508:	0c005c3f 	jal	800170fc <badassert>
8001250c:	00000000 	nop
80012510:	03c0e825 	move	sp,s8
80012514:	8fbf0014 	lw	ra,20(sp)
80012518:	8fbe0010 	lw	s8,16(sp)
8001251c:	27bd0018 	addiu	sp,sp,24
80012520:	03e00008 	jr	ra
80012524:	00000000 	nop

80012528 <threadlist_init>:
80012528:	27bdffe8 	addiu	sp,sp,-24
8001252c:	afbf0014 	sw	ra,20(sp)
80012530:	afbe0010 	sw	s8,16(sp)
80012534:	03a0f025 	move	s8,sp
80012538:	afc40018 	sw	a0,24(s8)
8001253c:	8fc20018 	lw	v0,24(s8)
80012540:	14400007 	bnez	v0,80012560 <threadlist_init+0x38>
80012544:	00000000 	nop
80012548:	3c028002 	lui	v0,0x8002
8001254c:	24449518 	addiu	a0,v0,-27368
80012550:	3c028002 	lui	v0,0x8002
80012554:	24459524 	addiu	a1,v0,-27356
80012558:	0c005c3f 	jal	800170fc <badassert>
8001255c:	00000000 	nop
80012560:	8fc20018 	lw	v0,24(s8)
80012564:	2443000c 	addiu	v1,v0,12
80012568:	8fc20018 	lw	v0,24(s8)
8001256c:	ac430004 	sw	v1,4(v0)
80012570:	8fc20018 	lw	v0,24(s8)
80012574:	ac400000 	sw	zero,0(v0)
80012578:	8fc20018 	lw	v0,24(s8)
8001257c:	ac400010 	sw	zero,16(v0)
80012580:	8fc30018 	lw	v1,24(s8)
80012584:	8fc20018 	lw	v0,24(s8)
80012588:	ac43000c 	sw	v1,12(v0)
8001258c:	8fc20018 	lw	v0,24(s8)
80012590:	ac400008 	sw	zero,8(v0)
80012594:	8fc20018 	lw	v0,24(s8)
80012598:	ac400014 	sw	zero,20(v0)
8001259c:	8fc20018 	lw	v0,24(s8)
800125a0:	ac400018 	sw	zero,24(v0)
800125a4:	03c0e825 	move	sp,s8
800125a8:	8fbf0014 	lw	ra,20(sp)
800125ac:	8fbe0010 	lw	s8,16(sp)
800125b0:	27bd0018 	addiu	sp,sp,24
800125b4:	03e00008 	jr	ra
800125b8:	00000000 	nop

800125bc <threadlist_cleanup>:
800125bc:	27bdffe8 	addiu	sp,sp,-24
800125c0:	afbf0014 	sw	ra,20(sp)
800125c4:	afbe0010 	sw	s8,16(sp)
800125c8:	03a0f025 	move	s8,sp
800125cc:	afc40018 	sw	a0,24(s8)
800125d0:	8fc20018 	lw	v0,24(s8)
800125d4:	14400007 	bnez	v0,800125f4 <threadlist_cleanup+0x38>
800125d8:	00000000 	nop
800125dc:	3c028002 	lui	v0,0x8002
800125e0:	24449518 	addiu	a0,v0,-27368
800125e4:	3c028002 	lui	v0,0x8002
800125e8:	24459524 	addiu	a1,v0,-27356
800125ec:	0c005c3f 	jal	800170fc <badassert>
800125f0:	00000000 	nop
800125f4:	8fc20018 	lw	v0,24(s8)
800125f8:	8c430004 	lw	v1,4(v0)
800125fc:	8fc20018 	lw	v0,24(s8)
80012600:	2442000c 	addiu	v0,v0,12
80012604:	10620007 	beq	v1,v0,80012624 <threadlist_cleanup+0x68>
80012608:	00000000 	nop
8001260c:	3c028002 	lui	v0,0x8002
80012610:	24449538 	addiu	a0,v0,-27336
80012614:	3c028002 	lui	v0,0x8002
80012618:	24459560 	addiu	a1,v0,-27296
8001261c:	0c005c3f 	jal	800170fc <badassert>
80012620:	00000000 	nop
80012624:	8fc20018 	lw	v0,24(s8)
80012628:	8c420000 	lw	v0,0(v0)
8001262c:	10400007 	beqz	v0,8001264c <threadlist_cleanup+0x90>
80012630:	00000000 	nop
80012634:	3c028002 	lui	v0,0x8002
80012638:	24449584 	addiu	a0,v0,-27260
8001263c:	3c028002 	lui	v0,0x8002
80012640:	24459560 	addiu	a1,v0,-27296
80012644:	0c005c3f 	jal	800170fc <badassert>
80012648:	00000000 	nop
8001264c:	8fc20018 	lw	v0,24(s8)
80012650:	8c420010 	lw	v0,16(v0)
80012654:	10400007 	beqz	v0,80012674 <threadlist_cleanup+0xb8>
80012658:	00000000 	nop
8001265c:	3c028002 	lui	v0,0x8002
80012660:	244495a4 	addiu	a0,v0,-27228
80012664:	3c028002 	lui	v0,0x8002
80012668:	24459560 	addiu	a1,v0,-27296
8001266c:	0c005c3f 	jal	800170fc <badassert>
80012670:	00000000 	nop
80012674:	8fc20018 	lw	v0,24(s8)
80012678:	8c43000c 	lw	v1,12(v0)
8001267c:	8fc20018 	lw	v0,24(s8)
80012680:	10620007 	beq	v1,v0,800126a0 <threadlist_cleanup+0xe4>
80012684:	00000000 	nop
80012688:	3c028002 	lui	v0,0x8002
8001268c:	244495c4 	addiu	a0,v0,-27196
80012690:	3c028002 	lui	v0,0x8002
80012694:	24459560 	addiu	a1,v0,-27296
80012698:	0c005c3f 	jal	800170fc <badassert>
8001269c:	00000000 	nop
800126a0:	8fc20018 	lw	v0,24(s8)
800126a4:	8c420008 	lw	v0,8(v0)
800126a8:	10400007 	beqz	v0,800126c8 <threadlist_cleanup+0x10c>
800126ac:	00000000 	nop
800126b0:	3c028002 	lui	v0,0x8002
800126b4:	244495ec 	addiu	a0,v0,-27156
800126b8:	3c028002 	lui	v0,0x8002
800126bc:	24459560 	addiu	a1,v0,-27296
800126c0:	0c005c3f 	jal	800170fc <badassert>
800126c4:	00000000 	nop
800126c8:	8fc20018 	lw	v0,24(s8)
800126cc:	8c420014 	lw	v0,20(v0)
800126d0:	10400007 	beqz	v0,800126f0 <threadlist_cleanup+0x134>
800126d4:	00000000 	nop
800126d8:	3c028002 	lui	v0,0x8002
800126dc:	2444960c 	addiu	a0,v0,-27124
800126e0:	3c028002 	lui	v0,0x8002
800126e4:	24459560 	addiu	a1,v0,-27296
800126e8:	0c005c3f 	jal	800170fc <badassert>
800126ec:	00000000 	nop
800126f0:	8fc40018 	lw	a0,24(s8)
800126f4:	0c0049d7 	jal	8001275c <threadlist_isempty>
800126f8:	00000000 	nop
800126fc:	14400007 	bnez	v0,8001271c <threadlist_cleanup+0x160>
80012700:	00000000 	nop
80012704:	3c028002 	lui	v0,0x8002
80012708:	2444962c 	addiu	a0,v0,-27092
8001270c:	3c028002 	lui	v0,0x8002
80012710:	24459560 	addiu	a1,v0,-27296
80012714:	0c005c3f 	jal	800170fc <badassert>
80012718:	00000000 	nop
8001271c:	8fc20018 	lw	v0,24(s8)
80012720:	8c420018 	lw	v0,24(v0)
80012724:	10400007 	beqz	v0,80012744 <threadlist_cleanup+0x188>
80012728:	00000000 	nop
8001272c:	3c028002 	lui	v0,0x8002
80012730:	24449644 	addiu	a0,v0,-27068
80012734:	3c028002 	lui	v0,0x8002
80012738:	24459560 	addiu	a1,v0,-27296
8001273c:	0c005c3f 	jal	800170fc <badassert>
80012740:	00000000 	nop
80012744:	03c0e825 	move	sp,s8
80012748:	8fbf0014 	lw	ra,20(sp)
8001274c:	8fbe0010 	lw	s8,16(sp)
80012750:	27bd0018 	addiu	sp,sp,24
80012754:	03e00008 	jr	ra
80012758:	00000000 	nop

8001275c <threadlist_isempty>:
8001275c:	27bdffe8 	addiu	sp,sp,-24
80012760:	afbf0014 	sw	ra,20(sp)
80012764:	afbe0010 	sw	s8,16(sp)
80012768:	03a0f025 	move	s8,sp
8001276c:	afc40018 	sw	a0,24(s8)
80012770:	8fc20018 	lw	v0,24(s8)
80012774:	14400007 	bnez	v0,80012794 <threadlist_isempty+0x38>
80012778:	00000000 	nop
8001277c:	3c028002 	lui	v0,0x8002
80012780:	24449518 	addiu	a0,v0,-27368
80012784:	3c028002 	lui	v0,0x8002
80012788:	24459524 	addiu	a1,v0,-27356
8001278c:	0c005c3f 	jal	800170fc <badassert>
80012790:	00000000 	nop
80012794:	8fc20018 	lw	v0,24(s8)
80012798:	8c420018 	lw	v0,24(v0)
8001279c:	2c420001 	sltiu	v0,v0,1
800127a0:	304200ff 	andi	v0,v0,0xff
800127a4:	03c0e825 	move	sp,s8
800127a8:	8fbf0014 	lw	ra,20(sp)
800127ac:	8fbe0010 	lw	s8,16(sp)
800127b0:	27bd0018 	addiu	sp,sp,24
800127b4:	03e00008 	jr	ra
800127b8:	00000000 	nop

800127bc <threadlist_insertafternode>:
800127bc:	27bdffe0 	addiu	sp,sp,-32
800127c0:	afbf001c 	sw	ra,28(sp)
800127c4:	afbe0018 	sw	s8,24(sp)
800127c8:	03a0f025 	move	s8,sp
800127cc:	afc40020 	sw	a0,32(s8)
800127d0:	afc50024 	sw	a1,36(s8)
800127d4:	8fc20024 	lw	v0,36(s8)
800127d8:	2442000c 	addiu	v0,v0,12
800127dc:	afc20010 	sw	v0,16(s8)
800127e0:	8fc20010 	lw	v0,16(s8)
800127e4:	8c420000 	lw	v0,0(v0)
800127e8:	10400007 	beqz	v0,80012808 <threadlist_insertafternode+0x4c>
800127ec:	00000000 	nop
800127f0:	3c028002 	lui	v0,0x8002
800127f4:	24449658 	addiu	a0,v0,-27048
800127f8:	3c028002 	lui	v0,0x8002
800127fc:	24459670 	addiu	a1,v0,-27024
80012800:	0c005c3f 	jal	800170fc <badassert>
80012804:	00000000 	nop
80012808:	8fc20010 	lw	v0,16(s8)
8001280c:	8c420004 	lw	v0,4(v0)
80012810:	10400007 	beqz	v0,80012830 <threadlist_insertafternode+0x74>
80012814:	00000000 	nop
80012818:	3c028002 	lui	v0,0x8002
8001281c:	244496a0 	addiu	a0,v0,-26976
80012820:	3c028002 	lui	v0,0x8002
80012824:	24459670 	addiu	a1,v0,-27024
80012828:	0c005c3f 	jal	800170fc <badassert>
8001282c:	00000000 	nop
80012830:	8fc20010 	lw	v0,16(s8)
80012834:	8fc30020 	lw	v1,32(s8)
80012838:	ac430000 	sw	v1,0(v0)
8001283c:	8fc20020 	lw	v0,32(s8)
80012840:	8c430004 	lw	v1,4(v0)
80012844:	8fc20010 	lw	v0,16(s8)
80012848:	ac430004 	sw	v1,4(v0)
8001284c:	8fc20010 	lw	v0,16(s8)
80012850:	8c420000 	lw	v0,0(v0)
80012854:	8fc30010 	lw	v1,16(s8)
80012858:	ac430004 	sw	v1,4(v0)
8001285c:	8fc20010 	lw	v0,16(s8)
80012860:	8c420004 	lw	v0,4(v0)
80012864:	8fc30010 	lw	v1,16(s8)
80012868:	ac430000 	sw	v1,0(v0)
8001286c:	03c0e825 	move	sp,s8
80012870:	8fbf001c 	lw	ra,28(sp)
80012874:	8fbe0018 	lw	s8,24(sp)
80012878:	27bd0020 	addiu	sp,sp,32
8001287c:	03e00008 	jr	ra
80012880:	00000000 	nop

80012884 <threadlist_insertbeforenode>:
80012884:	27bdffe0 	addiu	sp,sp,-32
80012888:	afbf001c 	sw	ra,28(sp)
8001288c:	afbe0018 	sw	s8,24(sp)
80012890:	03a0f025 	move	s8,sp
80012894:	afc40020 	sw	a0,32(s8)
80012898:	afc50024 	sw	a1,36(s8)
8001289c:	8fc20020 	lw	v0,32(s8)
800128a0:	2442000c 	addiu	v0,v0,12
800128a4:	afc20010 	sw	v0,16(s8)
800128a8:	8fc20010 	lw	v0,16(s8)
800128ac:	8c420000 	lw	v0,0(v0)
800128b0:	10400007 	beqz	v0,800128d0 <threadlist_insertbeforenode+0x4c>
800128b4:	00000000 	nop
800128b8:	3c028002 	lui	v0,0x8002
800128bc:	24449658 	addiu	a0,v0,-27048
800128c0:	3c028002 	lui	v0,0x8002
800128c4:	244596b8 	addiu	a1,v0,-26952
800128c8:	0c005c3f 	jal	800170fc <badassert>
800128cc:	00000000 	nop
800128d0:	8fc20010 	lw	v0,16(s8)
800128d4:	8c420004 	lw	v0,4(v0)
800128d8:	10400007 	beqz	v0,800128f8 <threadlist_insertbeforenode+0x74>
800128dc:	00000000 	nop
800128e0:	3c028002 	lui	v0,0x8002
800128e4:	244496a0 	addiu	a0,v0,-26976
800128e8:	3c028002 	lui	v0,0x8002
800128ec:	244596b8 	addiu	a1,v0,-26952
800128f0:	0c005c3f 	jal	800170fc <badassert>
800128f4:	00000000 	nop
800128f8:	8fc20024 	lw	v0,36(s8)
800128fc:	8c430000 	lw	v1,0(v0)
80012900:	8fc20010 	lw	v0,16(s8)
80012904:	ac430000 	sw	v1,0(v0)
80012908:	8fc20010 	lw	v0,16(s8)
8001290c:	8fc30024 	lw	v1,36(s8)
80012910:	ac430004 	sw	v1,4(v0)
80012914:	8fc20010 	lw	v0,16(s8)
80012918:	8c420000 	lw	v0,0(v0)
8001291c:	8fc30010 	lw	v1,16(s8)
80012920:	ac430004 	sw	v1,4(v0)
80012924:	8fc20010 	lw	v0,16(s8)
80012928:	8c420004 	lw	v0,4(v0)
8001292c:	8fc30010 	lw	v1,16(s8)
80012930:	ac430000 	sw	v1,0(v0)
80012934:	03c0e825 	move	sp,s8
80012938:	8fbf001c 	lw	ra,28(sp)
8001293c:	8fbe0018 	lw	s8,24(sp)
80012940:	27bd0020 	addiu	sp,sp,32
80012944:	03e00008 	jr	ra
80012948:	00000000 	nop

8001294c <threadlist_removenode>:
8001294c:	27bdffe8 	addiu	sp,sp,-24
80012950:	afbf0014 	sw	ra,20(sp)
80012954:	afbe0010 	sw	s8,16(sp)
80012958:	03a0f025 	move	s8,sp
8001295c:	afc40018 	sw	a0,24(s8)
80012960:	8fc20018 	lw	v0,24(s8)
80012964:	14400007 	bnez	v0,80012984 <threadlist_removenode+0x38>
80012968:	00000000 	nop
8001296c:	3c028002 	lui	v0,0x8002
80012970:	244493b8 	addiu	a0,v0,-27720
80012974:	3c028002 	lui	v0,0x8002
80012978:	244596e0 	addiu	a1,v0,-26912
8001297c:	0c005c3f 	jal	800170fc <badassert>
80012980:	00000000 	nop
80012984:	8fc20018 	lw	v0,24(s8)
80012988:	8c420000 	lw	v0,0(v0)
8001298c:	14400007 	bnez	v0,800129ac <threadlist_removenode+0x60>
80012990:	00000000 	nop
80012994:	3c028002 	lui	v0,0x8002
80012998:	24449700 	addiu	a0,v0,-26880
8001299c:	3c028002 	lui	v0,0x8002
800129a0:	24459718 	addiu	a1,v0,-26856
800129a4:	0c005c3f 	jal	800170fc <badassert>
800129a8:	00000000 	nop
800129ac:	8fc20018 	lw	v0,24(s8)
800129b0:	8c420004 	lw	v0,4(v0)
800129b4:	14400007 	bnez	v0,800129d4 <threadlist_removenode+0x88>
800129b8:	00000000 	nop
800129bc:	3c028002 	lui	v0,0x8002
800129c0:	24449744 	addiu	a0,v0,-26812
800129c4:	3c028002 	lui	v0,0x8002
800129c8:	24459718 	addiu	a1,v0,-26856
800129cc:	0c005c3f 	jal	800170fc <badassert>
800129d0:	00000000 	nop
800129d4:	8fc20018 	lw	v0,24(s8)
800129d8:	8c420000 	lw	v0,0(v0)
800129dc:	8fc30018 	lw	v1,24(s8)
800129e0:	8c630004 	lw	v1,4(v1)
800129e4:	ac430004 	sw	v1,4(v0)
800129e8:	8fc20018 	lw	v0,24(s8)
800129ec:	8c420004 	lw	v0,4(v0)
800129f0:	8fc30018 	lw	v1,24(s8)
800129f4:	8c630000 	lw	v1,0(v1)
800129f8:	ac430000 	sw	v1,0(v0)
800129fc:	8fc20018 	lw	v0,24(s8)
80012a00:	ac400000 	sw	zero,0(v0)
80012a04:	8fc20018 	lw	v0,24(s8)
80012a08:	ac400004 	sw	zero,4(v0)
80012a0c:	03c0e825 	move	sp,s8
80012a10:	8fbf0014 	lw	ra,20(sp)
80012a14:	8fbe0010 	lw	s8,16(sp)
80012a18:	27bd0018 	addiu	sp,sp,24
80012a1c:	03e00008 	jr	ra
80012a20:	00000000 	nop

80012a24 <threadlist_addhead>:
80012a24:	27bdffe8 	addiu	sp,sp,-24
80012a28:	afbf0014 	sw	ra,20(sp)
80012a2c:	afbe0010 	sw	s8,16(sp)
80012a30:	03a0f025 	move	s8,sp
80012a34:	afc40018 	sw	a0,24(s8)
80012a38:	afc5001c 	sw	a1,28(s8)
80012a3c:	8fc20018 	lw	v0,24(s8)
80012a40:	14400007 	bnez	v0,80012a60 <threadlist_addhead+0x3c>
80012a44:	00000000 	nop
80012a48:	3c028002 	lui	v0,0x8002
80012a4c:	24449518 	addiu	a0,v0,-27368
80012a50:	3c028002 	lui	v0,0x8002
80012a54:	24459524 	addiu	a1,v0,-27356
80012a58:	0c005c3f 	jal	800170fc <badassert>
80012a5c:	00000000 	nop
80012a60:	8fc2001c 	lw	v0,28(s8)
80012a64:	14400007 	bnez	v0,80012a84 <threadlist_addhead+0x60>
80012a68:	00000000 	nop
80012a6c:	3c028002 	lui	v0,0x8002
80012a70:	244493f4 	addiu	a0,v0,-27660
80012a74:	3c028002 	lui	v0,0x8002
80012a78:	2445975c 	addiu	a1,v0,-26788
80012a7c:	0c005c3f 	jal	800170fc <badassert>
80012a80:	00000000 	nop
80012a84:	8fc20018 	lw	v0,24(s8)
80012a88:	00402025 	move	a0,v0
80012a8c:	8fc5001c 	lw	a1,28(s8)
80012a90:	0c0049ef 	jal	800127bc <threadlist_insertafternode>
80012a94:	00000000 	nop
80012a98:	8fc20018 	lw	v0,24(s8)
80012a9c:	8c420018 	lw	v0,24(v0)
80012aa0:	24430001 	addiu	v1,v0,1
80012aa4:	8fc20018 	lw	v0,24(s8)
80012aa8:	ac430018 	sw	v1,24(v0)
80012aac:	03c0e825 	move	sp,s8
80012ab0:	8fbf0014 	lw	ra,20(sp)
80012ab4:	8fbe0010 	lw	s8,16(sp)
80012ab8:	27bd0018 	addiu	sp,sp,24
80012abc:	03e00008 	jr	ra
80012ac0:	00000000 	nop

80012ac4 <threadlist_addtail>:
80012ac4:	27bdffe8 	addiu	sp,sp,-24
80012ac8:	afbf0014 	sw	ra,20(sp)
80012acc:	afbe0010 	sw	s8,16(sp)
80012ad0:	03a0f025 	move	s8,sp
80012ad4:	afc40018 	sw	a0,24(s8)
80012ad8:	afc5001c 	sw	a1,28(s8)
80012adc:	8fc20018 	lw	v0,24(s8)
80012ae0:	14400007 	bnez	v0,80012b00 <threadlist_addtail+0x3c>
80012ae4:	00000000 	nop
80012ae8:	3c028002 	lui	v0,0x8002
80012aec:	24449518 	addiu	a0,v0,-27368
80012af0:	3c028002 	lui	v0,0x8002
80012af4:	24459524 	addiu	a1,v0,-27356
80012af8:	0c005c3f 	jal	800170fc <badassert>
80012afc:	00000000 	nop
80012b00:	8fc2001c 	lw	v0,28(s8)
80012b04:	14400007 	bnez	v0,80012b24 <threadlist_addtail+0x60>
80012b08:	00000000 	nop
80012b0c:	3c028002 	lui	v0,0x8002
80012b10:	244493f4 	addiu	a0,v0,-27660
80012b14:	3c028002 	lui	v0,0x8002
80012b18:	2445975c 	addiu	a1,v0,-26788
80012b1c:	0c005c3f 	jal	800170fc <badassert>
80012b20:	00000000 	nop
80012b24:	8fc20018 	lw	v0,24(s8)
80012b28:	2442000c 	addiu	v0,v0,12
80012b2c:	8fc4001c 	lw	a0,28(s8)
80012b30:	00402825 	move	a1,v0
80012b34:	0c004a21 	jal	80012884 <threadlist_insertbeforenode>
80012b38:	00000000 	nop
80012b3c:	8fc20018 	lw	v0,24(s8)
80012b40:	8c420018 	lw	v0,24(v0)
80012b44:	24430001 	addiu	v1,v0,1
80012b48:	8fc20018 	lw	v0,24(s8)
80012b4c:	ac430018 	sw	v1,24(v0)
80012b50:	03c0e825 	move	sp,s8
80012b54:	8fbf0014 	lw	ra,20(sp)
80012b58:	8fbe0010 	lw	s8,16(sp)
80012b5c:	27bd0018 	addiu	sp,sp,24
80012b60:	03e00008 	jr	ra
80012b64:	00000000 	nop

80012b68 <threadlist_remhead>:
80012b68:	27bdffe0 	addiu	sp,sp,-32
80012b6c:	afbf001c 	sw	ra,28(sp)
80012b70:	afbe0018 	sw	s8,24(sp)
80012b74:	03a0f025 	move	s8,sp
80012b78:	afc40020 	sw	a0,32(s8)
80012b7c:	8fc20020 	lw	v0,32(s8)
80012b80:	14400007 	bnez	v0,80012ba0 <threadlist_remhead+0x38>
80012b84:	00000000 	nop
80012b88:	3c028002 	lui	v0,0x8002
80012b8c:	24449518 	addiu	a0,v0,-27368
80012b90:	3c028002 	lui	v0,0x8002
80012b94:	24459524 	addiu	a1,v0,-27356
80012b98:	0c005c3f 	jal	800170fc <badassert>
80012b9c:	00000000 	nop
80012ba0:	8fc20020 	lw	v0,32(s8)
80012ba4:	8c420004 	lw	v0,4(v0)
80012ba8:	afc20010 	sw	v0,16(s8)
80012bac:	8fc20010 	lw	v0,16(s8)
80012bb0:	8c420004 	lw	v0,4(v0)
80012bb4:	14400004 	bnez	v0,80012bc8 <threadlist_remhead+0x60>
80012bb8:	00000000 	nop
80012bbc:	00001025 	move	v0,zero
80012bc0:	10000015 	b	80012c18 <threadlist_remhead+0xb0>
80012bc4:	00000000 	nop
80012bc8:	8fc40010 	lw	a0,16(s8)
80012bcc:	0c004a53 	jal	8001294c <threadlist_removenode>
80012bd0:	00000000 	nop
80012bd4:	8fc20020 	lw	v0,32(s8)
80012bd8:	8c420018 	lw	v0,24(v0)
80012bdc:	14400007 	bnez	v0,80012bfc <threadlist_remhead+0x94>
80012be0:	00000000 	nop
80012be4:	3c028002 	lui	v0,0x8002
80012be8:	24449770 	addiu	a0,v0,-26768
80012bec:	3c028002 	lui	v0,0x8002
80012bf0:	24459784 	addiu	a1,v0,-26748
80012bf4:	0c005c3f 	jal	800170fc <badassert>
80012bf8:	00000000 	nop
80012bfc:	8fc20020 	lw	v0,32(s8)
80012c00:	8c420018 	lw	v0,24(v0)
80012c04:	2443ffff 	addiu	v1,v0,-1
80012c08:	8fc20020 	lw	v0,32(s8)
80012c0c:	ac430018 	sw	v1,24(v0)
80012c10:	8fc20010 	lw	v0,16(s8)
80012c14:	8c420008 	lw	v0,8(v0)
80012c18:	03c0e825 	move	sp,s8
80012c1c:	8fbf001c 	lw	ra,28(sp)
80012c20:	8fbe0018 	lw	s8,24(sp)
80012c24:	27bd0020 	addiu	sp,sp,32
80012c28:	03e00008 	jr	ra
80012c2c:	00000000 	nop

80012c30 <threadlist_remtail>:
80012c30:	27bdffe0 	addiu	sp,sp,-32
80012c34:	afbf001c 	sw	ra,28(sp)
80012c38:	afbe0018 	sw	s8,24(sp)
80012c3c:	03a0f025 	move	s8,sp
80012c40:	afc40020 	sw	a0,32(s8)
80012c44:	8fc20020 	lw	v0,32(s8)
80012c48:	14400007 	bnez	v0,80012c68 <threadlist_remtail+0x38>
80012c4c:	00000000 	nop
80012c50:	3c028002 	lui	v0,0x8002
80012c54:	24449518 	addiu	a0,v0,-27368
80012c58:	3c028002 	lui	v0,0x8002
80012c5c:	24459524 	addiu	a1,v0,-27356
80012c60:	0c005c3f 	jal	800170fc <badassert>
80012c64:	00000000 	nop
80012c68:	8fc20020 	lw	v0,32(s8)
80012c6c:	8c42000c 	lw	v0,12(v0)
80012c70:	afc20010 	sw	v0,16(s8)
80012c74:	8fc20010 	lw	v0,16(s8)
80012c78:	8c420000 	lw	v0,0(v0)
80012c7c:	14400004 	bnez	v0,80012c90 <threadlist_remtail+0x60>
80012c80:	00000000 	nop
80012c84:	00001025 	move	v0,zero
80012c88:	10000015 	b	80012ce0 <threadlist_remtail+0xb0>
80012c8c:	00000000 	nop
80012c90:	8fc40010 	lw	a0,16(s8)
80012c94:	0c004a53 	jal	8001294c <threadlist_removenode>
80012c98:	00000000 	nop
80012c9c:	8fc20020 	lw	v0,32(s8)
80012ca0:	8c420018 	lw	v0,24(v0)
80012ca4:	14400007 	bnez	v0,80012cc4 <threadlist_remtail+0x94>
80012ca8:	00000000 	nop
80012cac:	3c028002 	lui	v0,0x8002
80012cb0:	24449770 	addiu	a0,v0,-26768
80012cb4:	3c028002 	lui	v0,0x8002
80012cb8:	24459784 	addiu	a1,v0,-26748
80012cbc:	0c005c3f 	jal	800170fc <badassert>
80012cc0:	00000000 	nop
80012cc4:	8fc20020 	lw	v0,32(s8)
80012cc8:	8c420018 	lw	v0,24(v0)
80012ccc:	2443ffff 	addiu	v1,v0,-1
80012cd0:	8fc20020 	lw	v0,32(s8)
80012cd4:	ac430018 	sw	v1,24(v0)
80012cd8:	8fc20010 	lw	v0,16(s8)
80012cdc:	8c420008 	lw	v0,8(v0)
80012ce0:	03c0e825 	move	sp,s8
80012ce4:	8fbf001c 	lw	ra,28(sp)
80012ce8:	8fbe0018 	lw	s8,24(sp)
80012cec:	27bd0020 	addiu	sp,sp,32
80012cf0:	03e00008 	jr	ra
80012cf4:	00000000 	nop

80012cf8 <threadlist_insertafter>:
80012cf8:	27bdffe8 	addiu	sp,sp,-24
80012cfc:	afbf0014 	sw	ra,20(sp)
80012d00:	afbe0010 	sw	s8,16(sp)
80012d04:	03a0f025 	move	s8,sp
80012d08:	afc40018 	sw	a0,24(s8)
80012d0c:	afc5001c 	sw	a1,28(s8)
80012d10:	afc60020 	sw	a2,32(s8)
80012d14:	8fc2001c 	lw	v0,28(s8)
80012d18:	2442000c 	addiu	v0,v0,12
80012d1c:	00402025 	move	a0,v0
80012d20:	8fc50020 	lw	a1,32(s8)
80012d24:	0c0049ef 	jal	800127bc <threadlist_insertafternode>
80012d28:	00000000 	nop
80012d2c:	8fc20018 	lw	v0,24(s8)
80012d30:	8c420018 	lw	v0,24(v0)
80012d34:	24430001 	addiu	v1,v0,1
80012d38:	8fc20018 	lw	v0,24(s8)
80012d3c:	ac430018 	sw	v1,24(v0)
80012d40:	03c0e825 	move	sp,s8
80012d44:	8fbf0014 	lw	ra,20(sp)
80012d48:	8fbe0010 	lw	s8,16(sp)
80012d4c:	27bd0018 	addiu	sp,sp,24
80012d50:	03e00008 	jr	ra
80012d54:	00000000 	nop

80012d58 <threadlist_insertbefore>:
80012d58:	27bdffe8 	addiu	sp,sp,-24
80012d5c:	afbf0014 	sw	ra,20(sp)
80012d60:	afbe0010 	sw	s8,16(sp)
80012d64:	03a0f025 	move	s8,sp
80012d68:	afc40018 	sw	a0,24(s8)
80012d6c:	afc5001c 	sw	a1,28(s8)
80012d70:	afc60020 	sw	a2,32(s8)
80012d74:	8fc20020 	lw	v0,32(s8)
80012d78:	2442000c 	addiu	v0,v0,12
80012d7c:	8fc4001c 	lw	a0,28(s8)
80012d80:	00402825 	move	a1,v0
80012d84:	0c004a21 	jal	80012884 <threadlist_insertbeforenode>
80012d88:	00000000 	nop
80012d8c:	8fc20018 	lw	v0,24(s8)
80012d90:	8c420018 	lw	v0,24(v0)
80012d94:	24430001 	addiu	v1,v0,1
80012d98:	8fc20018 	lw	v0,24(s8)
80012d9c:	ac430018 	sw	v1,24(v0)
80012da0:	03c0e825 	move	sp,s8
80012da4:	8fbf0014 	lw	ra,20(sp)
80012da8:	8fbe0010 	lw	s8,16(sp)
80012dac:	27bd0018 	addiu	sp,sp,24
80012db0:	03e00008 	jr	ra
80012db4:	00000000 	nop

80012db8 <threadlist_remove>:
80012db8:	27bdffe8 	addiu	sp,sp,-24
80012dbc:	afbf0014 	sw	ra,20(sp)
80012dc0:	afbe0010 	sw	s8,16(sp)
80012dc4:	03a0f025 	move	s8,sp
80012dc8:	afc40018 	sw	a0,24(s8)
80012dcc:	afc5001c 	sw	a1,28(s8)
80012dd0:	8fc2001c 	lw	v0,28(s8)
80012dd4:	2442000c 	addiu	v0,v0,12
80012dd8:	00402025 	move	a0,v0
80012ddc:	0c004a53 	jal	8001294c <threadlist_removenode>
80012de0:	00000000 	nop
80012de4:	8fc20018 	lw	v0,24(s8)
80012de8:	8c420018 	lw	v0,24(v0)
80012dec:	14400007 	bnez	v0,80012e0c <threadlist_remove+0x54>
80012df0:	00000000 	nop
80012df4:	3c028002 	lui	v0,0x8002
80012df8:	24449770 	addiu	a0,v0,-26768
80012dfc:	3c028002 	lui	v0,0x8002
80012e00:	24459784 	addiu	a1,v0,-26748
80012e04:	0c005c3f 	jal	800170fc <badassert>
80012e08:	00000000 	nop
80012e0c:	8fc20018 	lw	v0,24(s8)
80012e10:	8c420018 	lw	v0,24(v0)
80012e14:	2443ffff 	addiu	v1,v0,-1
80012e18:	8fc20018 	lw	v0,24(s8)
80012e1c:	ac430018 	sw	v1,24(v0)
80012e20:	03c0e825 	move	sp,s8
80012e24:	8fbf0014 	lw	ra,20(sp)
80012e28:	8fbe0010 	lw	s8,16(sp)
80012e2c:	27bd0018 	addiu	sp,sp,24
80012e30:	03e00008 	jr	ra
80012e34:	00000000 	nop

80012e38 <__list_add>:
80012e38:	27bdfff8 	addiu	sp,sp,-8
80012e3c:	afbe0004 	sw	s8,4(sp)
80012e40:	03a0f025 	move	s8,sp
80012e44:	afc40008 	sw	a0,8(s8)
80012e48:	afc5000c 	sw	a1,12(s8)
80012e4c:	afc60010 	sw	a2,16(s8)
80012e50:	8fc20008 	lw	v0,8(s8)
80012e54:	8fc30010 	lw	v1,16(s8)
80012e58:	ac430004 	sw	v1,4(v0)
80012e5c:	8fc20008 	lw	v0,8(s8)
80012e60:	8fc3000c 	lw	v1,12(s8)
80012e64:	ac430000 	sw	v1,0(v0)
80012e68:	8fc2000c 	lw	v0,12(s8)
80012e6c:	8fc30008 	lw	v1,8(s8)
80012e70:	ac430004 	sw	v1,4(v0)
80012e74:	8fc20010 	lw	v0,16(s8)
80012e78:	8fc30008 	lw	v1,8(s8)
80012e7c:	ac430000 	sw	v1,0(v0)
80012e80:	03c0e825 	move	sp,s8
80012e84:	8fbe0004 	lw	s8,4(sp)
80012e88:	27bd0008 	addiu	sp,sp,8
80012e8c:	03e00008 	jr	ra
80012e90:	00000000 	nop

80012e94 <list_add>:
80012e94:	27bdffe8 	addiu	sp,sp,-24
80012e98:	afbf0014 	sw	ra,20(sp)
80012e9c:	afbe0010 	sw	s8,16(sp)
80012ea0:	03a0f025 	move	s8,sp
80012ea4:	afc40018 	sw	a0,24(s8)
80012ea8:	afc5001c 	sw	a1,28(s8)
80012eac:	8fc2001c 	lw	v0,28(s8)
80012eb0:	8c420004 	lw	v0,4(v0)
80012eb4:	8fc40018 	lw	a0,24(s8)
80012eb8:	8fc5001c 	lw	a1,28(s8)
80012ebc:	00403025 	move	a2,v0
80012ec0:	0c004b8e 	jal	80012e38 <__list_add>
80012ec4:	00000000 	nop
80012ec8:	03c0e825 	move	sp,s8
80012ecc:	8fbf0014 	lw	ra,20(sp)
80012ed0:	8fbe0010 	lw	s8,16(sp)
80012ed4:	27bd0018 	addiu	sp,sp,24
80012ed8:	03e00008 	jr	ra
80012edc:	00000000 	nop

80012ee0 <list_add_tail>:
80012ee0:	27bdffe8 	addiu	sp,sp,-24
80012ee4:	afbf0014 	sw	ra,20(sp)
80012ee8:	afbe0010 	sw	s8,16(sp)
80012eec:	03a0f025 	move	s8,sp
80012ef0:	afc40018 	sw	a0,24(s8)
80012ef4:	afc5001c 	sw	a1,28(s8)
80012ef8:	8fc2001c 	lw	v0,28(s8)
80012efc:	8c420000 	lw	v0,0(v0)
80012f00:	8fc40018 	lw	a0,24(s8)
80012f04:	00402825 	move	a1,v0
80012f08:	8fc6001c 	lw	a2,28(s8)
80012f0c:	0c004b8e 	jal	80012e38 <__list_add>
80012f10:	00000000 	nop
80012f14:	03c0e825 	move	sp,s8
80012f18:	8fbf0014 	lw	ra,20(sp)
80012f1c:	8fbe0010 	lw	s8,16(sp)
80012f20:	27bd0018 	addiu	sp,sp,24
80012f24:	03e00008 	jr	ra
80012f28:	00000000 	nop

80012f2c <__list_del>:
80012f2c:	27bdfff8 	addiu	sp,sp,-8
80012f30:	afbe0004 	sw	s8,4(sp)
80012f34:	03a0f025 	move	s8,sp
80012f38:	afc40008 	sw	a0,8(s8)
80012f3c:	afc5000c 	sw	a1,12(s8)
80012f40:	8fc20008 	lw	v0,8(s8)
80012f44:	8fc3000c 	lw	v1,12(s8)
80012f48:	ac430004 	sw	v1,4(v0)
80012f4c:	8fc2000c 	lw	v0,12(s8)
80012f50:	8fc30008 	lw	v1,8(s8)
80012f54:	ac430000 	sw	v1,0(v0)
80012f58:	03c0e825 	move	sp,s8
80012f5c:	8fbe0004 	lw	s8,4(sp)
80012f60:	27bd0008 	addiu	sp,sp,8
80012f64:	03e00008 	jr	ra
80012f68:	00000000 	nop

80012f6c <list_del>:
80012f6c:	27bdffe8 	addiu	sp,sp,-24
80012f70:	afbf0014 	sw	ra,20(sp)
80012f74:	afbe0010 	sw	s8,16(sp)
80012f78:	03a0f025 	move	s8,sp
80012f7c:	afc40018 	sw	a0,24(s8)
80012f80:	8fc20018 	lw	v0,24(s8)
80012f84:	8c430000 	lw	v1,0(v0)
80012f88:	8fc20018 	lw	v0,24(s8)
80012f8c:	8c420004 	lw	v0,4(v0)
80012f90:	00602025 	move	a0,v1
80012f94:	00402825 	move	a1,v0
80012f98:	0c004bcb 	jal	80012f2c <__list_del>
80012f9c:	00000000 	nop
80012fa0:	8fc20018 	lw	v0,24(s8)
80012fa4:	3c031010 	lui	v1,0x1010
80012fa8:	34631010 	ori	v1,v1,0x1010
80012fac:	ac430000 	sw	v1,0(v0)
80012fb0:	8fc20018 	lw	v0,24(s8)
80012fb4:	3c032020 	lui	v1,0x2020
80012fb8:	34632020 	ori	v1,v1,0x2020
80012fbc:	ac430004 	sw	v1,4(v0)
80012fc0:	03c0e825 	move	sp,s8
80012fc4:	8fbf0014 	lw	ra,20(sp)
80012fc8:	8fbe0010 	lw	s8,16(sp)
80012fcc:	27bd0018 	addiu	sp,sp,24
80012fd0:	03e00008 	jr	ra
80012fd4:	00000000 	nop

80012fd8 <create_process>:
80012fd8:	27bdffe0 	addiu	sp,sp,-32
80012fdc:	afbf001c 	sw	ra,28(sp)
80012fe0:	afbe0018 	sw	s8,24(sp)
80012fe4:	03a0f025 	move	s8,sp
80012fe8:	afc40020 	sw	a0,32(s8)
80012fec:	afc50024 	sw	a1,36(s8)
80012ff0:	afc60028 	sw	a2,40(s8)
80012ff4:	afc7002c 	sw	a3,44(s8)
80012ff8:	8fc2002c 	lw	v0,44(s8)
80012ffc:	8fc40020 	lw	a0,32(s8)
80013000:	00402825 	move	a1,v0
80013004:	00003025 	move	a2,zero
80013008:	0c0040d5 	jal	80010354 <create_kthread>
8001300c:	00000000 	nop
80013010:	afc20010 	sw	v0,16(s8)
80013014:	8fc20010 	lw	v0,16(s8)
80013018:	3c038000 	lui	v1,0x8000
8001301c:	ac430074 	sw	v1,116(v0)
80013020:	3c038002 	lui	v1,0x8002
80013024:	24632900 	addiu	v1,v1,10496
80013028:	8fc20010 	lw	v0,16(s8)
8001302c:	ac430070 	sw	v1,112(v0)
80013030:	8fc20010 	lw	v0,16(s8)
80013034:	ac400000 	sw	zero,0(v0)
80013038:	8fc20010 	lw	v0,16(s8)
8001303c:	24431000 	addiu	v1,v0,4096
80013040:	8fc20010 	lw	v0,16(s8)
80013044:	ac430080 	sw	v1,128(v0)
80013048:	8fc20010 	lw	v0,16(s8)
8001304c:	ac4000b0 	sw	zero,176(v0)
80013050:	24041000 	li	a0,4096
80013054:	0c003abb 	jal	8000eaec <kmalloc>
80013058:	00000000 	nop
8001305c:	00401825 	move	v1,v0
80013060:	8fc20010 	lw	v0,16(s8)
80013064:	ac4300b4 	sw	v1,180(v0)
80013068:	8fc20010 	lw	v0,16(s8)
8001306c:	8c4300b4 	lw	v1,180(v0)
80013070:	3c028002 	lui	v0,0x8002
80013074:	244497ac 	addiu	a0,v0,-26708
80013078:	00602825 	move	a1,v1
8001307c:	0c000aaa 	jal	80002aa8 <kernel_printf>
80013080:	00000000 	nop
80013084:	8fc20010 	lw	v0,16(s8)
80013088:	8c4200b4 	lw	v0,180(v0)
8001308c:	00402025 	move	a0,v0
80013090:	0c004c5f 	jal	8001317c <clearpage>
80013094:	00000000 	nop
80013098:	8fc20010 	lw	v0,16(s8)
8001309c:	244300b8 	addiu	v1,v0,184
800130a0:	8fc20010 	lw	v0,16(s8)
800130a4:	ac4300bc 	sw	v1,188(v0)
800130a8:	8fc20010 	lw	v0,16(s8)
800130ac:	244300b8 	addiu	v1,v0,184
800130b0:	8fc20010 	lw	v0,16(s8)
800130b4:	ac4300b8 	sw	v1,184(v0)
800130b8:	8fc20010 	lw	v0,16(s8)
800130bc:	244200b8 	addiu	v0,v0,184
800130c0:	00402025 	move	a0,v0
800130c4:	8fc50024 	lw	a1,36(s8)
800130c8:	8fc60028 	lw	a2,40(s8)
800130cc:	0c004c6f 	jal	800131bc <add_code_vma>
800130d0:	00000000 	nop
800130d4:	24041000 	li	a0,4096
800130d8:	0c003abb 	jal	8000eaec <kmalloc>
800130dc:	00000000 	nop
800130e0:	00401825 	move	v1,v0
800130e4:	8fc20010 	lw	v0,16(s8)
800130e8:	ac430084 	sw	v1,132(v0)
800130ec:	8fc20010 	lw	v0,16(s8)
800130f0:	244300b8 	addiu	v1,v0,184
800130f4:	8fc20010 	lw	v0,16(s8)
800130f8:	8c420084 	lw	v0,132(v0)
800130fc:	00602025 	move	a0,v1
80013100:	00402825 	move	a1,v0
80013104:	24061000 	li	a2,4096
80013108:	0c004c99 	jal	80013264 <add_stack_vma>
8001310c:	00000000 	nop
80013110:	8fc20010 	lw	v0,16(s8)
80013114:	8c4300bc 	lw	v1,188(v0)
80013118:	8fc20010 	lw	v0,16(s8)
8001311c:	ac4300c0 	sw	v1,192(v0)
80013120:	8fc40010 	lw	a0,16(s8)
80013124:	0c004d32 	jal	800134c8 <map_all>
80013128:	00000000 	nop
8001312c:	8fc20010 	lw	v0,16(s8)
80013130:	244400d4 	addiu	a0,v0,212
80013134:	8fc20010 	lw	v0,16(s8)
80013138:	8c4200c4 	lw	v0,196(v0)
8001313c:	000218c0 	sll	v1,v0,0x3
80013140:	3c028003 	lui	v0,0x8003
80013144:	2442d218 	addiu	v0,v0,-11752
80013148:	00621021 	addu	v0,v1,v0
8001314c:	00402825 	move	a1,v0
80013150:	0c004bb8 	jal	80012ee0 <list_add_tail>
80013154:	00000000 	nop
80013158:	8fc20010 	lw	v0,16(s8)
8001315c:	ac4000c8 	sw	zero,200(v0)
80013160:	8fc20010 	lw	v0,16(s8)
80013164:	03c0e825 	move	sp,s8
80013168:	8fbf001c 	lw	ra,28(sp)
8001316c:	8fbe0018 	lw	s8,24(sp)
80013170:	27bd0020 	addiu	sp,sp,32
80013174:	03e00008 	jr	ra
80013178:	00000000 	nop

8001317c <clearpage>:
8001317c:	27bdffe8 	addiu	sp,sp,-24
80013180:	afbf0014 	sw	ra,20(sp)
80013184:	afbe0010 	sw	s8,16(sp)
80013188:	03a0f025 	move	s8,sp
8001318c:	afc40018 	sw	a0,24(s8)
80013190:	8fc40018 	lw	a0,24(s8)
80013194:	00002825 	move	a1,zero
80013198:	24060400 	li	a2,1024
8001319c:	0c005d9f 	jal	8001767c <kernel_memset_word>
800131a0:	00000000 	nop
800131a4:	03c0e825 	move	sp,s8
800131a8:	8fbf0014 	lw	ra,20(sp)
800131ac:	8fbe0010 	lw	s8,16(sp)
800131b0:	27bd0018 	addiu	sp,sp,24
800131b4:	03e00008 	jr	ra
800131b8:	00000000 	nop

800131bc <add_code_vma>:
800131bc:	27bdffe0 	addiu	sp,sp,-32
800131c0:	afbf001c 	sw	ra,28(sp)
800131c4:	afbe0018 	sw	s8,24(sp)
800131c8:	03a0f025 	move	s8,sp
800131cc:	afc40020 	sw	a0,32(s8)
800131d0:	afc50024 	sw	a1,36(s8)
800131d4:	afc60028 	sw	a2,40(s8)
800131d8:	8fc20024 	lw	v0,36(s8)
800131dc:	30420001 	andi	v0,v0,0x1
800131e0:	10400007 	beqz	v0,80013200 <add_code_vma+0x44>
800131e4:	00000000 	nop
800131e8:	3c028002 	lui	v0,0x8002
800131ec:	244497c4 	addiu	a0,v0,-26684
800131f0:	0c000aaa 	jal	80002aa8 <kernel_printf>
800131f4:	00000000 	nop
800131f8:	1000ffff 	b	800131f8 <add_code_vma+0x3c>
800131fc:	00000000 	nop
80013200:	24040014 	li	a0,20
80013204:	0c003abb 	jal	8000eaec <kmalloc>
80013208:	00000000 	nop
8001320c:	afc20010 	sw	v0,16(s8)
80013210:	8fc20010 	lw	v0,16(s8)
80013214:	ac400000 	sw	zero,0(v0)
80013218:	8fc20028 	lw	v0,40(s8)
8001321c:	2443ffff 	addiu	v1,v0,-1
80013220:	8fc20010 	lw	v0,16(s8)
80013224:	ac430008 	sw	v1,8(v0)
80013228:	8fc20010 	lw	v0,16(s8)
8001322c:	8fc30024 	lw	v1,36(s8)
80013230:	ac430004 	sw	v1,4(v0)
80013234:	8fc20010 	lw	v0,16(s8)
80013238:	2442000c 	addiu	v0,v0,12
8001323c:	00402025 	move	a0,v0
80013240:	8fc50020 	lw	a1,32(s8)
80013244:	0c004ba5 	jal	80012e94 <list_add>
80013248:	00000000 	nop
8001324c:	03c0e825 	move	sp,s8
80013250:	8fbf001c 	lw	ra,28(sp)
80013254:	8fbe0018 	lw	s8,24(sp)
80013258:	27bd0020 	addiu	sp,sp,32
8001325c:	03e00008 	jr	ra
80013260:	00000000 	nop

80013264 <add_stack_vma>:
80013264:	27bdffe0 	addiu	sp,sp,-32
80013268:	afbf001c 	sw	ra,28(sp)
8001326c:	afbe0018 	sw	s8,24(sp)
80013270:	03a0f025 	move	s8,sp
80013274:	afc40020 	sw	a0,32(s8)
80013278:	afc50024 	sw	a1,36(s8)
8001327c:	afc60028 	sw	a2,40(s8)
80013280:	8fc20024 	lw	v0,36(s8)
80013284:	30420001 	andi	v0,v0,0x1
80013288:	10400007 	beqz	v0,800132a8 <add_stack_vma+0x44>
8001328c:	00000000 	nop
80013290:	3c028002 	lui	v0,0x8002
80013294:	244497e4 	addiu	a0,v0,-26652
80013298:	0c000aaa 	jal	80002aa8 <kernel_printf>
8001329c:	00000000 	nop
800132a0:	1000ffff 	b	800132a0 <add_stack_vma+0x3c>
800132a4:	00000000 	nop
800132a8:	24040014 	li	a0,20
800132ac:	0c003abb 	jal	8000eaec <kmalloc>
800132b0:	00000000 	nop
800132b4:	afc20010 	sw	v0,16(s8)
800132b8:	3c038000 	lui	v1,0x8000
800132bc:	8fc20028 	lw	v0,40(s8)
800132c0:	00621823 	subu	v1,v1,v0
800132c4:	8fc20010 	lw	v0,16(s8)
800132c8:	ac430000 	sw	v1,0(v0)
800132cc:	8fc20010 	lw	v0,16(s8)
800132d0:	8c430000 	lw	v1,0(v0)
800132d4:	8fc20028 	lw	v0,40(s8)
800132d8:	00621021 	addu	v0,v1,v0
800132dc:	2443ffff 	addiu	v1,v0,-1
800132e0:	8fc20010 	lw	v0,16(s8)
800132e4:	ac430008 	sw	v1,8(v0)
800132e8:	8fc20010 	lw	v0,16(s8)
800132ec:	8fc30024 	lw	v1,36(s8)
800132f0:	ac430004 	sw	v1,4(v0)
800132f4:	8fc20010 	lw	v0,16(s8)
800132f8:	2442000c 	addiu	v0,v0,12
800132fc:	00402025 	move	a0,v0
80013300:	8fc50020 	lw	a1,32(s8)
80013304:	0c004bb8 	jal	80012ee0 <list_add_tail>
80013308:	00000000 	nop
8001330c:	03c0e825 	move	sp,s8
80013310:	8fbf001c 	lw	ra,28(sp)
80013314:	8fbe0018 	lw	s8,24(sp)
80013318:	27bd0020 	addiu	sp,sp,32
8001331c:	03e00008 	jr	ra
80013320:	00000000 	nop

80013324 <add_vma>:
80013324:	27bdffe0 	addiu	sp,sp,-32
80013328:	afbf001c 	sw	ra,28(sp)
8001332c:	afbe0018 	sw	s8,24(sp)
80013330:	03a0f025 	move	s8,sp
80013334:	afc40020 	sw	a0,32(s8)
80013338:	afc50024 	sw	a1,36(s8)
8001333c:	afc60028 	sw	a2,40(s8)
80013340:	8fc20020 	lw	v0,32(s8)
80013344:	2442fff4 	addiu	v0,v0,-12
80013348:	afc20010 	sw	v0,16(s8)
8001334c:	8fc20010 	lw	v0,16(s8)
80013350:	8c430008 	lw	v1,8(v0)
80013354:	3c027fff 	lui	v0,0x7fff
80013358:	3442e000 	ori	v0,v0,0xe000
8001335c:	0062102b 	sltu	v0,v1,v0
80013360:	14400004 	bnez	v0,80013374 <add_vma+0x50>
80013364:	00000000 	nop
80013368:	00001025 	move	v0,zero
8001336c:	10000027 	b	8001340c <add_vma+0xe8>
80013370:	00000000 	nop
80013374:	24040014 	li	a0,20
80013378:	0c003abb 	jal	8000eaec <kmalloc>
8001337c:	00000000 	nop
80013380:	afc20014 	sw	v0,20(s8)
80013384:	8fc20010 	lw	v0,16(s8)
80013388:	8c430008 	lw	v1,8(v0)
8001338c:	2402f000 	li	v0,-4096
80013390:	00621024 	and	v0,v1,v0
80013394:	24431000 	addiu	v1,v0,4096
80013398:	8fc20014 	lw	v0,20(s8)
8001339c:	ac430000 	sw	v1,0(v0)
800133a0:	8fc20014 	lw	v0,20(s8)
800133a4:	8c430000 	lw	v1,0(v0)
800133a8:	8fc20024 	lw	v0,36(s8)
800133ac:	30420fff 	andi	v0,v0,0xfff
800133b0:	00621821 	addu	v1,v1,v0
800133b4:	8fc20014 	lw	v0,20(s8)
800133b8:	ac430000 	sw	v1,0(v0)
800133bc:	8fc20014 	lw	v0,20(s8)
800133c0:	8c430000 	lw	v1,0(v0)
800133c4:	8fc20028 	lw	v0,40(s8)
800133c8:	00621021 	addu	v0,v1,v0
800133cc:	2443ffff 	addiu	v1,v0,-1
800133d0:	8fc20014 	lw	v0,20(s8)
800133d4:	ac430008 	sw	v1,8(v0)
800133d8:	8fc20014 	lw	v0,20(s8)
800133dc:	8fc30024 	lw	v1,36(s8)
800133e0:	ac430004 	sw	v1,4(v0)
800133e4:	8fc20014 	lw	v0,20(s8)
800133e8:	2443000c 	addiu	v1,v0,12
800133ec:	8fc20020 	lw	v0,32(s8)
800133f0:	8c420004 	lw	v0,4(v0)
800133f4:	00602025 	move	a0,v1
800133f8:	8fc50020 	lw	a1,32(s8)
800133fc:	00403025 	move	a2,v0
80013400:	0c004b8e 	jal	80012e38 <__list_add>
80013404:	00000000 	nop
80013408:	24020001 	li	v0,1
8001340c:	03c0e825 	move	sp,s8
80013410:	8fbf001c 	lw	ra,28(sp)
80013414:	8fbe0018 	lw	s8,24(sp)
80013418:	27bd0020 	addiu	sp,sp,32
8001341c:	03e00008 	jr	ra
80013420:	00000000 	nop

80013424 <findvma>:
80013424:	27bdfff0 	addiu	sp,sp,-16
80013428:	afbe000c 	sw	s8,12(sp)
8001342c:	03a0f025 	move	s8,sp
80013430:	afc40010 	sw	a0,16(s8)
80013434:	8f8280e0 	lw	v0,-32544(gp)
80013438:	8c4200bc 	lw	v0,188(v0)
8001343c:	afc20000 	sw	v0,0(s8)
80013440:	10000016 	b	8001349c <findvma+0x78>
80013444:	00000000 	nop
80013448:	8fc20000 	lw	v0,0(s8)
8001344c:	2442fff4 	addiu	v0,v0,-12
80013450:	afc20004 	sw	v0,4(s8)
80013454:	8fc20004 	lw	v0,4(s8)
80013458:	8c430000 	lw	v1,0(v0)
8001345c:	8fc20010 	lw	v0,16(s8)
80013460:	0043102b 	sltu	v0,v0,v1
80013464:	1440000a 	bnez	v0,80013490 <findvma+0x6c>
80013468:	00000000 	nop
8001346c:	8fc20004 	lw	v0,4(s8)
80013470:	8c430008 	lw	v1,8(v0)
80013474:	8fc20010 	lw	v0,16(s8)
80013478:	0062102b 	sltu	v0,v1,v0
8001347c:	14400004 	bnez	v0,80013490 <findvma+0x6c>
80013480:	00000000 	nop
80013484:	8fc20004 	lw	v0,4(s8)
80013488:	1000000a 	b	800134b4 <findvma+0x90>
8001348c:	00000000 	nop
80013490:	8fc20000 	lw	v0,0(s8)
80013494:	8c420004 	lw	v0,4(v0)
80013498:	afc20000 	sw	v0,0(s8)
8001349c:	8f8280e0 	lw	v0,-32544(gp)
800134a0:	244300b8 	addiu	v1,v0,184
800134a4:	8fc20000 	lw	v0,0(s8)
800134a8:	1462ffe7 	bne	v1,v0,80013448 <findvma+0x24>
800134ac:	00000000 	nop
800134b0:	00001025 	move	v0,zero
800134b4:	03c0e825 	move	sp,s8
800134b8:	8fbe000c 	lw	s8,12(sp)
800134bc:	27bd0010 	addiu	sp,sp,16
800134c0:	03e00008 	jr	ra
800134c4:	00000000 	nop

800134c8 <map_all>:
800134c8:	27bdffd8 	addiu	sp,sp,-40
800134cc:	afbf0024 	sw	ra,36(sp)
800134d0:	afbe0020 	sw	s8,32(sp)
800134d4:	03a0f025 	move	s8,sp
800134d8:	afc40028 	sw	a0,40(s8)
800134dc:	8fc20028 	lw	v0,40(s8)
800134e0:	8c4200bc 	lw	v0,188(v0)
800134e4:	afc20018 	sw	v0,24(s8)
800134e8:	10000023 	b	80013578 <map_all+0xb0>
800134ec:	00000000 	nop
800134f0:	8fc20018 	lw	v0,24(s8)
800134f4:	2442fff4 	addiu	v0,v0,-12
800134f8:	afc2001c 	sw	v0,28(s8)
800134fc:	8fc2001c 	lw	v0,28(s8)
80013500:	8c450000 	lw	a1,0(v0)
80013504:	8fc2001c 	lw	v0,28(s8)
80013508:	8c460008 	lw	a2,8(v0)
8001350c:	8fc2001c 	lw	v0,28(s8)
80013510:	8c470004 	lw	a3,4(v0)
80013514:	8fc2001c 	lw	v0,28(s8)
80013518:	8c430004 	lw	v1,4(v0)
8001351c:	8fc2001c 	lw	v0,28(s8)
80013520:	8c420008 	lw	v0,8(v0)
80013524:	00621821 	addu	v1,v1,v0
80013528:	8fc2001c 	lw	v0,28(s8)
8001352c:	8c420000 	lw	v0,0(v0)
80013530:	00621023 	subu	v0,v1,v0
80013534:	afa20010 	sw	v0,16(sp)
80013538:	3c028002 	lui	v0,0x8002
8001353c:	24449808 	addiu	a0,v0,-26616
80013540:	0c000aaa 	jal	80002aa8 <kernel_printf>
80013544:	00000000 	nop
80013548:	8fc20028 	lw	v0,40(s8)
8001354c:	8c430088 	lw	v1,136(v0)
80013550:	8fc20028 	lw	v0,40(s8)
80013554:	8c4200b4 	lw	v0,180(v0)
80013558:	00602025 	move	a0,v1
8001355c:	8fc5001c 	lw	a1,28(s8)
80013560:	00403025 	move	a2,v0
80013564:	0c004dcc 	jal	80013730 <do_mapping>
80013568:	00000000 	nop
8001356c:	8fc20018 	lw	v0,24(s8)
80013570:	8c420004 	lw	v0,4(v0)
80013574:	afc20018 	sw	v0,24(s8)
80013578:	8fc20028 	lw	v0,40(s8)
8001357c:	244300b8 	addiu	v1,v0,184
80013580:	8fc20018 	lw	v0,24(s8)
80013584:	1462ffda 	bne	v1,v0,800134f0 <map_all+0x28>
80013588:	00000000 	nop
8001358c:	03c0e825 	move	sp,s8
80013590:	8fbf0024 	lw	ra,36(sp)
80013594:	8fbe0020 	lw	s8,32(sp)
80013598:	27bd0028 	addiu	sp,sp,40
8001359c:	03e00008 	jr	ra
800135a0:	00000000 	nop

800135a4 <free_heap>:
800135a4:	27bdffe0 	addiu	sp,sp,-32
800135a8:	afbf001c 	sw	ra,28(sp)
800135ac:	afbe0018 	sw	s8,24(sp)
800135b0:	03a0f025 	move	s8,sp
800135b4:	afc40020 	sw	a0,32(s8)
800135b8:	8fc20020 	lw	v0,32(s8)
800135bc:	8c4200bc 	lw	v0,188(v0)
800135c0:	8c420004 	lw	v0,4(v0)
800135c4:	afc20010 	sw	v0,16(s8)
800135c8:	1000000e 	b	80013604 <free_heap+0x60>
800135cc:	00000000 	nop
800135d0:	8fc20010 	lw	v0,16(s8)
800135d4:	8c420004 	lw	v0,4(v0)
800135d8:	afc20014 	sw	v0,20(s8)
800135dc:	8fc40010 	lw	a0,16(s8)
800135e0:	0c004bdb 	jal	80012f6c <list_del>
800135e4:	00000000 	nop
800135e8:	8fc20010 	lw	v0,16(s8)
800135ec:	2442fff4 	addiu	v0,v0,-12
800135f0:	00402025 	move	a0,v0
800135f4:	0c003b13 	jal	8000ec4c <kfree>
800135f8:	00000000 	nop
800135fc:	8fc20014 	lw	v0,20(s8)
80013600:	afc20010 	sw	v0,16(s8)
80013604:	8fc20020 	lw	v0,32(s8)
80013608:	8c4300b8 	lw	v1,184(v0)
8001360c:	8fc20010 	lw	v0,16(s8)
80013610:	1462ffef 	bne	v1,v0,800135d0 <free_heap+0x2c>
80013614:	00000000 	nop
80013618:	03c0e825 	move	sp,s8
8001361c:	8fbf001c 	lw	ra,28(sp)
80013620:	8fbe0018 	lw	s8,24(sp)
80013624:	27bd0020 	addiu	sp,sp,32
80013628:	03e00008 	jr	ra
8001362c:	00000000 	nop

80013630 <unmap_all>:
80013630:	27bdffd8 	addiu	sp,sp,-40
80013634:	afbf0024 	sw	ra,36(sp)
80013638:	afbe0020 	sw	s8,32(sp)
8001363c:	03a0f025 	move	s8,sp
80013640:	afc40028 	sw	a0,40(s8)
80013644:	0c003b43 	jal	8000ed0c <TLB_init>
80013648:	00000000 	nop
8001364c:	8fc20028 	lw	v0,40(s8)
80013650:	8c4200bc 	lw	v0,188(v0)
80013654:	afc20010 	sw	v0,16(s8)
80013658:	1000000c 	b	8001368c <unmap_all+0x5c>
8001365c:	00000000 	nop
80013660:	8fc20010 	lw	v0,16(s8)
80013664:	2442fff4 	addiu	v0,v0,-12
80013668:	afc20018 	sw	v0,24(s8)
8001366c:	8fc20018 	lw	v0,24(s8)
80013670:	8c420004 	lw	v0,4(v0)
80013674:	00402025 	move	a0,v0
80013678:	0c003b13 	jal	8000ec4c <kfree>
8001367c:	00000000 	nop
80013680:	8fc20010 	lw	v0,16(s8)
80013684:	8c420004 	lw	v0,4(v0)
80013688:	afc20010 	sw	v0,16(s8)
8001368c:	8fc20028 	lw	v0,40(s8)
80013690:	244300b8 	addiu	v1,v0,184
80013694:	8fc20010 	lw	v0,16(s8)
80013698:	1462fff1 	bne	v1,v0,80013660 <unmap_all+0x30>
8001369c:	00000000 	nop
800136a0:	8fc40028 	lw	a0,40(s8)
800136a4:	0c004d69 	jal	800135a4 <free_heap>
800136a8:	00000000 	nop
800136ac:	afc00014 	sw	zero,20(s8)
800136b0:	10000015 	b	80013708 <unmap_all+0xd8>
800136b4:	00000000 	nop
800136b8:	8fc20028 	lw	v0,40(s8)
800136bc:	8c4300b4 	lw	v1,180(v0)
800136c0:	8fc20014 	lw	v0,20(s8)
800136c4:	00021080 	sll	v0,v0,0x2
800136c8:	00621021 	addu	v0,v1,v0
800136cc:	8c420000 	lw	v0,0(v0)
800136d0:	1040000a 	beqz	v0,800136fc <unmap_all+0xcc>
800136d4:	00000000 	nop
800136d8:	8fc20028 	lw	v0,40(s8)
800136dc:	8c4300b4 	lw	v1,180(v0)
800136e0:	8fc20014 	lw	v0,20(s8)
800136e4:	00021080 	sll	v0,v0,0x2
800136e8:	00621021 	addu	v0,v1,v0
800136ec:	8c420000 	lw	v0,0(v0)
800136f0:	00402025 	move	a0,v0
800136f4:	0c003b13 	jal	8000ec4c <kfree>
800136f8:	00000000 	nop
800136fc:	8fc20014 	lw	v0,20(s8)
80013700:	24420001 	addiu	v0,v0,1
80013704:	afc20014 	sw	v0,20(s8)
80013708:	8fc20014 	lw	v0,20(s8)
8001370c:	28420400 	slti	v0,v0,1024
80013710:	1440ffe9 	bnez	v0,800136b8 <unmap_all+0x88>
80013714:	00000000 	nop
80013718:	03c0e825 	move	sp,s8
8001371c:	8fbf0024 	lw	ra,36(sp)
80013720:	8fbe0020 	lw	s8,32(sp)
80013724:	27bd0028 	addiu	sp,sp,40
80013728:	03e00008 	jr	ra
8001372c:	00000000 	nop

80013730 <do_mapping>:
80013730:	27bdffb0 	addiu	sp,sp,-80
80013734:	afbf004c 	sw	ra,76(sp)
80013738:	afbe0048 	sw	s8,72(sp)
8001373c:	03a0f025 	move	s8,sp
80013740:	afc40050 	sw	a0,80(s8)
80013744:	afc50054 	sw	a1,84(s8)
80013748:	afc60058 	sw	a2,88(s8)
8001374c:	8fc20054 	lw	v0,84(s8)
80013750:	8c420000 	lw	v0,0(v0)
80013754:	afc20014 	sw	v0,20(s8)
80013758:	8fc20054 	lw	v0,84(s8)
8001375c:	8c420004 	lw	v0,4(v0)
80013760:	afc20018 	sw	v0,24(s8)
80013764:	8fc20050 	lw	v0,80(s8)
80013768:	304200ff 	andi	v0,v0,0xff
8001376c:	afc20050 	sw	v0,80(s8)
80013770:	8fc30014 	lw	v1,20(s8)
80013774:	2402f000 	li	v0,-4096
80013778:	00621024 	and	v0,v1,v0
8001377c:	afc20014 	sw	v0,20(s8)
80013780:	8fc30018 	lw	v1,24(s8)
80013784:	3c027fff 	lui	v0,0x7fff
80013788:	3442f000 	ori	v0,v0,0xf000
8001378c:	00621024 	and	v0,v1,v0
80013790:	afc20018 	sw	v0,24(s8)
80013794:	8fc20014 	lw	v0,20(s8)
80013798:	00021302 	srl	v0,v0,0xc
8001379c:	afc20024 	sw	v0,36(s8)
800137a0:	8fc20054 	lw	v0,84(s8)
800137a4:	8c420008 	lw	v0,8(v0)
800137a8:	00021302 	srl	v0,v0,0xc
800137ac:	afc20028 	sw	v0,40(s8)
800137b0:	8fc30028 	lw	v1,40(s8)
800137b4:	8fc20024 	lw	v0,36(s8)
800137b8:	00621023 	subu	v0,v1,v0
800137bc:	24420001 	addiu	v0,v0,1
800137c0:	afc2001c 	sw	v0,28(s8)
800137c4:	8fc20014 	lw	v0,20(s8)
800137c8:	00021342 	srl	v0,v0,0xd
800137cc:	afc2002c 	sw	v0,44(s8)
800137d0:	8fc20018 	lw	v0,24(s8)
800137d4:	00021342 	srl	v0,v0,0xd
800137d8:	afc20030 	sw	v0,48(s8)
800137dc:	8fc20024 	lw	v0,36(s8)
800137e0:	30420001 	andi	v0,v0,0x1
800137e4:	10400042 	beqz	v0,800138f0 <do_mapping+0x1c0>
800137e8:	00000000 	nop
800137ec:	8fc2002c 	lw	v0,44(s8)
800137f0:	00021202 	srl	v0,v0,0x8
800137f4:	00021080 	sll	v0,v0,0x2
800137f8:	8fc30058 	lw	v1,88(s8)
800137fc:	00621021 	addu	v0,v1,v0
80013800:	8c420000 	lw	v0,0(v0)
80013804:	afc20010 	sw	v0,16(s8)
80013808:	8fc20010 	lw	v0,16(s8)
8001380c:	14400014 	bnez	v0,80013860 <do_mapping+0x130>
80013810:	00000000 	nop
80013814:	24041000 	li	a0,4096
80013818:	0c003abb 	jal	8000eaec <kmalloc>
8001381c:	00000000 	nop
80013820:	afc20010 	sw	v0,16(s8)
80013824:	8fc2002c 	lw	v0,44(s8)
80013828:	00021202 	srl	v0,v0,0x8
8001382c:	00021080 	sll	v0,v0,0x2
80013830:	8fc30058 	lw	v1,88(s8)
80013834:	00621021 	addu	v0,v1,v0
80013838:	8fc30010 	lw	v1,16(s8)
8001383c:	ac430000 	sw	v1,0(v0)
80013840:	3c028002 	lui	v0,0x8002
80013844:	24449820 	addiu	a0,v0,-26592
80013848:	8fc50010 	lw	a1,16(s8)
8001384c:	0c000aaa 	jal	80002aa8 <kernel_printf>
80013850:	00000000 	nop
80013854:	8fc40010 	lw	a0,16(s8)
80013858:	0c004c5f 	jal	8001317c <clearpage>
8001385c:	00000000 	nop
80013860:	8fc2002c 	lw	v0,44(s8)
80013864:	304200ff 	andi	v0,v0,0xff
80013868:	00021100 	sll	v0,v0,0x4
8001386c:	8fc30010 	lw	v1,16(s8)
80013870:	00621021 	addu	v0,v1,v0
80013874:	8fc40014 	lw	a0,20(s8)
80013878:	2403e000 	li	v1,-8192
8001387c:	00832024 	and	a0,a0,v1
80013880:	8fc30050 	lw	v1,80(s8)
80013884:	00831825 	or	v1,a0,v1
80013888:	ac430008 	sw	v1,8(v0)
8001388c:	8fc2002c 	lw	v0,44(s8)
80013890:	304200ff 	andi	v0,v0,0xff
80013894:	00021100 	sll	v0,v0,0x4
80013898:	8fc30010 	lw	v1,16(s8)
8001389c:	00621021 	addu	v0,v1,v0
800138a0:	8fc30018 	lw	v1,24(s8)
800138a4:	00031b02 	srl	v1,v1,0xc
800138a8:	00031980 	sll	v1,v1,0x6
800138ac:	3463001a 	ori	v1,v1,0x1a
800138b0:	ac430004 	sw	v1,4(v0)
800138b4:	8fc2002c 	lw	v0,44(s8)
800138b8:	304200ff 	andi	v0,v0,0xff
800138bc:	00021100 	sll	v0,v0,0x4
800138c0:	8fc30010 	lw	v1,16(s8)
800138c4:	00621021 	addu	v0,v1,v0
800138c8:	ac40000c 	sw	zero,12(v0)
800138cc:	8fc20018 	lw	v0,24(s8)
800138d0:	24421000 	addiu	v0,v0,4096
800138d4:	afc20018 	sw	v0,24(s8)
800138d8:	8fc20014 	lw	v0,20(s8)
800138dc:	24421000 	addiu	v0,v0,4096
800138e0:	afc20014 	sw	v0,20(s8)
800138e4:	8fc2001c 	lw	v0,28(s8)
800138e8:	2442ffff 	addiu	v0,v0,-1
800138ec:	afc2001c 	sw	v0,28(s8)
800138f0:	afc00020 	sw	zero,32(s8)
800138f4:	10000065 	b	80013a8c <do_mapping+0x35c>
800138f8:	00000000 	nop
800138fc:	8fc20018 	lw	v0,24(s8)
80013900:	00021b02 	srl	v1,v0,0xc
80013904:	8fc20020 	lw	v0,32(s8)
80013908:	00621021 	addu	v0,v1,v0
8001390c:	afc20034 	sw	v0,52(s8)
80013910:	8fc20014 	lw	v0,20(s8)
80013914:	00021b02 	srl	v1,v0,0xc
80013918:	8fc20020 	lw	v0,32(s8)
8001391c:	00621021 	addu	v0,v1,v0
80013920:	afc20038 	sw	v0,56(s8)
80013924:	8fc20034 	lw	v0,52(s8)
80013928:	00021042 	srl	v0,v0,0x1
8001392c:	afc2003c 	sw	v0,60(s8)
80013930:	8fc20038 	lw	v0,56(s8)
80013934:	00021042 	srl	v0,v0,0x1
80013938:	afc20040 	sw	v0,64(s8)
8001393c:	8fc20040 	lw	v0,64(s8)
80013940:	00021202 	srl	v0,v0,0x8
80013944:	00021080 	sll	v0,v0,0x2
80013948:	8fc30058 	lw	v1,88(s8)
8001394c:	00621021 	addu	v0,v1,v0
80013950:	8c420000 	lw	v0,0(v0)
80013954:	afc20010 	sw	v0,16(s8)
80013958:	8fc20010 	lw	v0,16(s8)
8001395c:	14400014 	bnez	v0,800139b0 <do_mapping+0x280>
80013960:	00000000 	nop
80013964:	24041000 	li	a0,4096
80013968:	0c003abb 	jal	8000eaec <kmalloc>
8001396c:	00000000 	nop
80013970:	afc20010 	sw	v0,16(s8)
80013974:	8fc20040 	lw	v0,64(s8)
80013978:	00021202 	srl	v0,v0,0x8
8001397c:	00021080 	sll	v0,v0,0x2
80013980:	8fc30058 	lw	v1,88(s8)
80013984:	00621021 	addu	v0,v1,v0
80013988:	8fc30010 	lw	v1,16(s8)
8001398c:	ac430000 	sw	v1,0(v0)
80013990:	3c028002 	lui	v0,0x8002
80013994:	24449820 	addiu	a0,v0,-26592
80013998:	8fc50010 	lw	a1,16(s8)
8001399c:	0c000aaa 	jal	80002aa8 <kernel_printf>
800139a0:	00000000 	nop
800139a4:	8fc40010 	lw	a0,16(s8)
800139a8:	0c004c5f 	jal	8001317c <clearpage>
800139ac:	00000000 	nop
800139b0:	3c028002 	lui	v0,0x8002
800139b4:	24449830 	addiu	a0,v0,-26576
800139b8:	8fc50010 	lw	a1,16(s8)
800139bc:	0c000aaa 	jal	80002aa8 <kernel_printf>
800139c0:	00000000 	nop
800139c4:	00000000 	nop
800139c8:	24040001 	li	a0,1
800139cc:	0c003e9f 	jal	8000fa7c <sw>
800139d0:	00000000 	nop
800139d4:	1440fffc 	bnez	v0,800139c8 <do_mapping+0x298>
800139d8:	00000000 	nop
800139dc:	8fc20020 	lw	v0,32(s8)
800139e0:	30420001 	andi	v0,v0,0x1
800139e4:	1440001d 	bnez	v0,80013a5c <do_mapping+0x32c>
800139e8:	00000000 	nop
800139ec:	8fc20040 	lw	v0,64(s8)
800139f0:	304200ff 	andi	v0,v0,0xff
800139f4:	00021100 	sll	v0,v0,0x4
800139f8:	8fc30010 	lw	v1,16(s8)
800139fc:	00621021 	addu	v0,v1,v0
80013a00:	8fc40014 	lw	a0,20(s8)
80013a04:	2403e000 	li	v1,-8192
80013a08:	00832024 	and	a0,a0,v1
80013a0c:	8fc30050 	lw	v1,80(s8)
80013a10:	00831825 	or	v1,a0,v1
80013a14:	ac430008 	sw	v1,8(v0)
80013a18:	8fc20040 	lw	v0,64(s8)
80013a1c:	304200ff 	andi	v0,v0,0xff
80013a20:	00021100 	sll	v0,v0,0x4
80013a24:	8fc30010 	lw	v1,16(s8)
80013a28:	00621021 	addu	v0,v1,v0
80013a2c:	ac40000c 	sw	zero,12(v0)
80013a30:	8fc20040 	lw	v0,64(s8)
80013a34:	304200ff 	andi	v0,v0,0xff
80013a38:	00021100 	sll	v0,v0,0x4
80013a3c:	8fc30010 	lw	v1,16(s8)
80013a40:	00621021 	addu	v0,v1,v0
80013a44:	8fc30034 	lw	v1,52(s8)
80013a48:	00031980 	sll	v1,v1,0x6
80013a4c:	3463001e 	ori	v1,v1,0x1e
80013a50:	ac430000 	sw	v1,0(v0)
80013a54:	1000000a 	b	80013a80 <do_mapping+0x350>
80013a58:	00000000 	nop
80013a5c:	8fc20040 	lw	v0,64(s8)
80013a60:	304200ff 	andi	v0,v0,0xff
80013a64:	00021100 	sll	v0,v0,0x4
80013a68:	8fc30010 	lw	v1,16(s8)
80013a6c:	00621021 	addu	v0,v1,v0
80013a70:	8fc30034 	lw	v1,52(s8)
80013a74:	00031980 	sll	v1,v1,0x6
80013a78:	3463001e 	ori	v1,v1,0x1e
80013a7c:	ac430004 	sw	v1,4(v0)
80013a80:	8fc20020 	lw	v0,32(s8)
80013a84:	24420001 	addiu	v0,v0,1
80013a88:	afc20020 	sw	v0,32(s8)
80013a8c:	8fc30020 	lw	v1,32(s8)
80013a90:	8fc2001c 	lw	v0,28(s8)
80013a94:	0062102b 	sltu	v0,v1,v0
80013a98:	1440ff98 	bnez	v0,800138fc <do_mapping+0x1cc>
80013a9c:	00000000 	nop
80013aa0:	03c0e825 	move	sp,s8
80013aa4:	8fbf004c 	lw	ra,76(sp)
80013aa8:	8fbe0048 	lw	s8,72(sp)
80013aac:	27bd0050 	addiu	sp,sp,80
80013ab0:	03e00008 	jr	ra
80013ab4:	00000000 	nop

80013ab8 <do_unmapping>:
80013ab8:	27bdffe0 	addiu	sp,sp,-32
80013abc:	afbe001c 	sw	s8,28(sp)
80013ac0:	03a0f025 	move	s8,sp
80013ac4:	afc40020 	sw	a0,32(s8)
80013ac8:	afc50024 	sw	a1,36(s8)
80013acc:	8fc20020 	lw	v0,32(s8)
80013ad0:	8c420000 	lw	v0,0(v0)
80013ad4:	00021302 	srl	v0,v0,0xc
80013ad8:	afc20004 	sw	v0,4(s8)
80013adc:	8fc20020 	lw	v0,32(s8)
80013ae0:	8c420008 	lw	v0,8(v0)
80013ae4:	00021302 	srl	v0,v0,0xc
80013ae8:	afc20008 	sw	v0,8(s8)
80013aec:	8fc30008 	lw	v1,8(s8)
80013af0:	8fc20004 	lw	v0,4(s8)
80013af4:	00621023 	subu	v0,v1,v0
80013af8:	24420001 	addiu	v0,v0,1
80013afc:	afc2000c 	sw	v0,12(s8)
80013b00:	8fc20004 	lw	v0,4(s8)
80013b04:	afc20000 	sw	v0,0(s8)
80013b08:	1000001e 	b	80013b84 <do_unmapping+0xcc>
80013b0c:	00000000 	nop
80013b10:	8fc20000 	lw	v0,0(s8)
80013b14:	00021243 	sra	v0,v0,0x9
80013b18:	00021080 	sll	v0,v0,0x2
80013b1c:	8fc30024 	lw	v1,36(s8)
80013b20:	00621021 	addu	v0,v1,v0
80013b24:	8c420000 	lw	v0,0(v0)
80013b28:	afc20010 	sw	v0,16(s8)
80013b2c:	8fc20000 	lw	v0,0(s8)
80013b30:	00021043 	sra	v0,v0,0x1
80013b34:	afc20014 	sw	v0,20(s8)
80013b38:	8fc20000 	lw	v0,0(s8)
80013b3c:	30420001 	andi	v0,v0,0x1
80013b40:	14400008 	bnez	v0,80013b64 <do_unmapping+0xac>
80013b44:	00000000 	nop
80013b48:	8fc20014 	lw	v0,20(s8)
80013b4c:	00021100 	sll	v0,v0,0x4
80013b50:	8fc30010 	lw	v1,16(s8)
80013b54:	00621021 	addu	v0,v1,v0
80013b58:	ac400000 	sw	zero,0(v0)
80013b5c:	10000006 	b	80013b78 <do_unmapping+0xc0>
80013b60:	00000000 	nop
80013b64:	8fc20014 	lw	v0,20(s8)
80013b68:	00021100 	sll	v0,v0,0x4
80013b6c:	8fc30010 	lw	v1,16(s8)
80013b70:	00621021 	addu	v0,v1,v0
80013b74:	ac400004 	sw	zero,4(v0)
80013b78:	8fc20000 	lw	v0,0(s8)
80013b7c:	24420001 	addiu	v0,v0,1
80013b80:	afc20000 	sw	v0,0(s8)
80013b84:	8fc30000 	lw	v1,0(s8)
80013b88:	8fc20008 	lw	v0,8(s8)
80013b8c:	0043102b 	sltu	v0,v0,v1
80013b90:	1040ffdf 	beqz	v0,80013b10 <do_unmapping+0x58>
80013b94:	00000000 	nop
80013b98:	03c0e825 	move	sp,s8
80013b9c:	8fbe001c 	lw	s8,28(sp)
80013ba0:	27bd0020 	addiu	sp,sp,32
80013ba4:	03e00008 	jr	ra
80013ba8:	00000000 	nop

80013bac <addrvalid>:
80013bac:	27bdfff0 	addiu	sp,sp,-16
80013bb0:	afbe000c 	sw	s8,12(sp)
80013bb4:	03a0f025 	move	s8,sp
80013bb8:	afc40010 	sw	a0,16(s8)
80013bbc:	8f8280e0 	lw	v0,-32544(gp)
80013bc0:	8c4200b0 	lw	v0,176(v0)
80013bc4:	10400004 	beqz	v0,80013bd8 <addrvalid+0x2c>
80013bc8:	00000000 	nop
80013bcc:	24020001 	li	v0,1
80013bd0:	10000021 	b	80013c58 <addrvalid+0xac>
80013bd4:	00000000 	nop
80013bd8:	8f8280e0 	lw	v0,-32544(gp)
80013bdc:	8c4200bc 	lw	v0,188(v0)
80013be0:	afc20000 	sw	v0,0(s8)
80013be4:	10000016 	b	80013c40 <addrvalid+0x94>
80013be8:	00000000 	nop
80013bec:	8fc20000 	lw	v0,0(s8)
80013bf0:	2442fff4 	addiu	v0,v0,-12
80013bf4:	afc20004 	sw	v0,4(s8)
80013bf8:	8fc20004 	lw	v0,4(s8)
80013bfc:	8c430000 	lw	v1,0(v0)
80013c00:	8fc20010 	lw	v0,16(s8)
80013c04:	0043102b 	sltu	v0,v0,v1
80013c08:	1440000a 	bnez	v0,80013c34 <addrvalid+0x88>
80013c0c:	00000000 	nop
80013c10:	8fc20004 	lw	v0,4(s8)
80013c14:	8c430008 	lw	v1,8(v0)
80013c18:	8fc20010 	lw	v0,16(s8)
80013c1c:	0062102b 	sltu	v0,v1,v0
80013c20:	14400004 	bnez	v0,80013c34 <addrvalid+0x88>
80013c24:	00000000 	nop
80013c28:	24020001 	li	v0,1
80013c2c:	1000000a 	b	80013c58 <addrvalid+0xac>
80013c30:	00000000 	nop
80013c34:	8fc20000 	lw	v0,0(s8)
80013c38:	8c420004 	lw	v0,4(v0)
80013c3c:	afc20000 	sw	v0,0(s8)
80013c40:	8f8280e0 	lw	v0,-32544(gp)
80013c44:	244300b8 	addiu	v1,v0,184
80013c48:	8fc20000 	lw	v0,0(s8)
80013c4c:	1462ffe7 	bne	v1,v0,80013bec <addrvalid+0x40>
80013c50:	00000000 	nop
80013c54:	00001025 	move	v0,zero
80013c58:	03c0e825 	move	sp,s8
80013c5c:	8fbe000c 	lw	s8,12(sp)
80013c60:	27bd0010 	addiu	sp,sp,16
80013c64:	03e00008 	jr	ra
80013c68:	00000000 	nop

80013c6c <thread_switch>:
80013c6c:	27bdfff8 	addiu	sp,sp,-8
80013c70:	afbe0004 	sw	s8,4(sp)
80013c74:	03a0f025 	move	s8,sp
80013c78:	afc40008 	sw	a0,8(s8)
80013c7c:	afc5000c 	sw	a1,12(s8)
80013c80:	03c0e825 	move	sp,s8
80013c84:	8fbe0004 	lw	s8,4(sp)
80013c88:	27bd0008 	addiu	sp,sp,8
80013c8c:	03e00008 	jr	ra
80013c90:	00000000 	nop

80013c94 <thread_make_runnable>:
80013c94:	27bdfff8 	addiu	sp,sp,-8
80013c98:	afbe0004 	sw	s8,4(sp)
80013c9c:	03a0f025 	move	s8,sp
80013ca0:	afc40008 	sw	a0,8(s8)
80013ca4:	00a01025 	move	v0,a1
80013ca8:	a3c2000c 	sb	v0,12(s8)
80013cac:	03c0e825 	move	sp,s8
80013cb0:	8fbe0004 	lw	s8,4(sp)
80013cb4:	27bd0008 	addiu	sp,sp,8
80013cb8:	03e00008 	jr	ra
80013cbc:	00000000 	nop

80013cc0 <wchan_create>:
80013cc0:	27bdffe0 	addiu	sp,sp,-32
80013cc4:	afbf001c 	sw	ra,28(sp)
80013cc8:	afbe0018 	sw	s8,24(sp)
80013ccc:	03a0f025 	move	s8,sp
80013cd0:	afc40020 	sw	a0,32(s8)
80013cd4:	2404002c 	li	a0,44
80013cd8:	0c003abb 	jal	8000eaec <kmalloc>
80013cdc:	00000000 	nop
80013ce0:	afc20010 	sw	v0,16(s8)
80013ce4:	8fc20010 	lw	v0,16(s8)
80013ce8:	14400004 	bnez	v0,80013cfc <wchan_create+0x3c>
80013cec:	00000000 	nop
80013cf0:	00001025 	move	v0,zero
80013cf4:	1000000f 	b	80013d34 <wchan_create+0x74>
80013cf8:	00000000 	nop
80013cfc:	8fc20010 	lw	v0,16(s8)
80013d00:	24420020 	addiu	v0,v0,32
80013d04:	00402025 	move	a0,v0
80013d08:	0c002f03 	jal	8000bc0c <init_lock>
80013d0c:	00000000 	nop
80013d10:	8fc20010 	lw	v0,16(s8)
80013d14:	24420004 	addiu	v0,v0,4
80013d18:	00402025 	move	a0,v0
80013d1c:	0c00494a 	jal	80012528 <threadlist_init>
80013d20:	00000000 	nop
80013d24:	8fc20010 	lw	v0,16(s8)
80013d28:	8fc30020 	lw	v1,32(s8)
80013d2c:	ac430000 	sw	v1,0(v0)
80013d30:	8fc20010 	lw	v0,16(s8)
80013d34:	03c0e825 	move	sp,s8
80013d38:	8fbf001c 	lw	ra,28(sp)
80013d3c:	8fbe0018 	lw	s8,24(sp)
80013d40:	27bd0020 	addiu	sp,sp,32
80013d44:	03e00008 	jr	ra
80013d48:	00000000 	nop

80013d4c <wchan_destroy>:
80013d4c:	27bdffe8 	addiu	sp,sp,-24
80013d50:	afbf0014 	sw	ra,20(sp)
80013d54:	afbe0010 	sw	s8,16(sp)
80013d58:	03a0f025 	move	s8,sp
80013d5c:	afc40018 	sw	a0,24(s8)
80013d60:	8fc20018 	lw	v0,24(s8)
80013d64:	24420020 	addiu	v0,v0,32
80013d68:	00402025 	move	a0,v0
80013d6c:	0c002f16 	jal	8000bc58 <cleanup_lock>
80013d70:	00000000 	nop
80013d74:	8fc20018 	lw	v0,24(s8)
80013d78:	24420004 	addiu	v0,v0,4
80013d7c:	00402025 	move	a0,v0
80013d80:	0c00496f 	jal	800125bc <threadlist_cleanup>
80013d84:	00000000 	nop
80013d88:	8fc40018 	lw	a0,24(s8)
80013d8c:	0c003b13 	jal	8000ec4c <kfree>
80013d90:	00000000 	nop
80013d94:	03c0e825 	move	sp,s8
80013d98:	8fbf0014 	lw	ra,20(sp)
80013d9c:	8fbe0010 	lw	s8,16(sp)
80013da0:	27bd0018 	addiu	sp,sp,24
80013da4:	03e00008 	jr	ra
80013da8:	00000000 	nop

80013dac <wchan_lock>:
80013dac:	27bdffe8 	addiu	sp,sp,-24
80013db0:	afbf0014 	sw	ra,20(sp)
80013db4:	afbe0010 	sw	s8,16(sp)
80013db8:	03a0f025 	move	s8,sp
80013dbc:	afc40018 	sw	a0,24(s8)
80013dc0:	8fc20018 	lw	v0,24(s8)
80013dc4:	24420020 	addiu	v0,v0,32
80013dc8:	00402025 	move	a0,v0
80013dcc:	0c002f2b 	jal	8000bcac <lockup>
80013dd0:	00000000 	nop
80013dd4:	00401825 	move	v1,v0
80013dd8:	24020001 	li	v0,1
80013ddc:	10620007 	beq	v1,v0,80013dfc <wchan_lock+0x50>
80013de0:	00000000 	nop
80013de4:	3c028002 	lui	v0,0x8002
80013de8:	24449850 	addiu	a0,v0,-26544
80013dec:	3c028002 	lui	v0,0x8002
80013df0:	2445986c 	addiu	a1,v0,-26516
80013df4:	0c005c3f 	jal	800170fc <badassert>
80013df8:	00000000 	nop
80013dfc:	03c0e825 	move	sp,s8
80013e00:	8fbf0014 	lw	ra,20(sp)
80013e04:	8fbe0010 	lw	s8,16(sp)
80013e08:	27bd0018 	addiu	sp,sp,24
80013e0c:	03e00008 	jr	ra
80013e10:	00000000 	nop

80013e14 <wchan_unlock>:
80013e14:	27bdffe8 	addiu	sp,sp,-24
80013e18:	afbf0014 	sw	ra,20(sp)
80013e1c:	afbe0010 	sw	s8,16(sp)
80013e20:	03a0f025 	move	s8,sp
80013e24:	afc40018 	sw	a0,24(s8)
80013e28:	8fc20018 	lw	v0,24(s8)
80013e2c:	24420020 	addiu	v0,v0,32
80013e30:	00402025 	move	a0,v0
80013e34:	0c002f42 	jal	8000bd08 <unlock>
80013e38:	00000000 	nop
80013e3c:	00401825 	move	v1,v0
80013e40:	24020001 	li	v0,1
80013e44:	10620007 	beq	v1,v0,80013e64 <wchan_unlock+0x50>
80013e48:	00000000 	nop
80013e4c:	3c028002 	lui	v0,0x8002
80013e50:	24449878 	addiu	a0,v0,-26504
80013e54:	3c028002 	lui	v0,0x8002
80013e58:	24459894 	addiu	a1,v0,-26476
80013e5c:	0c005c3f 	jal	800170fc <badassert>
80013e60:	00000000 	nop
80013e64:	03c0e825 	move	sp,s8
80013e68:	8fbf0014 	lw	ra,20(sp)
80013e6c:	8fbe0010 	lw	s8,16(sp)
80013e70:	27bd0018 	addiu	sp,sp,24
80013e74:	03e00008 	jr	ra
80013e78:	00000000 	nop

80013e7c <wchan_sleep>:
80013e7c:	27bdffe8 	addiu	sp,sp,-24
80013e80:	afbf0014 	sw	ra,20(sp)
80013e84:	afbe0010 	sw	s8,16(sp)
80013e88:	03a0f025 	move	s8,sp
80013e8c:	afc40018 	sw	a0,24(s8)
80013e90:	8f828074 	lw	v0,-32652(gp)
80013e94:	9042001c 	lbu	v0,28(v0)
80013e98:	38420001 	xori	v0,v0,0x1
80013e9c:	304200ff 	andi	v0,v0,0xff
80013ea0:	14400007 	bnez	v0,80013ec0 <wchan_sleep+0x44>
80013ea4:	00000000 	nop
80013ea8:	3c028002 	lui	v0,0x8002
80013eac:	244498a4 	addiu	a0,v0,-26460
80013eb0:	3c028002 	lui	v0,0x8002
80013eb4:	244598c0 	addiu	a1,v0,-26432
80013eb8:	0c005c3f 	jal	800170fc <badassert>
80013ebc:	00000000 	nop
80013ec0:	24040002 	li	a0,2
80013ec4:	8fc50018 	lw	a1,24(s8)
80013ec8:	0c004f1b 	jal	80013c6c <thread_switch>
80013ecc:	00000000 	nop
80013ed0:	03c0e825 	move	sp,s8
80013ed4:	8fbf0014 	lw	ra,20(sp)
80013ed8:	8fbe0010 	lw	s8,16(sp)
80013edc:	27bd0018 	addiu	sp,sp,24
80013ee0:	03e00008 	jr	ra
80013ee4:	00000000 	nop

80013ee8 <wchan_wakeone>:
80013ee8:	27bdffe0 	addiu	sp,sp,-32
80013eec:	afbf001c 	sw	ra,28(sp)
80013ef0:	afbe0018 	sw	s8,24(sp)
80013ef4:	03a0f025 	move	s8,sp
80013ef8:	afc40020 	sw	a0,32(s8)
80013efc:	8fc20020 	lw	v0,32(s8)
80013f00:	24420020 	addiu	v0,v0,32
80013f04:	00402025 	move	a0,v0
80013f08:	0c002f2b 	jal	8000bcac <lockup>
80013f0c:	00000000 	nop
80013f10:	00401825 	move	v1,v0
80013f14:	24020001 	li	v0,1
80013f18:	10620007 	beq	v1,v0,80013f38 <wchan_wakeone+0x50>
80013f1c:	00000000 	nop
80013f20:	3c028002 	lui	v0,0x8002
80013f24:	24449850 	addiu	a0,v0,-26544
80013f28:	3c028002 	lui	v0,0x8002
80013f2c:	2445986c 	addiu	a1,v0,-26516
80013f30:	0c005c3f 	jal	800170fc <badassert>
80013f34:	00000000 	nop
80013f38:	8fc20020 	lw	v0,32(s8)
80013f3c:	24420004 	addiu	v0,v0,4
80013f40:	00402025 	move	a0,v0
80013f44:	0c004ada 	jal	80012b68 <threadlist_remhead>
80013f48:	00000000 	nop
80013f4c:	afc20010 	sw	v0,16(s8)
80013f50:	8fc20020 	lw	v0,32(s8)
80013f54:	24420020 	addiu	v0,v0,32
80013f58:	00402025 	move	a0,v0
80013f5c:	0c002f42 	jal	8000bd08 <unlock>
80013f60:	00000000 	nop
80013f64:	00401825 	move	v1,v0
80013f68:	24020001 	li	v0,1
80013f6c:	10620007 	beq	v1,v0,80013f8c <wchan_wakeone+0xa4>
80013f70:	00000000 	nop
80013f74:	3c028002 	lui	v0,0x8002
80013f78:	24449878 	addiu	a0,v0,-26504
80013f7c:	3c028002 	lui	v0,0x8002
80013f80:	24459894 	addiu	a1,v0,-26476
80013f84:	0c005c3f 	jal	800170fc <badassert>
80013f88:	00000000 	nop
80013f8c:	8fc20010 	lw	v0,16(s8)
80013f90:	14400003 	bnez	v0,80013fa0 <wchan_wakeone+0xb8>
80013f94:	00000000 	nop
80013f98:	10000005 	b	80013fb0 <wchan_wakeone+0xc8>
80013f9c:	00000000 	nop
80013fa0:	8fc40010 	lw	a0,16(s8)
80013fa4:	00002825 	move	a1,zero
80013fa8:	0c004f25 	jal	80013c94 <thread_make_runnable>
80013fac:	00000000 	nop
80013fb0:	03c0e825 	move	sp,s8
80013fb4:	8fbf001c 	lw	ra,28(sp)
80013fb8:	8fbe0018 	lw	s8,24(sp)
80013fbc:	27bd0020 	addiu	sp,sp,32
80013fc0:	03e00008 	jr	ra
80013fc4:	00000000 	nop

80013fc8 <wchan_wakeall>:
80013fc8:	27bdffc8 	addiu	sp,sp,-56
80013fcc:	afbf0034 	sw	ra,52(sp)
80013fd0:	afbe0030 	sw	s8,48(sp)
80013fd4:	03a0f025 	move	s8,sp
80013fd8:	afc40038 	sw	a0,56(s8)
80013fdc:	27c20014 	addiu	v0,s8,20
80013fe0:	00402025 	move	a0,v0
80013fe4:	0c00494a 	jal	80012528 <threadlist_init>
80013fe8:	00000000 	nop
80013fec:	8fc20038 	lw	v0,56(s8)
80013ff0:	24420020 	addiu	v0,v0,32
80013ff4:	00402025 	move	a0,v0
80013ff8:	0c002f2b 	jal	8000bcac <lockup>
80013ffc:	00000000 	nop
80014000:	00401825 	move	v1,v0
80014004:	24020001 	li	v0,1
80014008:	10620007 	beq	v1,v0,80014028 <wchan_wakeall+0x60>
8001400c:	00000000 	nop
80014010:	3c028002 	lui	v0,0x8002
80014014:	24449850 	addiu	a0,v0,-26544
80014018:	3c028002 	lui	v0,0x8002
8001401c:	2445986c 	addiu	a1,v0,-26516
80014020:	0c005c3f 	jal	800170fc <badassert>
80014024:	00000000 	nop
80014028:	10000006 	b	80014044 <wchan_wakeall+0x7c>
8001402c:	00000000 	nop
80014030:	27c20014 	addiu	v0,s8,20
80014034:	00402025 	move	a0,v0
80014038:	8fc50010 	lw	a1,16(s8)
8001403c:	0c004ab1 	jal	80012ac4 <threadlist_addtail>
80014040:	00000000 	nop
80014044:	8fc20038 	lw	v0,56(s8)
80014048:	24420004 	addiu	v0,v0,4
8001404c:	00402025 	move	a0,v0
80014050:	0c004ada 	jal	80012b68 <threadlist_remhead>
80014054:	00000000 	nop
80014058:	afc20010 	sw	v0,16(s8)
8001405c:	8fc20010 	lw	v0,16(s8)
80014060:	1440fff3 	bnez	v0,80014030 <wchan_wakeall+0x68>
80014064:	00000000 	nop
80014068:	8fc20038 	lw	v0,56(s8)
8001406c:	24420020 	addiu	v0,v0,32
80014070:	00402025 	move	a0,v0
80014074:	0c002f42 	jal	8000bd08 <unlock>
80014078:	00000000 	nop
8001407c:	00401825 	move	v1,v0
80014080:	24020001 	li	v0,1
80014084:	10620007 	beq	v1,v0,800140a4 <wchan_wakeall+0xdc>
80014088:	00000000 	nop
8001408c:	3c028002 	lui	v0,0x8002
80014090:	24449878 	addiu	a0,v0,-26504
80014094:	3c028002 	lui	v0,0x8002
80014098:	24459894 	addiu	a1,v0,-26476
8001409c:	0c005c3f 	jal	800170fc <badassert>
800140a0:	00000000 	nop
800140a4:	10000005 	b	800140bc <wchan_wakeall+0xf4>
800140a8:	00000000 	nop
800140ac:	8fc40010 	lw	a0,16(s8)
800140b0:	00002825 	move	a1,zero
800140b4:	0c004f25 	jal	80013c94 <thread_make_runnable>
800140b8:	00000000 	nop
800140bc:	27c20014 	addiu	v0,s8,20
800140c0:	00402025 	move	a0,v0
800140c4:	0c004ada 	jal	80012b68 <threadlist_remhead>
800140c8:	00000000 	nop
800140cc:	afc20010 	sw	v0,16(s8)
800140d0:	8fc20010 	lw	v0,16(s8)
800140d4:	1440fff5 	bnez	v0,800140ac <wchan_wakeall+0xe4>
800140d8:	00000000 	nop
800140dc:	27c20014 	addiu	v0,s8,20
800140e0:	00402025 	move	a0,v0
800140e4:	0c00496f 	jal	800125bc <threadlist_cleanup>
800140e8:	00000000 	nop
800140ec:	03c0e825 	move	sp,s8
800140f0:	8fbf0034 	lw	ra,52(sp)
800140f4:	8fbe0030 	lw	s8,48(sp)
800140f8:	27bd0038 	addiu	sp,sp,56
800140fc:	03e00008 	jr	ra
80014100:	00000000 	nop

80014104 <wchan_isempty>:
80014104:	27bdffe0 	addiu	sp,sp,-32
80014108:	afbf001c 	sw	ra,28(sp)
8001410c:	afbe0018 	sw	s8,24(sp)
80014110:	03a0f025 	move	s8,sp
80014114:	afc40020 	sw	a0,32(s8)
80014118:	8fc20020 	lw	v0,32(s8)
8001411c:	24420020 	addiu	v0,v0,32
80014120:	00402025 	move	a0,v0
80014124:	0c002f2b 	jal	8000bcac <lockup>
80014128:	00000000 	nop
8001412c:	00401825 	move	v1,v0
80014130:	24020001 	li	v0,1
80014134:	10620007 	beq	v1,v0,80014154 <wchan_isempty+0x50>
80014138:	00000000 	nop
8001413c:	3c028002 	lui	v0,0x8002
80014140:	24449850 	addiu	a0,v0,-26544
80014144:	3c028002 	lui	v0,0x8002
80014148:	2445986c 	addiu	a1,v0,-26516
8001414c:	0c005c3f 	jal	800170fc <badassert>
80014150:	00000000 	nop
80014154:	8fc20020 	lw	v0,32(s8)
80014158:	24420004 	addiu	v0,v0,4
8001415c:	00402025 	move	a0,v0
80014160:	0c0049d7 	jal	8001275c <threadlist_isempty>
80014164:	00000000 	nop
80014168:	a3c20010 	sb	v0,16(s8)
8001416c:	8fc20020 	lw	v0,32(s8)
80014170:	24420020 	addiu	v0,v0,32
80014174:	00402025 	move	a0,v0
80014178:	0c002f42 	jal	8000bd08 <unlock>
8001417c:	00000000 	nop
80014180:	00401825 	move	v1,v0
80014184:	24020001 	li	v0,1
80014188:	10620007 	beq	v1,v0,800141a8 <wchan_isempty+0xa4>
8001418c:	00000000 	nop
80014190:	3c028002 	lui	v0,0x8002
80014194:	24449878 	addiu	a0,v0,-26504
80014198:	3c028002 	lui	v0,0x8002
8001419c:	24459894 	addiu	a1,v0,-26476
800141a0:	0c005c3f 	jal	800170fc <badassert>
800141a4:	00000000 	nop
800141a8:	93c20010 	lbu	v0,16(s8)
800141ac:	03c0e825 	move	sp,s8
800141b0:	8fbf001c 	lw	ra,28(sp)
800141b4:	8fbe0018 	lw	s8,24(sp)
800141b8:	27bd0020 	addiu	sp,sp,32
800141bc:	03e00008 	jr	ra
800141c0:	00000000 	nop

800141c4 <init_syscall>:
800141c4:	27bdffe8 	addiu	sp,sp,-24
800141c8:	afbf0014 	sw	ra,20(sp)
800141cc:	afbe0010 	sw	s8,16(sp)
800141d0:	03a0f025 	move	s8,sp
800141d4:	24040008 	li	a0,8
800141d8:	3c028001 	lui	v0,0x8001
800141dc:	24454214 	addiu	a1,v0,16916
800141e0:	0c000438 	jal	800010e0 <register_exception_handler>
800141e4:	00000000 	nop
800141e8:	24040004 	li	a0,4
800141ec:	3c028001 	lui	v0,0x8001
800141f0:	24454310 	addiu	a1,v0,17168
800141f4:	0c0050b0 	jal	800142c0 <register_syscall>
800141f8:	00000000 	nop
800141fc:	03c0e825 	move	sp,s8
80014200:	8fbf0014 	lw	ra,20(sp)
80014204:	8fbe0010 	lw	s8,16(sp)
80014208:	27bd0018 	addiu	sp,sp,24
8001420c:	03e00008 	jr	ra
80014210:	00000000 	nop

80014214 <syscall>:
80014214:	27bdffe0 	addiu	sp,sp,-32
80014218:	afbf001c 	sw	ra,28(sp)
8001421c:	afbe0018 	sw	s8,24(sp)
80014220:	03a0f025 	move	s8,sp
80014224:	afc40020 	sw	a0,32(s8)
80014228:	afc50024 	sw	a1,36(s8)
8001422c:	afc60028 	sw	a2,40(s8)
80014230:	8fc20028 	lw	v0,40(s8)
80014234:	8c420008 	lw	v0,8(v0)
80014238:	afc20010 	sw	v0,16(s8)
8001423c:	8fc20028 	lw	v0,40(s8)
80014240:	8c420000 	lw	v0,0(v0)
80014244:	24430004 	addiu	v1,v0,4
80014248:	8fc20028 	lw	v0,40(s8)
8001424c:	ac430000 	sw	v1,0(v0)
80014250:	8fc20010 	lw	v0,16(s8)
80014254:	304200ff 	andi	v0,v0,0xff
80014258:	afc20010 	sw	v0,16(s8)
8001425c:	3c028003 	lui	v0,0x8003
80014260:	8fc30010 	lw	v1,16(s8)
80014264:	00031880 	sll	v1,v1,0x2
80014268:	2442d250 	addiu	v0,v0,-11696
8001426c:	00621021 	addu	v0,v1,v0
80014270:	8c420000 	lw	v0,0(v0)
80014274:	1040000c 	beqz	v0,800142a8 <syscall+0x94>
80014278:	00000000 	nop
8001427c:	3c028003 	lui	v0,0x8003
80014280:	8fc30010 	lw	v1,16(s8)
80014284:	00031880 	sll	v1,v1,0x2
80014288:	2442d250 	addiu	v0,v0,-11696
8001428c:	00621021 	addu	v0,v1,v0
80014290:	8c420000 	lw	v0,0(v0)
80014294:	8fc40020 	lw	a0,32(s8)
80014298:	8fc50024 	lw	a1,36(s8)
8001429c:	8fc60028 	lw	a2,40(s8)
800142a0:	0040f809 	jalr	v0
800142a4:	00000000 	nop
800142a8:	03c0e825 	move	sp,s8
800142ac:	8fbf001c 	lw	ra,28(sp)
800142b0:	8fbe0018 	lw	s8,24(sp)
800142b4:	27bd0020 	addiu	sp,sp,32
800142b8:	03e00008 	jr	ra
800142bc:	00000000 	nop

800142c0 <register_syscall>:
800142c0:	27bdfff8 	addiu	sp,sp,-8
800142c4:	afbe0004 	sw	s8,4(sp)
800142c8:	03a0f025 	move	s8,sp
800142cc:	afc40008 	sw	a0,8(s8)
800142d0:	afc5000c 	sw	a1,12(s8)
800142d4:	8fc20008 	lw	v0,8(s8)
800142d8:	304200ff 	andi	v0,v0,0xff
800142dc:	afc20008 	sw	v0,8(s8)
800142e0:	3c028003 	lui	v0,0x8003
800142e4:	8fc30008 	lw	v1,8(s8)
800142e8:	00031880 	sll	v1,v1,0x2
800142ec:	2442d250 	addiu	v0,v0,-11696
800142f0:	00621021 	addu	v0,v1,v0
800142f4:	8fc3000c 	lw	v1,12(s8)
800142f8:	ac430000 	sw	v1,0(v0)
800142fc:	03c0e825 	move	sp,s8
80014300:	8fbe0004 	lw	s8,4(sp)
80014304:	27bd0008 	addiu	sp,sp,8
80014308:	03e00008 	jr	ra
8001430c:	00000000 	nop

80014310 <syscall4>:
80014310:	27bdfff8 	addiu	sp,sp,-8
80014314:	afbe0004 	sw	s8,4(sp)
80014318:	03a0f025 	move	s8,sp
8001431c:	afc40008 	sw	a0,8(s8)
80014320:	afc5000c 	sw	a1,12(s8)
80014324:	afc60010 	sw	a2,16(s8)
80014328:	afc70014 	sw	a3,20(s8)
8001432c:	8f828018 	lw	v0,-32744(gp)
80014330:	8fc30008 	lw	v1,8(s8)
80014334:	ac430000 	sw	v1,0(v0)
80014338:	03c0e825 	move	sp,s8
8001433c:	8fbe0004 	lw	s8,4(sp)
80014340:	27bd0008 	addiu	sp,sp,8
80014344:	03e00008 	jr	ra
80014348:	00000000 	nop

8001434c <get_time_string>:
8001434c:	27bdffe8 	addiu	sp,sp,-24
80014350:	afbe0014 	sw	s8,20(sp)
80014354:	03a0f025 	move	s8,sp
80014358:	afc40018 	sw	a0,24(s8)
8001435c:	afc5001c 	sw	a1,28(s8)
80014360:	afc60020 	sw	a2,32(s8)
80014364:	8fc2001c 	lw	v0,28(s8)
80014368:	00021a02 	srl	v1,v0,0x8
8001436c:	8fc20018 	lw	v0,24(s8)
80014370:	00021600 	sll	v0,v0,0x18
80014374:	00621025 	or	v0,v1,v0
80014378:	afc2001c 	sw	v0,28(s8)
8001437c:	8fc20018 	lw	v0,24(s8)
80014380:	00021202 	srl	v0,v0,0x8
80014384:	afc20018 	sw	v0,24(s8)
80014388:	8fc20018 	lw	v0,24(s8)
8001438c:	3c0355e6 	lui	v1,0x55e6
80014390:	34633b89 	ori	v1,v1,0x3b89
80014394:	00430019 	multu	v0,v1
80014398:	00001810 	mfhi	v1
8001439c:	00032442 	srl	a0,v1,0x11
800143a0:	3c030005 	lui	v1,0x5
800143a4:	3463f5e1 	ori	v1,v1,0xf5e1
800143a8:	00830018 	mult	a0,v1
800143ac:	00001812 	mflo	v1
800143b0:	00431023 	subu	v0,v0,v1
800143b4:	afc20000 	sw	v0,0(s8)
800143b8:	8fc30000 	lw	v1,0(s8)
800143bc:	24022af3 	li	v0,10995
800143c0:	70622002 	mul	a0,v1,v0
800143c4:	8fc30000 	lw	v1,0(s8)
800143c8:	3402b16d 	li	v0,0xb16d
800143cc:	70621802 	mul	v1,v1,v0
800143d0:	3c0255e6 	lui	v0,0x55e6
800143d4:	34423b89 	ori	v0,v0,0x3b89
800143d8:	00620019 	multu	v1,v0
800143dc:	00001010 	mfhi	v0
800143e0:	00021442 	srl	v0,v0,0x11
800143e4:	3c050005 	lui	a1,0x5
800143e8:	34a5f5e1 	ori	a1,a1,0xf5e1
800143ec:	00450018 	mult	v0,a1
800143f0:	00001012 	mflo	v0
800143f4:	00621023 	subu	v0,v1,v0
800143f8:	00821021 	addu	v0,a0,v0
800143fc:	afc20000 	sw	v0,0(s8)
80014400:	8fc3001c 	lw	v1,28(s8)
80014404:	3c0255e6 	lui	v0,0x55e6
80014408:	34423b89 	ori	v0,v0,0x3b89
8001440c:	00620019 	multu	v1,v0
80014410:	00001010 	mfhi	v0
80014414:	00021442 	srl	v0,v0,0x11
80014418:	8fc30000 	lw	v1,0(s8)
8001441c:	00621021 	addu	v0,v1,v0
80014420:	afc20000 	sw	v0,0(s8)
80014424:	8fc30000 	lw	v1,0(s8)
80014428:	3c028888 	lui	v0,0x8888
8001442c:	34428889 	ori	v0,v0,0x8889
80014430:	00620019 	multu	v1,v0
80014434:	00001010 	mfhi	v0
80014438:	00021142 	srl	v0,v0,0x5
8001443c:	afc20004 	sw	v0,4(s8)
80014440:	8fc30004 	lw	v1,4(s8)
80014444:	3c028888 	lui	v0,0x8888
80014448:	34428889 	ori	v0,v0,0x8889
8001444c:	00620019 	multu	v1,v0
80014450:	00001010 	mfhi	v0
80014454:	00021142 	srl	v0,v0,0x5
80014458:	afc20008 	sw	v0,8(s8)
8001445c:	8fc40000 	lw	a0,0(s8)
80014460:	3c028888 	lui	v0,0x8888
80014464:	34428889 	ori	v0,v0,0x8889
80014468:	00820019 	multu	a0,v0
8001446c:	00001010 	mfhi	v0
80014470:	00021142 	srl	v0,v0,0x5
80014474:	00401825 	move	v1,v0
80014478:	00031080 	sll	v0,v1,0x2
8001447c:	00401825 	move	v1,v0
80014480:	00031100 	sll	v0,v1,0x4
80014484:	00431023 	subu	v0,v0,v1
80014488:	00821023 	subu	v0,a0,v0
8001448c:	afc20000 	sw	v0,0(s8)
80014490:	8fc40004 	lw	a0,4(s8)
80014494:	3c028888 	lui	v0,0x8888
80014498:	34428889 	ori	v0,v0,0x8889
8001449c:	00820019 	multu	a0,v0
800144a0:	00001010 	mfhi	v0
800144a4:	00021142 	srl	v0,v0,0x5
800144a8:	00401825 	move	v1,v0
800144ac:	00031080 	sll	v0,v1,0x2
800144b0:	00401825 	move	v1,v0
800144b4:	00031100 	sll	v0,v1,0x4
800144b8:	00431023 	subu	v0,v0,v1
800144bc:	00821023 	subu	v0,a0,v0
800144c0:	afc20004 	sw	v0,4(s8)
800144c4:	8fc40008 	lw	a0,8(s8)
800144c8:	3c02aaaa 	lui	v0,0xaaaa
800144cc:	3442aaab 	ori	v0,v0,0xaaab
800144d0:	00820019 	multu	a0,v0
800144d4:	00001010 	mfhi	v0
800144d8:	00021102 	srl	v0,v0,0x4
800144dc:	00401825 	move	v1,v0
800144e0:	000310c0 	sll	v0,v1,0x3
800144e4:	00401825 	move	v1,v0
800144e8:	00031080 	sll	v0,v1,0x2
800144ec:	00431023 	subu	v0,v0,v1
800144f0:	00821023 	subu	v0,a0,v0
800144f4:	afc20008 	sw	v0,8(s8)
800144f8:	8fc30008 	lw	v1,8(s8)
800144fc:	3c02cccc 	lui	v0,0xcccc
80014500:	3442cccd 	ori	v0,v0,0xcccd
80014504:	00620019 	multu	v1,v0
80014508:	00001010 	mfhi	v0
8001450c:	000210c2 	srl	v0,v0,0x3
80014510:	304200ff 	andi	v0,v0,0xff
80014514:	24420030 	addiu	v0,v0,48
80014518:	304300ff 	andi	v1,v0,0xff
8001451c:	8fc20020 	lw	v0,32(s8)
80014520:	a0430000 	sb	v1,0(v0)
80014524:	8fc20020 	lw	v0,32(s8)
80014528:	24440001 	addiu	a0,v0,1
8001452c:	8fc30008 	lw	v1,8(s8)
80014530:	3c02cccc 	lui	v0,0xcccc
80014534:	3442cccd 	ori	v0,v0,0xcccd
80014538:	00620019 	multu	v1,v0
8001453c:	00001010 	mfhi	v0
80014540:	000210c2 	srl	v0,v0,0x3
80014544:	00021040 	sll	v0,v0,0x1
80014548:	00022880 	sll	a1,v0,0x2
8001454c:	00451021 	addu	v0,v0,a1
80014550:	00621023 	subu	v0,v1,v0
80014554:	304200ff 	andi	v0,v0,0xff
80014558:	24420030 	addiu	v0,v0,48
8001455c:	304200ff 	andi	v0,v0,0xff
80014560:	a0820000 	sb	v0,0(a0)
80014564:	8fc20020 	lw	v0,32(s8)
80014568:	24420002 	addiu	v0,v0,2
8001456c:	2403003a 	li	v1,58
80014570:	a0430000 	sb	v1,0(v0)
80014574:	8fc20020 	lw	v0,32(s8)
80014578:	24420003 	addiu	v0,v0,3
8001457c:	8fc40004 	lw	a0,4(s8)
80014580:	3c03cccc 	lui	v1,0xcccc
80014584:	3463cccd 	ori	v1,v1,0xcccd
80014588:	00830019 	multu	a0,v1
8001458c:	00001810 	mfhi	v1
80014590:	000318c2 	srl	v1,v1,0x3
80014594:	306300ff 	andi	v1,v1,0xff
80014598:	24630030 	addiu	v1,v1,48
8001459c:	306300ff 	andi	v1,v1,0xff
800145a0:	a0430000 	sb	v1,0(v0)
800145a4:	8fc20020 	lw	v0,32(s8)
800145a8:	24440004 	addiu	a0,v0,4
800145ac:	8fc30004 	lw	v1,4(s8)
800145b0:	3c02cccc 	lui	v0,0xcccc
800145b4:	3442cccd 	ori	v0,v0,0xcccd
800145b8:	00620019 	multu	v1,v0
800145bc:	00001010 	mfhi	v0
800145c0:	000210c2 	srl	v0,v0,0x3
800145c4:	00021040 	sll	v0,v0,0x1
800145c8:	00022880 	sll	a1,v0,0x2
800145cc:	00451021 	addu	v0,v0,a1
800145d0:	00621023 	subu	v0,v1,v0
800145d4:	304200ff 	andi	v0,v0,0xff
800145d8:	24420030 	addiu	v0,v0,48
800145dc:	304200ff 	andi	v0,v0,0xff
800145e0:	a0820000 	sb	v0,0(a0)
800145e4:	8fc20020 	lw	v0,32(s8)
800145e8:	24420005 	addiu	v0,v0,5
800145ec:	2403003a 	li	v1,58
800145f0:	a0430000 	sb	v1,0(v0)
800145f4:	8fc20020 	lw	v0,32(s8)
800145f8:	24420006 	addiu	v0,v0,6
800145fc:	8fc40000 	lw	a0,0(s8)
80014600:	3c03cccc 	lui	v1,0xcccc
80014604:	3463cccd 	ori	v1,v1,0xcccd
80014608:	00830019 	multu	a0,v1
8001460c:	00001810 	mfhi	v1
80014610:	000318c2 	srl	v1,v1,0x3
80014614:	306300ff 	andi	v1,v1,0xff
80014618:	24630030 	addiu	v1,v1,48
8001461c:	306300ff 	andi	v1,v1,0xff
80014620:	a0430000 	sb	v1,0(v0)
80014624:	8fc20020 	lw	v0,32(s8)
80014628:	24440007 	addiu	a0,v0,7
8001462c:	8fc30000 	lw	v1,0(s8)
80014630:	3c02cccc 	lui	v0,0xcccc
80014634:	3442cccd 	ori	v0,v0,0xcccd
80014638:	00620019 	multu	v1,v0
8001463c:	00001010 	mfhi	v0
80014640:	000210c2 	srl	v0,v0,0x3
80014644:	00021040 	sll	v0,v0,0x1
80014648:	00022880 	sll	a1,v0,0x2
8001464c:	00451021 	addu	v0,v0,a1
80014650:	00621023 	subu	v0,v1,v0
80014654:	304200ff 	andi	v0,v0,0xff
80014658:	24420030 	addiu	v0,v0,48
8001465c:	304200ff 	andi	v0,v0,0xff
80014660:	a0820000 	sb	v0,0(a0)
80014664:	03c0e825 	move	sp,s8
80014668:	8fbe0014 	lw	s8,20(sp)
8001466c:	27bd0018 	addiu	sp,sp,24
80014670:	03e00008 	jr	ra
80014674:	00000000 	nop

80014678 <time_handler>:
80014678:	27bdffc8 	addiu	sp,sp,-56
8001467c:	afbf0034 	sw	ra,52(sp)
80014680:	afbe0030 	sw	s8,48(sp)
80014684:	03a0f025 	move	s8,sp
80014688:	afc40038 	sw	a0,56(s8)
8001468c:	afc5003c 	sw	a1,60(s8)
80014690:	afc60040 	sw	a2,64(s8)
80014694:	3c028002 	lui	v0,0x8002
80014698:	244298e8 	addiu	v0,v0,-26392
8001469c:	afc2001c 	sw	v0,28(s8)
800146a0:	40034806 	mfc0	v1,$9,6
800146a4:	40024807 	mfc0	v0,$9,7
800146a8:	afc30020 	sw	v1,32(s8)
800146ac:	afc20024 	sw	v0,36(s8)
800146b0:	27c20028 	addiu	v0,s8,40
800146b4:	8fc40024 	lw	a0,36(s8)
800146b8:	8fc50020 	lw	a1,32(s8)
800146bc:	00403025 	move	a2,v0
800146c0:	0c0050d3 	jal	8001434c <get_time_string>
800146c4:	00000000 	nop
800146c8:	afc00018 	sw	zero,24(s8)
800146cc:	10000012 	b	80014718 <time_handler+0xa0>
800146d0:	00000000 	nop
800146d4:	8fc20018 	lw	v0,24(s8)
800146d8:	8fc3001c 	lw	v1,28(s8)
800146dc:	00621021 	addu	v0,v1,v0
800146e0:	90420000 	lbu	v0,0(v0)
800146e4:	00401825 	move	v1,v0
800146e8:	8fc20018 	lw	v0,24(s8)
800146ec:	2442003d 	addiu	v0,v0,61
800146f0:	afa20010 	sw	v0,16(sp)
800146f4:	00602025 	move	a0,v1
800146f8:	24050fff 	li	a1,4095
800146fc:	00003025 	move	a2,zero
80014700:	2407001d 	li	a3,29
80014704:	0c0007e8 	jal	80001fa0 <kernel_putchar_at>
80014708:	00000000 	nop
8001470c:	8fc20018 	lw	v0,24(s8)
80014710:	24420001 	addiu	v0,v0,1
80014714:	afc20018 	sw	v0,24(s8)
80014718:	8fc20018 	lw	v0,24(s8)
8001471c:	2842000b 	slti	v0,v0,11
80014720:	1440ffec 	bnez	v0,800146d4 <time_handler+0x5c>
80014724:	00000000 	nop
80014728:	afc00018 	sw	zero,24(s8)
8001472c:	10000012 	b	80014778 <time_handler+0x100>
80014730:	00000000 	nop
80014734:	8fc20018 	lw	v0,24(s8)
80014738:	27c30018 	addiu	v1,s8,24
8001473c:	00621021 	addu	v0,v1,v0
80014740:	90420010 	lbu	v0,16(v0)
80014744:	00401825 	move	v1,v0
80014748:	8fc20018 	lw	v0,24(s8)
8001474c:	24420048 	addiu	v0,v0,72
80014750:	afa20010 	sw	v0,16(sp)
80014754:	00602025 	move	a0,v1
80014758:	24050fff 	li	a1,4095
8001475c:	00003025 	move	a2,zero
80014760:	2407001d 	li	a3,29
80014764:	0c0007e8 	jal	80001fa0 <kernel_putchar_at>
80014768:	00000000 	nop
8001476c:	8fc20018 	lw	v0,24(s8)
80014770:	24420001 	addiu	v0,v0,1
80014774:	afc20018 	sw	v0,24(s8)
80014778:	8fc20018 	lw	v0,24(s8)
8001477c:	28420008 	slti	v0,v0,8
80014780:	1440ffec 	bnez	v0,80014734 <time_handler+0xbc>
80014784:	00000000 	nop
80014788:	40804800 	mtc0	zero,c0_count
8001478c:	03c0e825 	move	sp,s8
80014790:	8fbf0034 	lw	ra,52(sp)
80014794:	8fbe0030 	lw	s8,48(sp)
80014798:	27bd0038 	addiu	sp,sp,56
8001479c:	03e00008 	jr	ra
800147a0:	00000000 	nop

800147a4 <init_time>:
800147a4:	27bdffe8 	addiu	sp,sp,-24
800147a8:	afbf0014 	sw	ra,20(sp)
800147ac:	afbe0010 	sw	s8,16(sp)
800147b0:	03a0f025 	move	s8,sp
800147b4:	24040007 	li	a0,7
800147b8:	3c028001 	lui	v0,0x8001
800147bc:	24454678 	addiu	a1,v0,18040
800147c0:	0c0004b7 	jal	800012dc <register_interrupt_handler>
800147c4:	00000000 	nop
800147c8:	3c0205f5 	lui	v0,0x5f5
800147cc:	3442e100 	ori	v0,v0,0xe100
800147d0:	40825800 	mtc0	v0,c0_compare
800147d4:	40804800 	mtc0	zero,c0_count
800147d8:	03c0e825 	move	sp,s8
800147dc:	8fbf0014 	lw	ra,20(sp)
800147e0:	8fbe0010 	lw	s8,16(sp)
800147e4:	27bd0018 	addiu	sp,sp,24
800147e8:	03e00008 	jr	ra
800147ec:	00000000 	nop

800147f0 <get_time>:
800147f0:	27bdffe0 	addiu	sp,sp,-32
800147f4:	afbf001c 	sw	ra,28(sp)
800147f8:	afbe0018 	sw	s8,24(sp)
800147fc:	03a0f025 	move	s8,sp
80014800:	afc40020 	sw	a0,32(s8)
80014804:	afc50024 	sw	a1,36(s8)
80014808:	8fc20024 	lw	v0,36(s8)
8001480c:	28420009 	slti	v0,v0,9
80014810:	10400007 	beqz	v0,80014830 <get_time+0x40>
80014814:	00000000 	nop
80014818:	3c028002 	lui	v0,0x8002
8001481c:	244498f4 	addiu	a0,v0,-26380
80014820:	3c028002 	lui	v0,0x8002
80014824:	24459900 	addiu	a1,v0,-26368
80014828:	0c005c3f 	jal	800170fc <badassert>
8001482c:	00000000 	nop
80014830:	40034806 	mfc0	v1,$9,6
80014834:	40024807 	mfc0	v0,$9,7
80014838:	afc30010 	sw	v1,16(s8)
8001483c:	afc20014 	sw	v0,20(s8)
80014840:	8fc40014 	lw	a0,20(s8)
80014844:	8fc50010 	lw	a1,16(s8)
80014848:	8fc60020 	lw	a2,32(s8)
8001484c:	0c0050d3 	jal	8001434c <get_time_string>
80014850:	00000000 	nop
80014854:	8fc20020 	lw	v0,32(s8)
80014858:	24420008 	addiu	v0,v0,8
8001485c:	a0400000 	sb	zero,0(v0)
80014860:	03c0e825 	move	sp,s8
80014864:	8fbf001c 	lw	ra,28(sp)
80014868:	8fbe0018 	lw	s8,24(sp)
8001486c:	27bd0020 	addiu	sp,sp,32
80014870:	03e00008 	jr	ra
80014874:	00000000 	nop

80014878 <cut_front_blank>:
80014878:	27bdfff0 	addiu	sp,sp,-16
8001487c:	afbe000c 	sw	s8,12(sp)
80014880:	03a0f025 	move	s8,sp
80014884:	afc40010 	sw	a0,16(s8)
80014888:	8fc20010 	lw	v0,16(s8)
8001488c:	afc20000 	sw	v0,0(s8)
80014890:	afc00004 	sw	zero,4(s8)
80014894:	10000007 	b	800148b4 <cut_front_blank+0x3c>
80014898:	00000000 	nop
8001489c:	8fc20000 	lw	v0,0(s8)
800148a0:	24420001 	addiu	v0,v0,1
800148a4:	afc20000 	sw	v0,0(s8)
800148a8:	8fc20004 	lw	v0,4(s8)
800148ac:	24420001 	addiu	v0,v0,1
800148b0:	afc20004 	sw	v0,4(s8)
800148b4:	8fc20000 	lw	v0,0(s8)
800148b8:	90430000 	lbu	v1,0(v0)
800148bc:	24020020 	li	v0,32
800148c0:	1062fff6 	beq	v1,v0,8001489c <cut_front_blank+0x24>
800148c4:	00000000 	nop
800148c8:	8fc20004 	lw	v0,4(s8)
800148cc:	14400004 	bnez	v0,800148e0 <cut_front_blank+0x68>
800148d0:	00000000 	nop
800148d4:	8fc20010 	lw	v0,16(s8)
800148d8:	10000017 	b	80014938 <cut_front_blank+0xc0>
800148dc:	00000000 	nop
800148e0:	1000000b 	b	80014910 <cut_front_blank+0x98>
800148e4:	00000000 	nop
800148e8:	8fc20004 	lw	v0,4(s8)
800148ec:	00021023 	negu	v0,v0
800148f0:	8fc30000 	lw	v1,0(s8)
800148f4:	00621021 	addu	v0,v1,v0
800148f8:	8fc30000 	lw	v1,0(s8)
800148fc:	90630000 	lbu	v1,0(v1)
80014900:	a0430000 	sb	v1,0(v0)
80014904:	8fc20000 	lw	v0,0(s8)
80014908:	24420001 	addiu	v0,v0,1
8001490c:	afc20000 	sw	v0,0(s8)
80014910:	8fc20000 	lw	v0,0(s8)
80014914:	90420000 	lbu	v0,0(v0)
80014918:	1440fff3 	bnez	v0,800148e8 <cut_front_blank+0x70>
8001491c:	00000000 	nop
80014920:	8fc20000 	lw	v0,0(s8)
80014924:	2442ffff 	addiu	v0,v0,-1
80014928:	afc20000 	sw	v0,0(s8)
8001492c:	8fc20000 	lw	v0,0(s8)
80014930:	a0400000 	sb	zero,0(v0)
80014934:	8fc20010 	lw	v0,16(s8)
80014938:	03c0e825 	move	sp,s8
8001493c:	8fbe000c 	lw	s8,12(sp)
80014940:	27bd0010 	addiu	sp,sp,16
80014944:	03e00008 	jr	ra
80014948:	00000000 	nop

8001494c <each_param>:
8001494c:	27bdfff0 	addiu	sp,sp,-16
80014950:	afbe000c 	sw	s8,12(sp)
80014954:	03a0f025 	move	s8,sp
80014958:	afc40010 	sw	a0,16(s8)
8001495c:	afc50014 	sw	a1,20(s8)
80014960:	afc60018 	sw	a2,24(s8)
80014964:	00e01025 	move	v0,a3
80014968:	a3c2001c 	sb	v0,28(s8)
8001496c:	afc00000 	sw	zero,0(s8)
80014970:	1000000f 	b	800149b0 <each_param+0x64>
80014974:	00000000 	nop
80014978:	8fc20000 	lw	v0,0(s8)
8001497c:	8fc30014 	lw	v1,20(s8)
80014980:	00621021 	addu	v0,v1,v0
80014984:	8fc40010 	lw	a0,16(s8)
80014988:	8fc30018 	lw	v1,24(s8)
8001498c:	00831821 	addu	v1,a0,v1
80014990:	90630000 	lbu	v1,0(v1)
80014994:	a0430000 	sb	v1,0(v0)
80014998:	8fc20000 	lw	v0,0(s8)
8001499c:	24420001 	addiu	v0,v0,1
800149a0:	afc20000 	sw	v0,0(s8)
800149a4:	8fc20018 	lw	v0,24(s8)
800149a8:	24420001 	addiu	v0,v0,1
800149ac:	afc20018 	sw	v0,24(s8)
800149b0:	8fc30010 	lw	v1,16(s8)
800149b4:	8fc20018 	lw	v0,24(s8)
800149b8:	00621021 	addu	v0,v1,v0
800149bc:	90420000 	lbu	v0,0(v0)
800149c0:	10400008 	beqz	v0,800149e4 <each_param+0x98>
800149c4:	00000000 	nop
800149c8:	8fc30010 	lw	v1,16(s8)
800149cc:	8fc20018 	lw	v0,24(s8)
800149d0:	00621021 	addu	v0,v1,v0
800149d4:	90420000 	lbu	v0,0(v0)
800149d8:	93c3001c 	lbu	v1,28(s8)
800149dc:	1462ffe6 	bne	v1,v0,80014978 <each_param+0x2c>
800149e0:	00000000 	nop
800149e4:	8fc20000 	lw	v0,0(s8)
800149e8:	8fc30014 	lw	v1,20(s8)
800149ec:	00621021 	addu	v0,v1,v0
800149f0:	a0400000 	sb	zero,0(v0)
800149f4:	8fc20018 	lw	v0,24(s8)
800149f8:	03c0e825 	move	sp,s8
800149fc:	8fbe000c 	lw	s8,12(sp)
80014a00:	27bd0010 	addiu	sp,sp,16
80014a04:	03e00008 	jr	ra
80014a08:	00000000 	nop

80014a0c <handle_path>:
80014a0c:	27bdffd8 	addiu	sp,sp,-40
80014a10:	afbf0024 	sw	ra,36(sp)
80014a14:	afbe0020 	sw	s8,32(sp)
80014a18:	03a0f025 	move	s8,sp
80014a1c:	afc40028 	sw	a0,40(s8)
80014a20:	afc5002c 	sw	a1,44(s8)
80014a24:	8fc40028 	lw	a0,40(s8)
80014a28:	0c005e71 	jal	800179c4 <kernel_strlen>
80014a2c:	00000000 	nop
80014a30:	24420001 	addiu	v0,v0,1
80014a34:	00402025 	move	a0,v0
80014a38:	0c003abb 	jal	8000eaec <kmalloc>
80014a3c:	00000000 	nop
80014a40:	afc20010 	sw	v0,16(s8)
80014a44:	27c20018 	addiu	v0,s8,24
80014a48:	8fc40028 	lw	a0,40(s8)
80014a4c:	00402825 	move	a1,v0
80014a50:	8fc60010 	lw	a2,16(s8)
80014a54:	24070004 	li	a3,4
80014a58:	0c002974 	jal	8000a5d0 <vfs_lookparent>
80014a5c:	00000000 	nop
80014a60:	afc20014 	sw	v0,20(s8)
80014a64:	8fc20014 	lw	v0,20(s8)
80014a68:	1440000a 	bnez	v0,80014a94 <handle_path+0x88>
80014a6c:	00000000 	nop
80014a70:	8fc40010 	lw	a0,16(s8)
80014a74:	0c005e71 	jal	800179c4 <kernel_strlen>
80014a78:	00000000 	nop
80014a7c:	24420001 	addiu	v0,v0,1
80014a80:	8fc4002c 	lw	a0,44(s8)
80014a84:	8fc50010 	lw	a1,16(s8)
80014a88:	00403025 	move	a2,v0
80014a8c:	0c005d71 	jal	800175c4 <kernel_memcpy>
80014a90:	00000000 	nop
80014a94:	03c0e825 	move	sp,s8
80014a98:	8fbf0024 	lw	ra,36(sp)
80014a9c:	8fbe0020 	lw	s8,32(sp)
80014aa0:	27bd0028 	addiu	sp,sp,40
80014aa4:	03e00008 	jr	ra
80014aa8:	00000000 	nop

80014aac <ls>:
80014aac:	27bdff08 	addiu	sp,sp,-248
80014ab0:	afbf00f4 	sw	ra,244(sp)
80014ab4:	afbe00f0 	sw	s8,240(sp)
80014ab8:	03a0f025 	move	s8,sp
80014abc:	afc400f8 	sw	a0,248(s8)
80014ac0:	8fc400f8 	lw	a0,248(s8)
80014ac4:	0c005e71 	jal	800179c4 <kernel_strlen>
80014ac8:	00000000 	nop
80014acc:	24420001 	addiu	v0,v0,1
80014ad0:	00402025 	move	a0,v0
80014ad4:	0c003abb 	jal	8000eaec <kmalloc>
80014ad8:	00000000 	nop
80014adc:	afc20010 	sw	v0,16(s8)
80014ae0:	8fc400f8 	lw	a0,248(s8)
80014ae4:	8fc50010 	lw	a1,16(s8)
80014ae8:	0c005283 	jal	80014a0c <handle_path>
80014aec:	00000000 	nop
80014af0:	8fc40010 	lw	a0,16(s8)
80014af4:	0c005e71 	jal	800179c4 <kernel_strlen>
80014af8:	00000000 	nop
80014afc:	14400007 	bnez	v0,80014b1c <ls+0x70>
80014b00:	00000000 	nop
80014b04:	3c028002 	lui	v0,0x8002
80014b08:	2444992c 	addiu	a0,v0,-26324
80014b0c:	3c028002 	lui	v0,0x8002
80014b10:	24459948 	addiu	a1,v0,-26296
80014b14:	0c005c3f 	jal	800170fc <badassert>
80014b18:	00000000 	nop
80014b1c:	8fc20010 	lw	v0,16(s8)
80014b20:	afc20014 	sw	v0,20(s8)
80014b24:	8fc40014 	lw	a0,20(s8)
80014b28:	0c00521e 	jal	80014878 <cut_front_blank>
80014b2c:	00000000 	nop
80014b30:	afc20014 	sw	v0,20(s8)
80014b34:	8fc40014 	lw	a0,20(s8)
80014b38:	0c005e71 	jal	800179c4 <kernel_strlen>
80014b3c:	00000000 	nop
80014b40:	afc20018 	sw	v0,24(s8)
80014b44:	27c20024 	addiu	v0,s8,36
80014b48:	8fc40014 	lw	a0,20(s8)
80014b4c:	00402825 	move	a1,v0
80014b50:	00003025 	move	a2,zero
80014b54:	24070020 	li	a3,32
80014b58:	0c005253 	jal	8001494c <each_param>
80014b5c:	00000000 	nop
80014b60:	afc2001c 	sw	v0,28(s8)
80014b64:	27c300e4 	addiu	v1,s8,228
80014b68:	27c20024 	addiu	v0,s8,36
80014b6c:	00602025 	move	a0,v1
80014b70:	00402825 	move	a1,v0
80014b74:	0c000ac3 	jal	80002b0c <fs_open_dir>
80014b78:	00000000 	nop
80014b7c:	1040000a 	beqz	v0,80014ba8 <ls+0xfc>
80014b80:	00000000 	nop
80014b84:	27c30024 	addiu	v1,s8,36
80014b88:	3c028002 	lui	v0,0x8002
80014b8c:	2444995c 	addiu	a0,v0,-26276
80014b90:	00602825 	move	a1,v1
80014b94:	0c000aaa 	jal	80002aa8 <kernel_printf>
80014b98:	00000000 	nop
80014b9c:	24020001 	li	v0,1
80014ba0:	1000003c 	b	80014c94 <ls+0x1e8>
80014ba4:	00000000 	nop
80014ba8:	27c300e4 	addiu	v1,s8,228
80014bac:	27c200a4 	addiu	v0,s8,164
80014bb0:	00602025 	move	a0,v1
80014bb4:	00402825 	move	a1,v0
80014bb8:	0c000b56 	jal	80002d58 <fs_read_dir>
80014bbc:	00000000 	nop
80014bc0:	afc20020 	sw	v0,32(s8)
80014bc4:	8fc30020 	lw	v1,32(s8)
80014bc8:	24020001 	li	v0,1
80014bcc:	1062002d 	beq	v1,v0,80014c84 <ls+0x1d8>
80014bd0:	00000000 	nop
80014bd4:	8fc30020 	lw	v1,32(s8)
80014bd8:	2402ffff 	li	v0,-1
80014bdc:	1462000b 	bne	v1,v0,80014c0c <ls+0x160>
80014be0:	00000000 	nop
80014be4:	3c028002 	lui	v0,0x8002
80014be8:	24449988 	addiu	a0,v0,-26232
80014bec:	0c000aaa 	jal	80002aa8 <kernel_printf>
80014bf0:	00000000 	nop
80014bf4:	8fc40010 	lw	a0,16(s8)
80014bf8:	0c003b13 	jal	8000ec4c <kfree>
80014bfc:	00000000 	nop
80014c00:	00001025 	move	v0,zero
80014c04:	10000023 	b	80014c94 <ls+0x1e8>
80014c08:	00000000 	nop
80014c0c:	27c300a4 	addiu	v1,s8,164
80014c10:	27c200c4 	addiu	v0,s8,196
80014c14:	00602025 	move	a0,v1
80014c18:	00402825 	move	a1,v0
80014c1c:	0c00168a 	jal	80005a28 <get_filename>
80014c20:	00000000 	nop
80014c24:	93c300af 	lbu	v1,175(s8)
80014c28:	24020010 	li	v0,16
80014c2c:	14620009 	bne	v1,v0,80014c54 <ls+0x1a8>
80014c30:	00000000 	nop
80014c34:	27c300c4 	addiu	v1,s8,196
80014c38:	3c028002 	lui	v0,0x8002
80014c3c:	2444998c 	addiu	a0,v0,-26228
80014c40:	00602825 	move	a1,v1
80014c44:	0c000aaa 	jal	80002aa8 <kernel_printf>
80014c48:	00000000 	nop
80014c4c:	10000007 	b	80014c6c <ls+0x1c0>
80014c50:	00000000 	nop
80014c54:	27c300c4 	addiu	v1,s8,196
80014c58:	3c028002 	lui	v0,0x8002
80014c5c:	24449990 	addiu	a0,v0,-26224
80014c60:	00602825 	move	a1,v1
80014c64:	0c000aaa 	jal	80002aa8 <kernel_printf>
80014c68:	00000000 	nop
80014c6c:	3c028002 	lui	v0,0x8002
80014c70:	24449988 	addiu	a0,v0,-26232
80014c74:	0c000aaa 	jal	80002aa8 <kernel_printf>
80014c78:	00000000 	nop
80014c7c:	1000ffca 	b	80014ba8 <ls+0xfc>
80014c80:	00000000 	nop
80014c84:	8fc40010 	lw	a0,16(s8)
80014c88:	0c003b13 	jal	8000ec4c <kfree>
80014c8c:	00000000 	nop
80014c90:	24020001 	li	v0,1
80014c94:	03c0e825 	move	sp,s8
80014c98:	8fbf00f4 	lw	ra,244(sp)
80014c9c:	8fbe00f0 	lw	s8,240(sp)
80014ca0:	27bd00f8 	addiu	sp,sp,248
80014ca4:	03e00008 	jr	ra
80014ca8:	00000000 	nop

80014cac <abs_to_rel>:
80014cac:	27bdffd8 	addiu	sp,sp,-40
80014cb0:	afbf0024 	sw	ra,36(sp)
80014cb4:	afbe0020 	sw	s8,32(sp)
80014cb8:	03a0f025 	move	s8,sp
80014cbc:	afc40028 	sw	a0,40(s8)
80014cc0:	afc5002c 	sw	a1,44(s8)
80014cc4:	27c20014 	addiu	v0,s8,20
80014cc8:	00402025 	move	a0,v0
80014ccc:	8fc50028 	lw	a1,40(s8)
80014cd0:	24060004 	li	a2,4
80014cd4:	0c005d71 	jal	800175c4 <kernel_memcpy>
80014cd8:	00000000 	nop
80014cdc:	a3c00018 	sb	zero,24(s8)
80014ce0:	27c20014 	addiu	v0,s8,20
80014ce4:	00402025 	move	a0,v0
80014ce8:	3c028002 	lui	v0,0x8002
80014cec:	24459994 	addiu	a1,v0,-26220
80014cf0:	0c005e4f 	jal	8001793c <kernel_strcmp>
80014cf4:	00000000 	nop
80014cf8:	1440000c 	bnez	v0,80014d2c <abs_to_rel+0x80>
80014cfc:	00000000 	nop
80014d00:	8fc40028 	lw	a0,40(s8)
80014d04:	0c005e71 	jal	800179c4 <kernel_strlen>
80014d08:	00000000 	nop
80014d0c:	24420001 	addiu	v0,v0,1
80014d10:	8fc4002c 	lw	a0,44(s8)
80014d14:	8fc50028 	lw	a1,40(s8)
80014d18:	00403025 	move	a2,v0
80014d1c:	0c005d71 	jal	800175c4 <kernel_memcpy>
80014d20:	00000000 	nop
80014d24:	10000023 	b	80014db4 <abs_to_rel+0x108>
80014d28:	00000000 	nop
80014d2c:	3c028003 	lui	v0,0x8003
80014d30:	2444d650 	addiu	a0,v0,-10672
80014d34:	0c005edc 	jal	80017b70 <kernel_strdup>
80014d38:	00000000 	nop
80014d3c:	afc20010 	sw	v0,16(s8)
80014d40:	8fc40010 	lw	a0,16(s8)
80014d44:	0c005e71 	jal	800179c4 <kernel_strlen>
80014d48:	00000000 	nop
80014d4c:	2442ffff 	addiu	v0,v0,-1
80014d50:	8fc30010 	lw	v1,16(s8)
80014d54:	00621021 	addu	v0,v1,v0
80014d58:	90430000 	lbu	v1,0(v0)
80014d5c:	2402002f 	li	v0,47
80014d60:	10620006 	beq	v1,v0,80014d7c <abs_to_rel+0xd0>
80014d64:	00000000 	nop
80014d68:	8fc40010 	lw	a0,16(s8)
80014d6c:	3c028002 	lui	v0,0x8002
80014d70:	2445999c 	addiu	a1,v0,-26212
80014d74:	0c005ec4 	jal	80017b10 <kernel_strcat>
80014d78:	00000000 	nop
80014d7c:	8fc40010 	lw	a0,16(s8)
80014d80:	8fc50028 	lw	a1,40(s8)
80014d84:	0c005ec4 	jal	80017b10 <kernel_strcat>
80014d88:	00000000 	nop
80014d8c:	8fc40010 	lw	a0,16(s8)
80014d90:	0c005e71 	jal	800179c4 <kernel_strlen>
80014d94:	00000000 	nop
80014d98:	24420001 	addiu	v0,v0,1
80014d9c:	8fc4002c 	lw	a0,44(s8)
80014da0:	8fc50010 	lw	a1,16(s8)
80014da4:	00403025 	move	a2,v0
80014da8:	0c005d71 	jal	800175c4 <kernel_memcpy>
80014dac:	00000000 	nop
80014db0:	00000000 	nop
80014db4:	03c0e825 	move	sp,s8
80014db8:	8fbf0024 	lw	ra,36(sp)
80014dbc:	8fbe0020 	lw	s8,32(sp)
80014dc0:	27bd0028 	addiu	sp,sp,40
80014dc4:	03e00008 	jr	ra
80014dc8:	00000000 	nop

80014dcc <cmd_clear>:
80014dcc:	27bdffe8 	addiu	sp,sp,-24
80014dd0:	afbf0014 	sw	ra,20(sp)
80014dd4:	afbe0010 	sw	s8,16(sp)
80014dd8:	03a0f025 	move	s8,sp
80014ddc:	afc40018 	sw	a0,24(s8)
80014de0:	afc5001c 	sw	a1,28(s8)
80014de4:	2404001f 	li	a0,31
80014de8:	0c0007a3 	jal	80001e8c <kernel_clear_screen>
80014dec:	00000000 	nop
80014df0:	00001025 	move	v0,zero
80014df4:	03c0e825 	move	sp,s8
80014df8:	8fbf0014 	lw	ra,20(sp)
80014dfc:	8fbe0010 	lw	s8,16(sp)
80014e00:	27bd0018 	addiu	sp,sp,24
80014e04:	03e00008 	jr	ra
80014e08:	00000000 	nop

80014e0c <cmd_echo>:
80014e0c:	27bdffe8 	addiu	sp,sp,-24
80014e10:	afbf0014 	sw	ra,20(sp)
80014e14:	afbe0010 	sw	s8,16(sp)
80014e18:	03a0f025 	move	s8,sp
80014e1c:	afc40018 	sw	a0,24(s8)
80014e20:	afc5001c 	sw	a1,28(s8)
80014e24:	8fc2001c 	lw	v0,28(s8)
80014e28:	24420004 	addiu	v0,v0,4
80014e2c:	8c430000 	lw	v1,0(v0)
80014e30:	3c028002 	lui	v0,0x8002
80014e34:	244499a0 	addiu	a0,v0,-26208
80014e38:	00602825 	move	a1,v1
80014e3c:	0c000aaa 	jal	80002aa8 <kernel_printf>
80014e40:	00000000 	nop
80014e44:	00001025 	move	v0,zero
80014e48:	03c0e825 	move	sp,s8
80014e4c:	8fbf0014 	lw	ra,20(sp)
80014e50:	8fbe0010 	lw	s8,16(sp)
80014e54:	27bd0018 	addiu	sp,sp,24
80014e58:	03e00008 	jr	ra
80014e5c:	00000000 	nop

80014e60 <cmd_time>:
80014e60:	27bdffd8 	addiu	sp,sp,-40
80014e64:	afbf0024 	sw	ra,36(sp)
80014e68:	afbe0020 	sw	s8,32(sp)
80014e6c:	03a0f025 	move	s8,sp
80014e70:	afc40028 	sw	a0,40(s8)
80014e74:	afc5002c 	sw	a1,44(s8)
80014e78:	27c20010 	addiu	v0,s8,16
80014e7c:	00402025 	move	a0,v0
80014e80:	2405000a 	li	a1,10
80014e84:	0c0051fc 	jal	800147f0 <get_time>
80014e88:	00000000 	nop
80014e8c:	3c028002 	lui	v0,0x8002
80014e90:	244499a0 	addiu	a0,v0,-26208
80014e94:	27c20010 	addiu	v0,s8,16
80014e98:	00402825 	move	a1,v0
80014e9c:	0c000aaa 	jal	80002aa8 <kernel_printf>
80014ea0:	00000000 	nop
80014ea4:	00001025 	move	v0,zero
80014ea8:	03c0e825 	move	sp,s8
80014eac:	8fbf0024 	lw	ra,36(sp)
80014eb0:	8fbe0020 	lw	s8,32(sp)
80014eb4:	27bd0028 	addiu	sp,sp,40
80014eb8:	03e00008 	jr	ra
80014ebc:	00000000 	nop

80014ec0 <cmd_syscall4>:
80014ec0:	27bdfff8 	addiu	sp,sp,-8
80014ec4:	afbe0004 	sw	s8,4(sp)
80014ec8:	03a0f025 	move	s8,sp
80014ecc:	afc40008 	sw	a0,8(s8)
80014ed0:	afc5000c 	sw	a1,12(s8)
80014ed4:	240400ff 	li	a0,255
80014ed8:	24020004 	li	v0,4
80014edc:	0000000c 	syscall
80014ee0:	00000000 	nop
80014ee4:	00001025 	move	v0,zero
80014ee8:	03c0e825 	move	sp,s8
80014eec:	8fbe0004 	lw	s8,4(sp)
80014ef0:	27bd0008 	addiu	sp,sp,8
80014ef4:	03e00008 	jr	ra
80014ef8:	00000000 	nop

80014efc <cmd_sdwi>:
80014efc:	27bdffe0 	addiu	sp,sp,-32
80014f00:	afbf001c 	sw	ra,28(sp)
80014f04:	afbe0018 	sw	s8,24(sp)
80014f08:	03a0f025 	move	s8,sp
80014f0c:	afc40020 	sw	a0,32(s8)
80014f10:	afc50024 	sw	a1,36(s8)
80014f14:	afc00010 	sw	zero,16(s8)
80014f18:	1000000b 	b	80014f48 <cmd_sdwi+0x4c>
80014f1c:	00000000 	nop
80014f20:	8fc20010 	lw	v0,16(s8)
80014f24:	304300ff 	andi	v1,v0,0xff
80014f28:	3c028003 	lui	v0,0x8003
80014f2c:	2444d790 	addiu	a0,v0,-10352
80014f30:	8fc20010 	lw	v0,16(s8)
80014f34:	00821021 	addu	v0,a0,v0
80014f38:	a0430000 	sb	v1,0(v0)
80014f3c:	8fc20010 	lw	v0,16(s8)
80014f40:	24420001 	addiu	v0,v0,1
80014f44:	afc20010 	sw	v0,16(s8)
80014f48:	8fc20010 	lw	v0,16(s8)
80014f4c:	28420200 	slti	v0,v0,512
80014f50:	1440fff3 	bnez	v0,80014f20 <cmd_sdwi+0x24>
80014f54:	00000000 	nop
80014f58:	3c028003 	lui	v0,0x8003
80014f5c:	2444d790 	addiu	a0,v0,-10352
80014f60:	24050007 	li	a1,7
80014f64:	24060001 	li	a2,1
80014f68:	0c00074e 	jal	80001d38 <sd_write_block>
80014f6c:	00000000 	nop
80014f70:	3c028002 	lui	v0,0x8002
80014f74:	244499a4 	addiu	a0,v0,-26204
80014f78:	24050fff 	li	a1,4095
80014f7c:	00003025 	move	a2,zero
80014f80:	0c00088b 	jal	8000222c <kernel_puts>
80014f84:	00000000 	nop
80014f88:	00001025 	move	v0,zero
80014f8c:	03c0e825 	move	sp,s8
80014f90:	8fbf001c 	lw	ra,28(sp)
80014f94:	8fbe0018 	lw	s8,24(sp)
80014f98:	27bd0020 	addiu	sp,sp,32
80014f9c:	03e00008 	jr	ra
80014fa0:	00000000 	nop

80014fa4 <cmd_sdr>:
80014fa4:	27bdffe0 	addiu	sp,sp,-32
80014fa8:	afbf001c 	sw	ra,28(sp)
80014fac:	afbe0018 	sw	s8,24(sp)
80014fb0:	03a0f025 	move	s8,sp
80014fb4:	afc40020 	sw	a0,32(s8)
80014fb8:	afc50024 	sw	a1,36(s8)
80014fbc:	3c028003 	lui	v0,0x8003
80014fc0:	2444d790 	addiu	a0,v0,-10352
80014fc4:	24050007 	li	a1,7
80014fc8:	24060001 	li	a2,1
80014fcc:	0c000721 	jal	80001c84 <sd_read_block>
80014fd0:	00000000 	nop
80014fd4:	afc00010 	sw	zero,16(s8)
80014fd8:	1000000f 	b	80015018 <cmd_sdr+0x74>
80014fdc:	00000000 	nop
80014fe0:	3c028003 	lui	v0,0x8003
80014fe4:	2443d790 	addiu	v1,v0,-10352
80014fe8:	8fc20010 	lw	v0,16(s8)
80014fec:	00621021 	addu	v0,v1,v0
80014ff0:	90420000 	lbu	v0,0(v0)
80014ff4:	00401825 	move	v1,v0
80014ff8:	3c028002 	lui	v0,0x8002
80014ffc:	244499ac 	addiu	a0,v0,-26196
80015000:	00602825 	move	a1,v1
80015004:	0c000aaa 	jal	80002aa8 <kernel_printf>
80015008:	00000000 	nop
8001500c:	8fc20010 	lw	v0,16(s8)
80015010:	24420001 	addiu	v0,v0,1
80015014:	afc20010 	sw	v0,16(s8)
80015018:	8fc20010 	lw	v0,16(s8)
8001501c:	28420200 	slti	v0,v0,512
80015020:	1440ffef 	bnez	v0,80014fe0 <cmd_sdr+0x3c>
80015024:	00000000 	nop
80015028:	2404000a 	li	a0,10
8001502c:	24050fff 	li	a1,4095
80015030:	00003025 	move	a2,zero
80015034:	0c000810 	jal	80002040 <kernel_putchar>
80015038:	00000000 	nop
8001503c:	00001025 	move	v0,zero
80015040:	03c0e825 	move	sp,s8
80015044:	8fbf001c 	lw	ra,28(sp)
80015048:	8fbe0018 	lw	s8,24(sp)
8001504c:	27bd0020 	addiu	sp,sp,32
80015050:	03e00008 	jr	ra
80015054:	00000000 	nop

80015058 <cmd_sdwz>:
80015058:	27bdffe0 	addiu	sp,sp,-32
8001505c:	afbf001c 	sw	ra,28(sp)
80015060:	afbe0018 	sw	s8,24(sp)
80015064:	03a0f025 	move	s8,sp
80015068:	afc40020 	sw	a0,32(s8)
8001506c:	afc50024 	sw	a1,36(s8)
80015070:	afc00010 	sw	zero,16(s8)
80015074:	10000009 	b	8001509c <cmd_sdwz+0x44>
80015078:	00000000 	nop
8001507c:	3c028003 	lui	v0,0x8003
80015080:	2443d790 	addiu	v1,v0,-10352
80015084:	8fc20010 	lw	v0,16(s8)
80015088:	00621021 	addu	v0,v1,v0
8001508c:	a0400000 	sb	zero,0(v0)
80015090:	8fc20010 	lw	v0,16(s8)
80015094:	24420001 	addiu	v0,v0,1
80015098:	afc20010 	sw	v0,16(s8)
8001509c:	8fc20010 	lw	v0,16(s8)
800150a0:	28420200 	slti	v0,v0,512
800150a4:	1440fff5 	bnez	v0,8001507c <cmd_sdwz+0x24>
800150a8:	00000000 	nop
800150ac:	3c028003 	lui	v0,0x8003
800150b0:	2444d790 	addiu	a0,v0,-10352
800150b4:	24050007 	li	a1,7
800150b8:	24060001 	li	a2,1
800150bc:	0c00074e 	jal	80001d38 <sd_write_block>
800150c0:	00000000 	nop
800150c4:	3c028002 	lui	v0,0x8002
800150c8:	244499b0 	addiu	a0,v0,-26192
800150cc:	24050fff 	li	a1,4095
800150d0:	00003025 	move	a2,zero
800150d4:	0c00088b 	jal	8000222c <kernel_puts>
800150d8:	00000000 	nop
800150dc:	00001025 	move	v0,zero
800150e0:	03c0e825 	move	sp,s8
800150e4:	8fbf001c 	lw	ra,28(sp)
800150e8:	8fbe0018 	lw	s8,24(sp)
800150ec:	27bd0020 	addiu	sp,sp,32
800150f0:	03e00008 	jr	ra
800150f4:	00000000 	nop

800150f8 <cmd_mminfo>:
800150f8:	27bdffe8 	addiu	sp,sp,-24
800150fc:	afbf0014 	sw	ra,20(sp)
80015100:	afbe0010 	sw	s8,16(sp)
80015104:	03a0f025 	move	s8,sp
80015108:	afc40018 	sw	a0,24(s8)
8001510c:	afc5001c 	sw	a1,28(s8)
80015110:	0c003222 	jal	8000c888 <bootmap_info>
80015114:	00000000 	nop
80015118:	0c0034a4 	jal	8000d290 <buddy_info>
8001511c:	00000000 	nop
80015120:	00001025 	move	v0,zero
80015124:	03c0e825 	move	sp,s8
80015128:	8fbf0014 	lw	ra,20(sp)
8001512c:	8fbe0010 	lw	s8,16(sp)
80015130:	27bd0018 	addiu	sp,sp,24
80015134:	03e00008 	jr	ra
80015138:	00000000 	nop

8001513c <cmd_mmtest>:
8001513c:	27bdffe0 	addiu	sp,sp,-32
80015140:	afbf001c 	sw	ra,28(sp)
80015144:	afbe0018 	sw	s8,24(sp)
80015148:	03a0f025 	move	s8,sp
8001514c:	afc40020 	sw	a0,32(s8)
80015150:	afc50024 	sw	a1,36(s8)
80015154:	24040400 	li	a0,1024
80015158:	0c003abb 	jal	8000eaec <kmalloc>
8001515c:	00000000 	nop
80015160:	afc20010 	sw	v0,16(s8)
80015164:	3c028002 	lui	v0,0x8002
80015168:	244499b8 	addiu	a0,v0,-26184
8001516c:	8fc50010 	lw	a1,16(s8)
80015170:	0c000aaa 	jal	80002aa8 <kernel_printf>
80015174:	00000000 	nop
80015178:	8fc40010 	lw	a0,16(s8)
8001517c:	0c003b13 	jal	8000ec4c <kfree>
80015180:	00000000 	nop
80015184:	3c028002 	lui	v0,0x8002
80015188:	244499d4 	addiu	a0,v0,-26156
8001518c:	0c000aaa 	jal	80002aa8 <kernel_printf>
80015190:	00000000 	nop
80015194:	00001025 	move	v0,zero
80015198:	03c0e825 	move	sp,s8
8001519c:	8fbf001c 	lw	ra,28(sp)
800151a0:	8fbe0018 	lw	s8,24(sp)
800151a4:	27bd0020 	addiu	sp,sp,32
800151a8:	03e00008 	jr	ra
800151ac:	00000000 	nop

800151b0 <cmd_slubtest>:
800151b0:	27bdffa8 	addiu	sp,sp,-88
800151b4:	afbf0054 	sw	ra,84(sp)
800151b8:	afbe0050 	sw	s8,80(sp)
800151bc:	03a0f025 	move	s8,sp
800151c0:	afc40058 	sw	a0,88(s8)
800151c4:	afc5005c 	sw	a1,92(s8)
800151c8:	afc0001c 	sw	zero,28(s8)
800151cc:	afc00020 	sw	zero,32(s8)
800151d0:	afc00024 	sw	zero,36(s8)
800151d4:	afc00028 	sw	zero,40(s8)
800151d8:	afc0002c 	sw	zero,44(s8)
800151dc:	afc00030 	sw	zero,48(s8)
800151e0:	afc00034 	sw	zero,52(s8)
800151e4:	afc00038 	sw	zero,56(s8)
800151e8:	afc0003c 	sw	zero,60(s8)
800151ec:	afc00040 	sw	zero,64(s8)
800151f0:	afc00044 	sw	zero,68(s8)
800151f4:	afc00048 	sw	zero,72(s8)
800151f8:	24020060 	li	v0,96
800151fc:	afc2001c 	sw	v0,28(s8)
80015200:	240200c0 	li	v0,192
80015204:	afc20020 	sw	v0,32(s8)
80015208:	24020008 	li	v0,8
8001520c:	afc20024 	sw	v0,36(s8)
80015210:	24020010 	li	v0,16
80015214:	afc20028 	sw	v0,40(s8)
80015218:	24020020 	li	v0,32
8001521c:	afc2002c 	sw	v0,44(s8)
80015220:	24020040 	li	v0,64
80015224:	afc20030 	sw	v0,48(s8)
80015228:	24020080 	li	v0,128
8001522c:	afc20034 	sw	v0,52(s8)
80015230:	24020100 	li	v0,256
80015234:	afc20038 	sw	v0,56(s8)
80015238:	24020200 	li	v0,512
8001523c:	afc2003c 	sw	v0,60(s8)
80015240:	24020400 	li	v0,1024
80015244:	afc20040 	sw	v0,64(s8)
80015248:	afc00010 	sw	zero,16(s8)
8001524c:	1000000d 	b	80015284 <cmd_slubtest+0xd4>
80015250:	00000000 	nop
80015254:	24040007 	li	a0,7
80015258:	0c003abb 	jal	8000eaec <kmalloc>
8001525c:	00000000 	nop
80015260:	afc20014 	sw	v0,20(s8)
80015264:	3c028002 	lui	v0,0x8002
80015268:	244499b8 	addiu	a0,v0,-26184
8001526c:	8fc50014 	lw	a1,20(s8)
80015270:	0c000aaa 	jal	80002aa8 <kernel_printf>
80015274:	00000000 	nop
80015278:	8fc20010 	lw	v0,16(s8)
8001527c:	24420001 	addiu	v0,v0,1
80015280:	afc20010 	sw	v0,16(s8)
80015284:	8fc20010 	lw	v0,16(s8)
80015288:	2c42000a 	sltiu	v0,v0,10
8001528c:	1440fff1 	bnez	v0,80015254 <cmd_slubtest+0xa4>
80015290:	00000000 	nop
80015294:	afc00010 	sw	zero,16(s8)
80015298:	1000000d 	b	800152d0 <cmd_slubtest+0x120>
8001529c:	00000000 	nop
800152a0:	24040009 	li	a0,9
800152a4:	0c003abb 	jal	8000eaec <kmalloc>
800152a8:	00000000 	nop
800152ac:	afc20018 	sw	v0,24(s8)
800152b0:	3c028002 	lui	v0,0x8002
800152b4:	244499b8 	addiu	a0,v0,-26184
800152b8:	8fc50018 	lw	a1,24(s8)
800152bc:	0c000aaa 	jal	80002aa8 <kernel_printf>
800152c0:	00000000 	nop
800152c4:	8fc20010 	lw	v0,16(s8)
800152c8:	24420001 	addiu	v0,v0,1
800152cc:	afc20010 	sw	v0,16(s8)
800152d0:	8fc20010 	lw	v0,16(s8)
800152d4:	2c42000a 	sltiu	v0,v0,10
800152d8:	1440fff1 	bnez	v0,800152a0 <cmd_slubtest+0xf0>
800152dc:	00000000 	nop
800152e0:	00001025 	move	v0,zero
800152e4:	03c0e825 	move	sp,s8
800152e8:	8fbf0054 	lw	ra,84(sp)
800152ec:	8fbe0050 	lw	s8,80(sp)
800152f0:	27bd0058 	addiu	sp,sp,88
800152f4:	03e00008 	jr	ra
800152f8:	00000000 	nop

800152fc <cmd_buddytest>:
800152fc:	27bdffe0 	addiu	sp,sp,-32
80015300:	afbf001c 	sw	ra,28(sp)
80015304:	afbe0018 	sw	s8,24(sp)
80015308:	03a0f025 	move	s8,sp
8001530c:	afc40020 	sw	a0,32(s8)
80015310:	afc50024 	sw	a1,36(s8)
80015314:	3c040001 	lui	a0,0x1
80015318:	0c003abb 	jal	8000eaec <kmalloc>
8001531c:	00000000 	nop
80015320:	afc20010 	sw	v0,16(s8)
80015324:	3c028002 	lui	v0,0x8002
80015328:	244499b8 	addiu	a0,v0,-26184
8001532c:	8fc50010 	lw	a1,16(s8)
80015330:	0c000aaa 	jal	80002aa8 <kernel_printf>
80015334:	00000000 	nop
80015338:	34048000 	li	a0,0x8000
8001533c:	0c003abb 	jal	8000eaec <kmalloc>
80015340:	00000000 	nop
80015344:	afc20010 	sw	v0,16(s8)
80015348:	3c028002 	lui	v0,0x8002
8001534c:	244499b8 	addiu	a0,v0,-26184
80015350:	8fc50010 	lw	a1,16(s8)
80015354:	0c000aaa 	jal	80002aa8 <kernel_printf>
80015358:	00000000 	nop
8001535c:	24044000 	li	a0,16384
80015360:	0c003abb 	jal	8000eaec <kmalloc>
80015364:	00000000 	nop
80015368:	afc20010 	sw	v0,16(s8)
8001536c:	3c028002 	lui	v0,0x8002
80015370:	244499b8 	addiu	a0,v0,-26184
80015374:	8fc50010 	lw	a1,16(s8)
80015378:	0c000aaa 	jal	80002aa8 <kernel_printf>
8001537c:	00000000 	nop
80015380:	24042000 	li	a0,8192
80015384:	0c003abb 	jal	8000eaec <kmalloc>
80015388:	00000000 	nop
8001538c:	afc20010 	sw	v0,16(s8)
80015390:	3c028002 	lui	v0,0x8002
80015394:	244499b8 	addiu	a0,v0,-26184
80015398:	8fc50010 	lw	a1,16(s8)
8001539c:	0c000aaa 	jal	80002aa8 <kernel_printf>
800153a0:	00000000 	nop
800153a4:	00001025 	move	v0,zero
800153a8:	03c0e825 	move	sp,s8
800153ac:	8fbf001c 	lw	ra,28(sp)
800153b0:	8fbe0018 	lw	s8,24(sp)
800153b4:	27bd0020 	addiu	sp,sp,32
800153b8:	03e00008 	jr	ra
800153bc:	00000000 	nop

800153c0 <cmd_buddy>:
800153c0:	27bdffe0 	addiu	sp,sp,-32
800153c4:	afbf001c 	sw	ra,28(sp)
800153c8:	afbe0018 	sw	s8,24(sp)
800153cc:	03a0f025 	move	s8,sp
800153d0:	afc40020 	sw	a0,32(s8)
800153d4:	afc50024 	sw	a1,36(s8)
800153d8:	24041000 	li	a0,4096
800153dc:	0c003abb 	jal	8000eaec <kmalloc>
800153e0:	00000000 	nop
800153e4:	afc20010 	sw	v0,16(s8)
800153e8:	3c028002 	lui	v0,0x8002
800153ec:	244499e4 	addiu	a0,v0,-26140
800153f0:	8fc50010 	lw	a1,16(s8)
800153f4:	0c000aaa 	jal	80002aa8 <kernel_printf>
800153f8:	00000000 	nop
800153fc:	24041000 	li	a0,4096
80015400:	0c003abb 	jal	8000eaec <kmalloc>
80015404:	00000000 	nop
80015408:	afc20010 	sw	v0,16(s8)
8001540c:	3c028002 	lui	v0,0x8002
80015410:	244499e4 	addiu	a0,v0,-26140
80015414:	8fc50010 	lw	a1,16(s8)
80015418:	0c000aaa 	jal	80002aa8 <kernel_printf>
8001541c:	00000000 	nop
80015420:	24041000 	li	a0,4096
80015424:	0c003abb 	jal	8000eaec <kmalloc>
80015428:	00000000 	nop
8001542c:	afc20010 	sw	v0,16(s8)
80015430:	3c028002 	lui	v0,0x8002
80015434:	244499e4 	addiu	a0,v0,-26140
80015438:	8fc50010 	lw	a1,16(s8)
8001543c:	0c000aaa 	jal	80002aa8 <kernel_printf>
80015440:	00000000 	nop
80015444:	24042000 	li	a0,8192
80015448:	0c003abb 	jal	8000eaec <kmalloc>
8001544c:	00000000 	nop
80015450:	afc20010 	sw	v0,16(s8)
80015454:	3c028002 	lui	v0,0x8002
80015458:	24449a00 	addiu	a0,v0,-26112
8001545c:	8fc50010 	lw	a1,16(s8)
80015460:	0c000aaa 	jal	80002aa8 <kernel_printf>
80015464:	00000000 	nop
80015468:	24041000 	li	a0,4096
8001546c:	0c003abb 	jal	8000eaec <kmalloc>
80015470:	00000000 	nop
80015474:	afc20010 	sw	v0,16(s8)
80015478:	3c028002 	lui	v0,0x8002
8001547c:	244499e4 	addiu	a0,v0,-26140
80015480:	8fc50010 	lw	a1,16(s8)
80015484:	0c000aaa 	jal	80002aa8 <kernel_printf>
80015488:	00000000 	nop
8001548c:	8fc40010 	lw	a0,16(s8)
80015490:	0c003b13 	jal	8000ec4c <kfree>
80015494:	00000000 	nop
80015498:	8fc40010 	lw	a0,16(s8)
8001549c:	0c003b13 	jal	8000ec4c <kfree>
800154a0:	00000000 	nop
800154a4:	24041000 	li	a0,4096
800154a8:	0c003abb 	jal	8000eaec <kmalloc>
800154ac:	00000000 	nop
800154b0:	afc20010 	sw	v0,16(s8)
800154b4:	3c028002 	lui	v0,0x8002
800154b8:	244499e4 	addiu	a0,v0,-26140
800154bc:	8fc50010 	lw	a1,16(s8)
800154c0:	0c000aaa 	jal	80002aa8 <kernel_printf>
800154c4:	00000000 	nop
800154c8:	24041000 	li	a0,4096
800154cc:	0c003abb 	jal	8000eaec <kmalloc>
800154d0:	00000000 	nop
800154d4:	afc20010 	sw	v0,16(s8)
800154d8:	3c028002 	lui	v0,0x8002
800154dc:	244499e4 	addiu	a0,v0,-26140
800154e0:	8fc50010 	lw	a1,16(s8)
800154e4:	0c000aaa 	jal	80002aa8 <kernel_printf>
800154e8:	00000000 	nop
800154ec:	24041000 	li	a0,4096
800154f0:	0c003abb 	jal	8000eaec <kmalloc>
800154f4:	00000000 	nop
800154f8:	afc20010 	sw	v0,16(s8)
800154fc:	3c028002 	lui	v0,0x8002
80015500:	244499e4 	addiu	a0,v0,-26140
80015504:	8fc50010 	lw	a1,16(s8)
80015508:	0c000aaa 	jal	80002aa8 <kernel_printf>
8001550c:	00000000 	nop
80015510:	24041000 	li	a0,4096
80015514:	0c003abb 	jal	8000eaec <kmalloc>
80015518:	00000000 	nop
8001551c:	afc20010 	sw	v0,16(s8)
80015520:	3c028002 	lui	v0,0x8002
80015524:	244499e4 	addiu	a0,v0,-26140
80015528:	8fc50010 	lw	a1,16(s8)
8001552c:	0c000aaa 	jal	80002aa8 <kernel_printf>
80015530:	00000000 	nop
80015534:	00001025 	move	v0,zero
80015538:	03c0e825 	move	sp,s8
8001553c:	8fbf001c 	lw	ra,28(sp)
80015540:	8fbe0018 	lw	s8,24(sp)
80015544:	27bd0020 	addiu	sp,sp,32
80015548:	03e00008 	jr	ra
8001554c:	00000000 	nop

80015550 <cmd_slub>:
80015550:	27bdffd8 	addiu	sp,sp,-40
80015554:	afbf0024 	sw	ra,36(sp)
80015558:	afbe0020 	sw	s8,32(sp)
8001555c:	03a0f025 	move	s8,sp
80015560:	afc40028 	sw	a0,40(s8)
80015564:	afc5002c 	sw	a1,44(s8)
80015568:	24040400 	li	a0,1024
8001556c:	0c003abb 	jal	8000eaec <kmalloc>
80015570:	00000000 	nop
80015574:	afc20010 	sw	v0,16(s8)
80015578:	3c028002 	lui	v0,0x8002
8001557c:	244499e4 	addiu	a0,v0,-26140
80015580:	8fc50010 	lw	a1,16(s8)
80015584:	0c000aaa 	jal	80002aa8 <kernel_printf>
80015588:	00000000 	nop
8001558c:	24040400 	li	a0,1024
80015590:	0c003abb 	jal	8000eaec <kmalloc>
80015594:	00000000 	nop
80015598:	afc20014 	sw	v0,20(s8)
8001559c:	3c028002 	lui	v0,0x8002
800155a0:	244499e4 	addiu	a0,v0,-26140
800155a4:	8fc50014 	lw	a1,20(s8)
800155a8:	0c000aaa 	jal	80002aa8 <kernel_printf>
800155ac:	00000000 	nop
800155b0:	24040400 	li	a0,1024
800155b4:	0c003abb 	jal	8000eaec <kmalloc>
800155b8:	00000000 	nop
800155bc:	afc20018 	sw	v0,24(s8)
800155c0:	3c028002 	lui	v0,0x8002
800155c4:	244499e4 	addiu	a0,v0,-26140
800155c8:	8fc50018 	lw	a1,24(s8)
800155cc:	0c000aaa 	jal	80002aa8 <kernel_printf>
800155d0:	00000000 	nop
800155d4:	8fc40014 	lw	a0,20(s8)
800155d8:	0c003b13 	jal	8000ec4c <kfree>
800155dc:	00000000 	nop
800155e0:	8fc40010 	lw	a0,16(s8)
800155e4:	0c003b13 	jal	8000ec4c <kfree>
800155e8:	00000000 	nop
800155ec:	8fc40014 	lw	a0,20(s8)
800155f0:	0c003b13 	jal	8000ec4c <kfree>
800155f4:	00000000 	nop
800155f8:	8fc40010 	lw	a0,16(s8)
800155fc:	0c003b13 	jal	8000ec4c <kfree>
80015600:	00000000 	nop
80015604:	24040400 	li	a0,1024
80015608:	0c003abb 	jal	8000eaec <kmalloc>
8001560c:	00000000 	nop
80015610:	afc20014 	sw	v0,20(s8)
80015614:	3c028002 	lui	v0,0x8002
80015618:	244499e4 	addiu	a0,v0,-26140
8001561c:	8fc50014 	lw	a1,20(s8)
80015620:	0c000aaa 	jal	80002aa8 <kernel_printf>
80015624:	00000000 	nop
80015628:	24040400 	li	a0,1024
8001562c:	0c003abb 	jal	8000eaec <kmalloc>
80015630:	00000000 	nop
80015634:	afc20014 	sw	v0,20(s8)
80015638:	3c028002 	lui	v0,0x8002
8001563c:	244499e4 	addiu	a0,v0,-26140
80015640:	8fc50014 	lw	a1,20(s8)
80015644:	0c000aaa 	jal	80002aa8 <kernel_printf>
80015648:	00000000 	nop
8001564c:	24040400 	li	a0,1024
80015650:	0c003abb 	jal	8000eaec <kmalloc>
80015654:	00000000 	nop
80015658:	afc20014 	sw	v0,20(s8)
8001565c:	3c028002 	lui	v0,0x8002
80015660:	244499e4 	addiu	a0,v0,-26140
80015664:	8fc50014 	lw	a1,20(s8)
80015668:	0c000aaa 	jal	80002aa8 <kernel_printf>
8001566c:	00000000 	nop
80015670:	24040400 	li	a0,1024
80015674:	0c003abb 	jal	8000eaec <kmalloc>
80015678:	00000000 	nop
8001567c:	afc20014 	sw	v0,20(s8)
80015680:	3c028002 	lui	v0,0x8002
80015684:	244499e4 	addiu	a0,v0,-26140
80015688:	8fc50014 	lw	a1,20(s8)
8001568c:	0c000aaa 	jal	80002aa8 <kernel_printf>
80015690:	00000000 	nop
80015694:	00001025 	move	v0,zero
80015698:	03c0e825 	move	sp,s8
8001569c:	8fbf0024 	lw	ra,36(sp)
800156a0:	8fbe0020 	lw	s8,32(sp)
800156a4:	27bd0028 	addiu	sp,sp,40
800156a8:	03e00008 	jr	ra
800156ac:	00000000 	nop

800156b0 <cmd_slub2>:
800156b0:	27bdffd8 	addiu	sp,sp,-40
800156b4:	afbf0024 	sw	ra,36(sp)
800156b8:	afbe0020 	sw	s8,32(sp)
800156bc:	03a0f025 	move	s8,sp
800156c0:	afc40028 	sw	a0,40(s8)
800156c4:	afc5002c 	sw	a1,44(s8)
800156c8:	24040400 	li	a0,1024
800156cc:	0c003abb 	jal	8000eaec <kmalloc>
800156d0:	00000000 	nop
800156d4:	afc20010 	sw	v0,16(s8)
800156d8:	3c028002 	lui	v0,0x8002
800156dc:	244499e4 	addiu	a0,v0,-26140
800156e0:	8fc50010 	lw	a1,16(s8)
800156e4:	0c000aaa 	jal	80002aa8 <kernel_printf>
800156e8:	00000000 	nop
800156ec:	24040400 	li	a0,1024
800156f0:	0c003abb 	jal	8000eaec <kmalloc>
800156f4:	00000000 	nop
800156f8:	afc20014 	sw	v0,20(s8)
800156fc:	3c028002 	lui	v0,0x8002
80015700:	244499e4 	addiu	a0,v0,-26140
80015704:	8fc50014 	lw	a1,20(s8)
80015708:	0c000aaa 	jal	80002aa8 <kernel_printf>
8001570c:	00000000 	nop
80015710:	24040400 	li	a0,1024
80015714:	0c003abb 	jal	8000eaec <kmalloc>
80015718:	00000000 	nop
8001571c:	afc20018 	sw	v0,24(s8)
80015720:	3c028002 	lui	v0,0x8002
80015724:	244499e4 	addiu	a0,v0,-26140
80015728:	8fc50018 	lw	a1,24(s8)
8001572c:	0c000aaa 	jal	80002aa8 <kernel_printf>
80015730:	00000000 	nop
80015734:	8fc40010 	lw	a0,16(s8)
80015738:	0c003b13 	jal	8000ec4c <kfree>
8001573c:	00000000 	nop
80015740:	8fc40014 	lw	a0,20(s8)
80015744:	0c003b13 	jal	8000ec4c <kfree>
80015748:	00000000 	nop
8001574c:	8fc40018 	lw	a0,24(s8)
80015750:	0c003b13 	jal	8000ec4c <kfree>
80015754:	00000000 	nop
80015758:	3c028002 	lui	v0,0x8002
8001575c:	24449a1c 	addiu	a0,v0,-26084
80015760:	0c000aaa 	jal	80002aa8 <kernel_printf>
80015764:	00000000 	nop
80015768:	24040400 	li	a0,1024
8001576c:	0c003abb 	jal	8000eaec <kmalloc>
80015770:	00000000 	nop
80015774:	afc20014 	sw	v0,20(s8)
80015778:	3c028002 	lui	v0,0x8002
8001577c:	244499e4 	addiu	a0,v0,-26140
80015780:	8fc50014 	lw	a1,20(s8)
80015784:	0c000aaa 	jal	80002aa8 <kernel_printf>
80015788:	00000000 	nop
8001578c:	24040400 	li	a0,1024
80015790:	0c003abb 	jal	8000eaec <kmalloc>
80015794:	00000000 	nop
80015798:	afc20014 	sw	v0,20(s8)
8001579c:	3c028002 	lui	v0,0x8002
800157a0:	244499e4 	addiu	a0,v0,-26140
800157a4:	8fc50014 	lw	a1,20(s8)
800157a8:	0c000aaa 	jal	80002aa8 <kernel_printf>
800157ac:	00000000 	nop
800157b0:	24040400 	li	a0,1024
800157b4:	0c003abb 	jal	8000eaec <kmalloc>
800157b8:	00000000 	nop
800157bc:	afc20014 	sw	v0,20(s8)
800157c0:	3c028002 	lui	v0,0x8002
800157c4:	244499e4 	addiu	a0,v0,-26140
800157c8:	8fc50014 	lw	a1,20(s8)
800157cc:	0c000aaa 	jal	80002aa8 <kernel_printf>
800157d0:	00000000 	nop
800157d4:	24040400 	li	a0,1024
800157d8:	0c003abb 	jal	8000eaec <kmalloc>
800157dc:	00000000 	nop
800157e0:	afc20014 	sw	v0,20(s8)
800157e4:	3c028002 	lui	v0,0x8002
800157e8:	244499e4 	addiu	a0,v0,-26140
800157ec:	8fc50014 	lw	a1,20(s8)
800157f0:	0c000aaa 	jal	80002aa8 <kernel_printf>
800157f4:	00000000 	nop
800157f8:	00001025 	move	v0,zero
800157fc:	03c0e825 	move	sp,s8
80015800:	8fbf0024 	lw	ra,36(sp)
80015804:	8fbe0020 	lw	s8,32(sp)
80015808:	27bd0028 	addiu	sp,sp,40
8001580c:	03e00008 	jr	ra
80015810:	00000000 	nop

80015814 <cmd_pwd>:
80015814:	27bdffe8 	addiu	sp,sp,-24
80015818:	afbf0014 	sw	ra,20(sp)
8001581c:	afbe0010 	sw	s8,16(sp)
80015820:	03a0f025 	move	s8,sp
80015824:	afc40018 	sw	a0,24(s8)
80015828:	afc5001c 	sw	a1,28(s8)
8001582c:	3c028002 	lui	v0,0x8002
80015830:	244499a0 	addiu	a0,v0,-26208
80015834:	3c028003 	lui	v0,0x8003
80015838:	2445d650 	addiu	a1,v0,-10672
8001583c:	0c000aaa 	jal	80002aa8 <kernel_printf>
80015840:	00000000 	nop
80015844:	00001025 	move	v0,zero
80015848:	03c0e825 	move	sp,s8
8001584c:	8fbf0014 	lw	ra,20(sp)
80015850:	8fbe0010 	lw	s8,16(sp)
80015854:	27bd0018 	addiu	sp,sp,24
80015858:	03e00008 	jr	ra
8001585c:	00000000 	nop

80015860 <cmd_cd>:
80015860:	27bdfe88 	addiu	sp,sp,-376
80015864:	afbf0174 	sw	ra,372(sp)
80015868:	afbe0170 	sw	s8,368(sp)
8001586c:	afb0016c 	sw	s0,364(sp)
80015870:	03a0f025 	move	s8,sp
80015874:	afc40178 	sw	a0,376(s8)
80015878:	afc5017c 	sw	a1,380(s8)
8001587c:	8fc30178 	lw	v1,376(s8)
80015880:	24020001 	li	v0,1
80015884:	14620017 	bne	v1,v0,800158e4 <cmd_cd+0x84>
80015888:	00000000 	nop
8001588c:	3c028003 	lui	v0,0x8003
80015890:	2444d650 	addiu	a0,v0,-10672
80015894:	0c005e71 	jal	800179c4 <kernel_strlen>
80015898:	00000000 	nop
8001589c:	24420001 	addiu	v0,v0,1
800158a0:	00401825 	move	v1,v0
800158a4:	3c028003 	lui	v0,0x8003
800158a8:	2444d650 	addiu	a0,v0,-10672
800158ac:	00002825 	move	a1,zero
800158b0:	00603025 	move	a2,v1
800158b4:	0c005d92 	jal	80017648 <kernel_memset>
800158b8:	00000000 	nop
800158bc:	3c028003 	lui	v0,0x8003
800158c0:	2444d650 	addiu	a0,v0,-10672
800158c4:	3c028002 	lui	v0,0x8002
800158c8:	24459994 	addiu	a1,v0,-26220
800158cc:	24060005 	li	a2,5
800158d0:	0c005d71 	jal	800175c4 <kernel_memcpy>
800158d4:	00000000 	nop
800158d8:	00001025 	move	v0,zero
800158dc:	100000f5 	b	80015cb4 <cmd_cd+0x454>
800158e0:	00000000 	nop
800158e4:	8fc2017c 	lw	v0,380(s8)
800158e8:	24420004 	addiu	v0,v0,4
800158ec:	8c420000 	lw	v0,0(v0)
800158f0:	00402025 	move	a0,v0
800158f4:	3c028002 	lui	v0,0x8002
800158f8:	24459a2c 	addiu	a1,v0,-26068
800158fc:	0c005e4f 	jal	8001793c <kernel_strcmp>
80015900:	00000000 	nop
80015904:	14400004 	bnez	v0,80015918 <cmd_cd+0xb8>
80015908:	00000000 	nop
8001590c:	00001025 	move	v0,zero
80015910:	100000e8 	b	80015cb4 <cmd_cd+0x454>
80015914:	00000000 	nop
80015918:	8fc2017c 	lw	v0,380(s8)
8001591c:	24420004 	addiu	v0,v0,4
80015920:	8c420000 	lw	v0,0(v0)
80015924:	00402025 	move	a0,v0
80015928:	3c028002 	lui	v0,0x8002
8001592c:	24459a30 	addiu	a1,v0,-26064
80015930:	0c005e4f 	jal	8001793c <kernel_strcmp>
80015934:	00000000 	nop
80015938:	1440002f 	bnez	v0,800159f8 <cmd_cd+0x198>
8001593c:	00000000 	nop
80015940:	3c028003 	lui	v0,0x8003
80015944:	2444d650 	addiu	a0,v0,-10672
80015948:	3c028002 	lui	v0,0x8002
8001594c:	24459994 	addiu	a1,v0,-26220
80015950:	0c005e4f 	jal	8001793c <kernel_strcmp>
80015954:	00000000 	nop
80015958:	14400004 	bnez	v0,8001596c <cmd_cd+0x10c>
8001595c:	00000000 	nop
80015960:	00001025 	move	v0,zero
80015964:	100000d3 	b	80015cb4 <cmd_cd+0x454>
80015968:	00000000 	nop
8001596c:	3c028003 	lui	v0,0x8003
80015970:	2444d650 	addiu	a0,v0,-10672
80015974:	0c005e71 	jal	800179c4 <kernel_strlen>
80015978:	00000000 	nop
8001597c:	2442ffff 	addiu	v0,v0,-1
80015980:	afc20010 	sw	v0,16(s8)
80015984:	10000008 	b	800159a8 <cmd_cd+0x148>
80015988:	00000000 	nop
8001598c:	8fc20010 	lw	v0,16(s8)
80015990:	2443ffff 	addiu	v1,v0,-1
80015994:	afc30010 	sw	v1,16(s8)
80015998:	3c038003 	lui	v1,0x8003
8001599c:	2463d650 	addiu	v1,v1,-10672
800159a0:	00431021 	addu	v0,v0,v1
800159a4:	a0400000 	sb	zero,0(v0)
800159a8:	3c028003 	lui	v0,0x8003
800159ac:	2443d650 	addiu	v1,v0,-10672
800159b0:	8fc20010 	lw	v0,16(s8)
800159b4:	00621021 	addu	v0,v1,v0
800159b8:	90430000 	lbu	v1,0(v0)
800159bc:	2402002f 	li	v0,47
800159c0:	1462fff2 	bne	v1,v0,8001598c <cmd_cd+0x12c>
800159c4:	00000000 	nop
800159c8:	8fc20010 	lw	v0,16(s8)
800159cc:	10400007 	beqz	v0,800159ec <cmd_cd+0x18c>
800159d0:	00000000 	nop
800159d4:	8fc20010 	lw	v0,16(s8)
800159d8:	24430001 	addiu	v1,v0,1
800159dc:	3c028003 	lui	v0,0x8003
800159e0:	2442d650 	addiu	v0,v0,-10672
800159e4:	00621021 	addu	v0,v1,v0
800159e8:	a0400000 	sb	zero,0(v0)
800159ec:	00001025 	move	v0,zero
800159f0:	100000b0 	b	80015cb4 <cmd_cd+0x454>
800159f4:	00000000 	nop
800159f8:	24040104 	li	a0,260
800159fc:	0c003abb 	jal	8000eaec <kmalloc>
80015a00:	00000000 	nop
80015a04:	afc20014 	sw	v0,20(s8)
80015a08:	8fc2017c 	lw	v0,380(s8)
80015a0c:	24420004 	addiu	v0,v0,4
80015a10:	8c420000 	lw	v0,0(v0)
80015a14:	8fc40014 	lw	a0,20(s8)
80015a18:	00402825 	move	a1,v0
80015a1c:	24060004 	li	a2,4
80015a20:	0c005d71 	jal	800175c4 <kernel_memcpy>
80015a24:	00000000 	nop
80015a28:	8fc20014 	lw	v0,20(s8)
80015a2c:	24420004 	addiu	v0,v0,4
80015a30:	a0400000 	sb	zero,0(v0)
80015a34:	8fc40014 	lw	a0,20(s8)
80015a38:	3c028002 	lui	v0,0x8002
80015a3c:	24459994 	addiu	a1,v0,-26220
80015a40:	0c005e4f 	jal	8001793c <kernel_strcmp>
80015a44:	00000000 	nop
80015a48:	14400066 	bnez	v0,80015be4 <cmd_cd+0x384>
80015a4c:	00000000 	nop
80015a50:	8fc2017c 	lw	v0,380(s8)
80015a54:	24420004 	addiu	v0,v0,4
80015a58:	8c500000 	lw	s0,0(v0)
80015a5c:	8fc2017c 	lw	v0,380(s8)
80015a60:	24420004 	addiu	v0,v0,4
80015a64:	8c420000 	lw	v0,0(v0)
80015a68:	00402025 	move	a0,v0
80015a6c:	0c005e71 	jal	800179c4 <kernel_strlen>
80015a70:	00000000 	nop
80015a74:	2442ffff 	addiu	v0,v0,-1
80015a78:	02021021 	addu	v0,s0,v0
80015a7c:	90430000 	lbu	v1,0(v0)
80015a80:	2402002f 	li	v0,47
80015a84:	1462000d 	bne	v1,v0,80015abc <cmd_cd+0x25c>
80015a88:	00000000 	nop
80015a8c:	8fc2017c 	lw	v0,380(s8)
80015a90:	24420004 	addiu	v0,v0,4
80015a94:	8c500000 	lw	s0,0(v0)
80015a98:	8fc2017c 	lw	v0,380(s8)
80015a9c:	24420004 	addiu	v0,v0,4
80015aa0:	8c420000 	lw	v0,0(v0)
80015aa4:	00402025 	move	a0,v0
80015aa8:	0c005e71 	jal	800179c4 <kernel_strlen>
80015aac:	00000000 	nop
80015ab0:	2442ffff 	addiu	v0,v0,-1
80015ab4:	02021021 	addu	v0,s0,v0
80015ab8:	a0400000 	sb	zero,0(v0)
80015abc:	8fc2017c 	lw	v0,380(s8)
80015ac0:	24420004 	addiu	v0,v0,4
80015ac4:	8c420000 	lw	v0,0(v0)
80015ac8:	24500003 	addiu	s0,v0,3
80015acc:	8fc2017c 	lw	v0,380(s8)
80015ad0:	24420004 	addiu	v0,v0,4
80015ad4:	8c420000 	lw	v0,0(v0)
80015ad8:	00402025 	move	a0,v0
80015adc:	0c005e71 	jal	800179c4 <kernel_strlen>
80015ae0:	00000000 	nop
80015ae4:	24420001 	addiu	v0,v0,1
80015ae8:	00401825 	move	v1,v0
80015aec:	27c20058 	addiu	v0,s8,88
80015af0:	00402025 	move	a0,v0
80015af4:	02002825 	move	a1,s0
80015af8:	00603025 	move	a2,v1
80015afc:	0c005d71 	jal	800175c4 <kernel_memcpy>
80015b00:	00000000 	nop
80015b04:	27c30158 	addiu	v1,s8,344
80015b08:	27c20058 	addiu	v0,s8,88
80015b0c:	00602025 	move	a0,v1
80015b10:	00402825 	move	a1,v0
80015b14:	0c000ac3 	jal	80002b0c <fs_open_dir>
80015b18:	00000000 	nop
80015b1c:	1040000d 	beqz	v0,80015b54 <cmd_cd+0x2f4>
80015b20:	00000000 	nop
80015b24:	27c30058 	addiu	v1,s8,88
80015b28:	3c028002 	lui	v0,0x8002
80015b2c:	24449a34 	addiu	a0,v0,-26060
80015b30:	00602825 	move	a1,v1
80015b34:	0c000aaa 	jal	80002aa8 <kernel_printf>
80015b38:	00000000 	nop
80015b3c:	8fc40014 	lw	a0,20(s8)
80015b40:	0c003b13 	jal	8000ec4c <kfree>
80015b44:	00000000 	nop
80015b48:	24020001 	li	v0,1
80015b4c:	10000059 	b	80015cb4 <cmd_cd+0x454>
80015b50:	00000000 	nop
80015b54:	8fc40014 	lw	a0,20(s8)
80015b58:	0c005e71 	jal	800179c4 <kernel_strlen>
80015b5c:	00000000 	nop
80015b60:	24420001 	addiu	v0,v0,1
80015b64:	8fc40014 	lw	a0,20(s8)
80015b68:	00002825 	move	a1,zero
80015b6c:	00403025 	move	a2,v0
80015b70:	0c005d92 	jal	80017648 <kernel_memset>
80015b74:	00000000 	nop
80015b78:	8fc40014 	lw	a0,20(s8)
80015b7c:	3c028002 	lui	v0,0x8002
80015b80:	24459a54 	addiu	a1,v0,-26028
80015b84:	0c005ec4 	jal	80017b10 <kernel_strcat>
80015b88:	00000000 	nop
80015b8c:	27c20058 	addiu	v0,s8,88
80015b90:	8fc40014 	lw	a0,20(s8)
80015b94:	00402825 	move	a1,v0
80015b98:	0c005ec4 	jal	80017b10 <kernel_strcat>
80015b9c:	00000000 	nop
80015ba0:	8fc40014 	lw	a0,20(s8)
80015ba4:	0c005e71 	jal	800179c4 <kernel_strlen>
80015ba8:	00000000 	nop
80015bac:	24420001 	addiu	v0,v0,1
80015bb0:	00401825 	move	v1,v0
80015bb4:	3c028003 	lui	v0,0x8003
80015bb8:	2444d650 	addiu	a0,v0,-10672
80015bbc:	8fc50014 	lw	a1,20(s8)
80015bc0:	00603025 	move	a2,v1
80015bc4:	0c005d71 	jal	800175c4 <kernel_memcpy>
80015bc8:	00000000 	nop
80015bcc:	8fc40014 	lw	a0,20(s8)
80015bd0:	0c003b13 	jal	8000ec4c <kfree>
80015bd4:	00000000 	nop
80015bd8:	00001025 	move	v0,zero
80015bdc:	10000035 	b	80015cb4 <cmd_cd+0x454>
80015be0:	00000000 	nop
80015be4:	27c20058 	addiu	v0,s8,88
80015be8:	00402025 	move	a0,v0
80015bec:	0c005e71 	jal	800179c4 <kernel_strlen>
80015bf0:	00000000 	nop
80015bf4:	24420001 	addiu	v0,v0,1
80015bf8:	00401825 	move	v1,v0
80015bfc:	27c20058 	addiu	v0,s8,88
80015c00:	00402025 	move	a0,v0
80015c04:	00002825 	move	a1,zero
80015c08:	00603025 	move	a2,v1
80015c0c:	0c005d92 	jal	80017648 <kernel_memset>
80015c10:	00000000 	nop
80015c14:	3c028003 	lui	v0,0x8003
80015c18:	2444d650 	addiu	a0,v0,-10672
80015c1c:	0c005e71 	jal	800179c4 <kernel_strlen>
80015c20:	00000000 	nop
80015c24:	2442fffe 	addiu	v0,v0,-2
80015c28:	00401825 	move	v1,v0
80015c2c:	27c20058 	addiu	v0,s8,88
80015c30:	00402025 	move	a0,v0
80015c34:	3c028003 	lui	v0,0x8003
80015c38:	2445d653 	addiu	a1,v0,-10669
80015c3c:	00603025 	move	a2,v1
80015c40:	0c005d71 	jal	800175c4 <kernel_memcpy>
80015c44:	00000000 	nop
80015c48:	27c20058 	addiu	v0,s8,88
80015c4c:	00402025 	move	a0,v0
80015c50:	0c005e71 	jal	800179c4 <kernel_strlen>
80015c54:	00000000 	nop
80015c58:	2442ffff 	addiu	v0,v0,-1
80015c5c:	27c30010 	addiu	v1,s8,16
80015c60:	00621021 	addu	v0,v1,v0
80015c64:	90430048 	lbu	v1,72(v0)
80015c68:	2402002f 	li	v0,47
80015c6c:	10620007 	beq	v1,v0,80015c8c <cmd_cd+0x42c>
80015c70:	00000000 	nop
80015c74:	27c20058 	addiu	v0,s8,88
80015c78:	00402025 	move	a0,v0
80015c7c:	3c028002 	lui	v0,0x8002
80015c80:	2445999c 	addiu	a1,v0,-26212
80015c84:	0c005ec4 	jal	80017b10 <kernel_strcat>
80015c88:	00000000 	nop
80015c8c:	8fc2017c 	lw	v0,380(s8)
80015c90:	24420004 	addiu	v0,v0,4
80015c94:	8c420000 	lw	v0,0(v0)
80015c98:	27c30058 	addiu	v1,s8,88
80015c9c:	00602025 	move	a0,v1
80015ca0:	00402825 	move	a1,v0
80015ca4:	0c005ec4 	jal	80017b10 <kernel_strcat>
80015ca8:	00000000 	nop
80015cac:	1000ff95 	b	80015b04 <cmd_cd+0x2a4>
80015cb0:	00000000 	nop
80015cb4:	03c0e825 	move	sp,s8
80015cb8:	8fbf0174 	lw	ra,372(sp)
80015cbc:	8fbe0170 	lw	s8,368(sp)
80015cc0:	8fb0016c 	lw	s0,364(sp)
80015cc4:	27bd0178 	addiu	sp,sp,376
80015cc8:	03e00008 	jr	ra
80015ccc:	00000000 	nop

80015cd0 <cmd_mount>:
80015cd0:	27bdffd8 	addiu	sp,sp,-40
80015cd4:	afbf0024 	sw	ra,36(sp)
80015cd8:	afbe0020 	sw	s8,32(sp)
80015cdc:	03a0f025 	move	s8,sp
80015ce0:	afc40028 	sw	a0,40(s8)
80015ce4:	afc5002c 	sw	a1,44(s8)
80015ce8:	8fc30028 	lw	v1,40(s8)
80015cec:	24020003 	li	v0,3
80015cf0:	10620008 	beq	v1,v0,80015d14 <cmd_mount+0x44>
80015cf4:	00000000 	nop
80015cf8:	3c028002 	lui	v0,0x8002
80015cfc:	24449a70 	addiu	a0,v0,-26000
80015d00:	0c000aaa 	jal	80002aa8 <kernel_printf>
80015d04:	00000000 	nop
80015d08:	24020008 	li	v0,8
80015d0c:	10000043 	b	80015e1c <cmd_mount+0x14c>
80015d10:	00000000 	nop
80015d14:	8fc2002c 	lw	v0,44(s8)
80015d18:	8c420004 	lw	v0,4(v0)
80015d1c:	afc20014 	sw	v0,20(s8)
80015d20:	8fc2002c 	lw	v0,44(s8)
80015d24:	8c420008 	lw	v0,8(v0)
80015d28:	afc20018 	sw	v0,24(s8)
80015d2c:	8fc40018 	lw	a0,24(s8)
80015d30:	0c005e71 	jal	800179c4 <kernel_strlen>
80015d34:	00000000 	nop
80015d38:	2442ffff 	addiu	v0,v0,-1
80015d3c:	8fc30018 	lw	v1,24(s8)
80015d40:	00621021 	addu	v0,v1,v0
80015d44:	90430000 	lbu	v1,0(v0)
80015d48:	2402003a 	li	v0,58
80015d4c:	14620008 	bne	v1,v0,80015d70 <cmd_mount+0xa0>
80015d50:	00000000 	nop
80015d54:	8fc40018 	lw	a0,24(s8)
80015d58:	0c005e71 	jal	800179c4 <kernel_strlen>
80015d5c:	00000000 	nop
80015d60:	2442ffff 	addiu	v0,v0,-1
80015d64:	8fc30018 	lw	v1,24(s8)
80015d68:	00621021 	addu	v0,v1,v0
80015d6c:	a0400000 	sb	zero,0(v0)
80015d70:	afc00010 	sw	zero,16(s8)
80015d74:	1000001b 	b	80015de4 <cmd_mount+0x114>
80015d78:	00000000 	nop
80015d7c:	3c028002 	lui	v0,0x8002
80015d80:	8fc30010 	lw	v1,16(s8)
80015d84:	000318c0 	sll	v1,v1,0x3
80015d88:	24429a60 	addiu	v0,v0,-26016
80015d8c:	00621021 	addu	v0,v1,v0
80015d90:	8c420000 	lw	v0,0(v0)
80015d94:	00402025 	move	a0,v0
80015d98:	8fc50014 	lw	a1,20(s8)
80015d9c:	0c005e4f 	jal	8001793c <kernel_strcmp>
80015da0:	00000000 	nop
80015da4:	1440000c 	bnez	v0,80015dd8 <cmd_mount+0x108>
80015da8:	00000000 	nop
80015dac:	3c028002 	lui	v0,0x8002
80015db0:	8fc30010 	lw	v1,16(s8)
80015db4:	000318c0 	sll	v1,v1,0x3
80015db8:	24429a60 	addiu	v0,v0,-26016
80015dbc:	00621021 	addu	v0,v1,v0
80015dc0:	8c420004 	lw	v0,4(v0)
80015dc4:	8fc40018 	lw	a0,24(s8)
80015dc8:	0040f809 	jalr	v0
80015dcc:	00000000 	nop
80015dd0:	10000012 	b	80015e1c <cmd_mount+0x14c>
80015dd4:	00000000 	nop
80015dd8:	8fc20010 	lw	v0,16(s8)
80015ddc:	24420001 	addiu	v0,v0,1
80015de0:	afc20010 	sw	v0,16(s8)
80015de4:	3c028002 	lui	v0,0x8002
80015de8:	8fc30010 	lw	v1,16(s8)
80015dec:	000318c0 	sll	v1,v1,0x3
80015df0:	24429a60 	addiu	v0,v0,-26016
80015df4:	00621021 	addu	v0,v1,v0
80015df8:	8c420000 	lw	v0,0(v0)
80015dfc:	1440ffdf 	bnez	v0,80015d7c <cmd_mount+0xac>
80015e00:	00000000 	nop
80015e04:	3c028002 	lui	v0,0x8002
80015e08:	24449a90 	addiu	a0,v0,-25968
80015e0c:	8fc50014 	lw	a1,20(s8)
80015e10:	0c000aaa 	jal	80002aa8 <kernel_printf>
80015e14:	00000000 	nop
80015e18:	24020008 	li	v0,8
80015e1c:	03c0e825 	move	sp,s8
80015e20:	8fbf0024 	lw	ra,36(sp)
80015e24:	8fbe0020 	lw	s8,32(sp)
80015e28:	27bd0028 	addiu	sp,sp,40
80015e2c:	03e00008 	jr	ra
80015e30:	00000000 	nop

80015e34 <cmd_unmount>:
80015e34:	27bdffe0 	addiu	sp,sp,-32
80015e38:	afbf001c 	sw	ra,28(sp)
80015e3c:	afbe0018 	sw	s8,24(sp)
80015e40:	03a0f025 	move	s8,sp
80015e44:	afc40020 	sw	a0,32(s8)
80015e48:	afc50024 	sw	a1,36(s8)
80015e4c:	8fc30020 	lw	v1,32(s8)
80015e50:	24020002 	li	v0,2
80015e54:	10620008 	beq	v1,v0,80015e78 <cmd_unmount+0x44>
80015e58:	00000000 	nop
80015e5c:	3c028002 	lui	v0,0x8002
80015e60:	24449aac 	addiu	a0,v0,-25940
80015e64:	0c000aaa 	jal	80002aa8 <kernel_printf>
80015e68:	00000000 	nop
80015e6c:	24020008 	li	v0,8
80015e70:	10000018 	b	80015ed4 <cmd_unmount+0xa0>
80015e74:	00000000 	nop
80015e78:	8fc20024 	lw	v0,36(s8)
80015e7c:	8c420004 	lw	v0,4(v0)
80015e80:	afc20010 	sw	v0,16(s8)
80015e84:	8fc40010 	lw	a0,16(s8)
80015e88:	0c005e71 	jal	800179c4 <kernel_strlen>
80015e8c:	00000000 	nop
80015e90:	2442ffff 	addiu	v0,v0,-1
80015e94:	8fc30010 	lw	v1,16(s8)
80015e98:	00621021 	addu	v0,v1,v0
80015e9c:	90430000 	lbu	v1,0(v0)
80015ea0:	2402003a 	li	v0,58
80015ea4:	14620008 	bne	v1,v0,80015ec8 <cmd_unmount+0x94>
80015ea8:	00000000 	nop
80015eac:	8fc40010 	lw	a0,16(s8)
80015eb0:	0c005e71 	jal	800179c4 <kernel_strlen>
80015eb4:	00000000 	nop
80015eb8:	2442ffff 	addiu	v0,v0,-1
80015ebc:	8fc30010 	lw	v1,16(s8)
80015ec0:	00621021 	addu	v0,v1,v0
80015ec4:	a0400000 	sb	zero,0(v0)
80015ec8:	8fc40010 	lw	a0,16(s8)
80015ecc:	0c002767 	jal	80009d9c <vfs_unmount>
80015ed0:	00000000 	nop
80015ed4:	03c0e825 	move	sp,s8
80015ed8:	8fbf001c 	lw	ra,28(sp)
80015edc:	8fbe0018 	lw	s8,24(sp)
80015ee0:	27bd0020 	addiu	sp,sp,32
80015ee4:	03e00008 	jr	ra
80015ee8:	00000000 	nop

80015eec <cmd_bootfs>:
80015eec:	27bdffe0 	addiu	sp,sp,-32
80015ef0:	afbf001c 	sw	ra,28(sp)
80015ef4:	afbe0018 	sw	s8,24(sp)
80015ef8:	03a0f025 	move	s8,sp
80015efc:	afc40020 	sw	a0,32(s8)
80015f00:	afc50024 	sw	a1,36(s8)
80015f04:	8fc30020 	lw	v1,32(s8)
80015f08:	24020002 	li	v0,2
80015f0c:	10620008 	beq	v1,v0,80015f30 <cmd_bootfs+0x44>
80015f10:	00000000 	nop
80015f14:	3c028002 	lui	v0,0x8002
80015f18:	24449ac4 	addiu	a0,v0,-25916
80015f1c:	0c000aaa 	jal	80002aa8 <kernel_printf>
80015f20:	00000000 	nop
80015f24:	24020008 	li	v0,8
80015f28:	10000018 	b	80015f8c <cmd_bootfs+0xa0>
80015f2c:	00000000 	nop
80015f30:	8fc20024 	lw	v0,36(s8)
80015f34:	8c420004 	lw	v0,4(v0)
80015f38:	afc20010 	sw	v0,16(s8)
80015f3c:	8fc40010 	lw	a0,16(s8)
80015f40:	0c005e71 	jal	800179c4 <kernel_strlen>
80015f44:	00000000 	nop
80015f48:	2442ffff 	addiu	v0,v0,-1
80015f4c:	8fc30010 	lw	v1,16(s8)
80015f50:	00621021 	addu	v0,v1,v0
80015f54:	90430000 	lbu	v1,0(v0)
80015f58:	2402003a 	li	v0,58
80015f5c:	14620008 	bne	v1,v0,80015f80 <cmd_bootfs+0x94>
80015f60:	00000000 	nop
80015f64:	8fc40010 	lw	a0,16(s8)
80015f68:	0c005e71 	jal	800179c4 <kernel_strlen>
80015f6c:	00000000 	nop
80015f70:	2442ffff 	addiu	v0,v0,-1
80015f74:	8fc30010 	lw	v1,16(s8)
80015f78:	00621021 	addu	v0,v1,v0
80015f7c:	a0400000 	sb	zero,0(v0)
80015f80:	8fc40010 	lw	a0,16(s8)
80015f84:	0c002936 	jal	8000a4d8 <vfs_setbootfs>
80015f88:	00000000 	nop
80015f8c:	03c0e825 	move	sp,s8
80015f90:	8fbf001c 	lw	ra,28(sp)
80015f94:	8fbe0018 	lw	s8,24(sp)
80015f98:	27bd0020 	addiu	sp,sp,32
80015f9c:	03e00008 	jr	ra
80015fa0:	00000000 	nop

80015fa4 <cmd_ls>:
80015fa4:	27bdfee0 	addiu	sp,sp,-288
80015fa8:	afbf011c 	sw	ra,284(sp)
80015fac:	afbe0118 	sw	s8,280(sp)
80015fb0:	03a0f025 	move	s8,sp
80015fb4:	afc40120 	sw	a0,288(s8)
80015fb8:	afc50124 	sw	a1,292(s8)
80015fbc:	8fc30120 	lw	v1,288(s8)
80015fc0:	24020001 	li	v0,1
80015fc4:	1462000b 	bne	v1,v0,80015ff4 <cmd_ls+0x50>
80015fc8:	00000000 	nop
80015fcc:	3c028003 	lui	v0,0x8003
80015fd0:	2444d650 	addiu	a0,v0,-10672
80015fd4:	0c005edc 	jal	80017b70 <kernel_strdup>
80015fd8:	00000000 	nop
80015fdc:	afc20010 	sw	v0,16(s8)
80015fe0:	8fc40010 	lw	a0,16(s8)
80015fe4:	0c0052ab 	jal	80014aac <ls>
80015fe8:	00000000 	nop
80015fec:	1000000d 	b	80016024 <cmd_ls+0x80>
80015ff0:	00000000 	nop
80015ff4:	8fc20124 	lw	v0,292(s8)
80015ff8:	24420004 	addiu	v0,v0,4
80015ffc:	8c430000 	lw	v1,0(v0)
80016000:	27c20014 	addiu	v0,s8,20
80016004:	00602025 	move	a0,v1
80016008:	00402825 	move	a1,v0
8001600c:	0c00532b 	jal	80014cac <abs_to_rel>
80016010:	00000000 	nop
80016014:	27c20014 	addiu	v0,s8,20
80016018:	00402025 	move	a0,v0
8001601c:	0c0052ab 	jal	80014aac <ls>
80016020:	00000000 	nop
80016024:	03c0e825 	move	sp,s8
80016028:	8fbf011c 	lw	ra,284(sp)
8001602c:	8fbe0118 	lw	s8,280(sp)
80016030:	27bd0120 	addiu	sp,sp,288
80016034:	03e00008 	jr	ra
80016038:	00000000 	nop

8001603c <cmd_mkdir>:
8001603c:	27bdfee8 	addiu	sp,sp,-280
80016040:	afbf0114 	sw	ra,276(sp)
80016044:	afbe0110 	sw	s8,272(sp)
80016048:	03a0f025 	move	s8,sp
8001604c:	afc40118 	sw	a0,280(s8)
80016050:	afc5011c 	sw	a1,284(s8)
80016054:	8fc30118 	lw	v1,280(s8)
80016058:	24020002 	li	v0,2
8001605c:	10620008 	beq	v1,v0,80016080 <cmd_mkdir+0x44>
80016060:	00000000 	nop
80016064:	3c028002 	lui	v0,0x8002
80016068:	24449adc 	addiu	a0,v0,-25892
8001606c:	0c000aaa 	jal	80002aa8 <kernel_printf>
80016070:	00000000 	nop
80016074:	24020008 	li	v0,8
80016078:	1000000e 	b	800160b4 <cmd_mkdir+0x78>
8001607c:	00000000 	nop
80016080:	8fc2011c 	lw	v0,284(s8)
80016084:	24420004 	addiu	v0,v0,4
80016088:	8c420000 	lw	v0,0(v0)
8001608c:	00402025 	move	a0,v0
80016090:	27c20010 	addiu	v0,s8,16
80016094:	00402825 	move	a1,v0
80016098:	0c00532b 	jal	80014cac <abs_to_rel>
8001609c:	00000000 	nop
800160a0:	27c20010 	addiu	v0,s8,16
800160a4:	00402025 	move	a0,v0
800160a8:	00002825 	move	a1,zero
800160ac:	0c002c0a 	jal	8000b028 <vfs_mkdir>
800160b0:	00000000 	nop
800160b4:	03c0e825 	move	sp,s8
800160b8:	8fbf0114 	lw	ra,276(sp)
800160bc:	8fbe0110 	lw	s8,272(sp)
800160c0:	27bd0118 	addiu	sp,sp,280
800160c4:	03e00008 	jr	ra
800160c8:	00000000 	nop

800160cc <cmd_create>:
800160cc:	27bdfee8 	addiu	sp,sp,-280
800160d0:	afbf0114 	sw	ra,276(sp)
800160d4:	afbe0110 	sw	s8,272(sp)
800160d8:	03a0f025 	move	s8,sp
800160dc:	afc40118 	sw	a0,280(s8)
800160e0:	afc5011c 	sw	a1,284(s8)
800160e4:	8fc30118 	lw	v1,280(s8)
800160e8:	24020002 	li	v0,2
800160ec:	10620008 	beq	v1,v0,80016110 <cmd_create+0x44>
800160f0:	00000000 	nop
800160f4:	3c028002 	lui	v0,0x8002
800160f8:	24449af8 	addiu	a0,v0,-25864
800160fc:	0c000aaa 	jal	80002aa8 <kernel_printf>
80016100:	00000000 	nop
80016104:	24020008 	li	v0,8
80016108:	1000000d 	b	80016140 <cmd_create+0x74>
8001610c:	00000000 	nop
80016110:	8fc2011c 	lw	v0,284(s8)
80016114:	24420004 	addiu	v0,v0,4
80016118:	8c420000 	lw	v0,0(v0)
8001611c:	00402025 	move	a0,v0
80016120:	27c20010 	addiu	v0,s8,16
80016124:	00402825 	move	a1,v0
80016128:	0c00532b 	jal	80014cac <abs_to_rel>
8001612c:	00000000 	nop
80016130:	27c20010 	addiu	v0,s8,16
80016134:	00402025 	move	a0,v0
80016138:	0c002b8b 	jal	8000ae2c <vfs_create>
8001613c:	00000000 	nop
80016140:	03c0e825 	move	sp,s8
80016144:	8fbf0114 	lw	ra,276(sp)
80016148:	8fbe0110 	lw	s8,272(sp)
8001614c:	27bd0118 	addiu	sp,sp,280
80016150:	03e00008 	jr	ra
80016154:	00000000 	nop

80016158 <cmd_remove>:
80016158:	27bdfee8 	addiu	sp,sp,-280
8001615c:	afbf0114 	sw	ra,276(sp)
80016160:	afbe0110 	sw	s8,272(sp)
80016164:	03a0f025 	move	s8,sp
80016168:	afc40118 	sw	a0,280(s8)
8001616c:	afc5011c 	sw	a1,284(s8)
80016170:	8fc30118 	lw	v1,280(s8)
80016174:	24020002 	li	v0,2
80016178:	10620008 	beq	v1,v0,8001619c <cmd_remove+0x44>
8001617c:	00000000 	nop
80016180:	3c028002 	lui	v0,0x8002
80016184:	24449b2c 	addiu	a0,v0,-25812
80016188:	0c000aaa 	jal	80002aa8 <kernel_printf>
8001618c:	00000000 	nop
80016190:	24020008 	li	v0,8
80016194:	1000000d 	b	800161cc <cmd_remove+0x74>
80016198:	00000000 	nop
8001619c:	8fc2011c 	lw	v0,284(s8)
800161a0:	24420004 	addiu	v0,v0,4
800161a4:	8c420000 	lw	v0,0(v0)
800161a8:	00402025 	move	a0,v0
800161ac:	27c20010 	addiu	v0,s8,16
800161b0:	00402825 	move	a1,v0
800161b4:	0c00532b 	jal	80014cac <abs_to_rel>
800161b8:	00000000 	nop
800161bc:	27c20010 	addiu	v0,s8,16
800161c0:	00402025 	move	a0,v0
800161c4:	0c002a6a 	jal	8000a9a8 <vfs_remove>
800161c8:	00000000 	nop
800161cc:	03c0e825 	move	sp,s8
800161d0:	8fbf0114 	lw	ra,276(sp)
800161d4:	8fbe0110 	lw	s8,272(sp)
800161d8:	27bd0118 	addiu	sp,sp,280
800161dc:	03e00008 	jr	ra
800161e0:	00000000 	nop

800161e4 <cmd_move>:
800161e4:	27bdfde8 	addiu	sp,sp,-536
800161e8:	afbf0214 	sw	ra,532(sp)
800161ec:	afbe0210 	sw	s8,528(sp)
800161f0:	03a0f025 	move	s8,sp
800161f4:	afc40218 	sw	a0,536(s8)
800161f8:	afc5021c 	sw	a1,540(s8)
800161fc:	8fc30218 	lw	v1,536(s8)
80016200:	24020003 	li	v0,3
80016204:	10620008 	beq	v1,v0,80016228 <cmd_move+0x44>
80016208:	00000000 	nop
8001620c:	3c028002 	lui	v0,0x8002
80016210:	24449b44 	addiu	a0,v0,-25788
80016214:	0c000aaa 	jal	80002aa8 <kernel_printf>
80016218:	00000000 	nop
8001621c:	24020008 	li	v0,8
80016220:	10000017 	b	80016280 <cmd_move+0x9c>
80016224:	00000000 	nop
80016228:	8fc2021c 	lw	v0,540(s8)
8001622c:	24420004 	addiu	v0,v0,4
80016230:	8c420000 	lw	v0,0(v0)
80016234:	00402025 	move	a0,v0
80016238:	27c20010 	addiu	v0,s8,16
8001623c:	00402825 	move	a1,v0
80016240:	0c00532b 	jal	80014cac <abs_to_rel>
80016244:	00000000 	nop
80016248:	8fc2021c 	lw	v0,540(s8)
8001624c:	24420008 	addiu	v0,v0,8
80016250:	8c430000 	lw	v1,0(v0)
80016254:	27c20110 	addiu	v0,s8,272
80016258:	00602025 	move	a0,v1
8001625c:	00402825 	move	a1,v0
80016260:	0c00532b 	jal	80014cac <abs_to_rel>
80016264:	00000000 	nop
80016268:	27c20110 	addiu	v0,s8,272
8001626c:	27c30010 	addiu	v1,s8,16
80016270:	00602025 	move	a0,v1
80016274:	00402825 	move	a1,v0
80016278:	0c002ab0 	jal	8000aac0 <vfs_rename>
8001627c:	00000000 	nop
80016280:	03c0e825 	move	sp,s8
80016284:	8fbf0214 	lw	ra,532(sp)
80016288:	8fbe0210 	lw	s8,528(sp)
8001628c:	27bd0218 	addiu	sp,sp,536
80016290:	03e00008 	jr	ra
80016294:	00000000 	nop

80016298 <cmd_copy>:
80016298:	27bdfde8 	addiu	sp,sp,-536
8001629c:	afbf0214 	sw	ra,532(sp)
800162a0:	afbe0210 	sw	s8,528(sp)
800162a4:	03a0f025 	move	s8,sp
800162a8:	afc40218 	sw	a0,536(s8)
800162ac:	afc5021c 	sw	a1,540(s8)
800162b0:	8fc30218 	lw	v1,536(s8)
800162b4:	24020003 	li	v0,3
800162b8:	10620008 	beq	v1,v0,800162dc <cmd_copy+0x44>
800162bc:	00000000 	nop
800162c0:	3c028002 	lui	v0,0x8002
800162c4:	24449b58 	addiu	a0,v0,-25768
800162c8:	0c000aaa 	jal	80002aa8 <kernel_printf>
800162cc:	00000000 	nop
800162d0:	24020008 	li	v0,8
800162d4:	10000017 	b	80016334 <cmd_copy+0x9c>
800162d8:	00000000 	nop
800162dc:	8fc2021c 	lw	v0,540(s8)
800162e0:	24420004 	addiu	v0,v0,4
800162e4:	8c420000 	lw	v0,0(v0)
800162e8:	00402025 	move	a0,v0
800162ec:	27c20010 	addiu	v0,s8,16
800162f0:	00402825 	move	a1,v0
800162f4:	0c00532b 	jal	80014cac <abs_to_rel>
800162f8:	00000000 	nop
800162fc:	8fc2021c 	lw	v0,540(s8)
80016300:	24420008 	addiu	v0,v0,8
80016304:	8c430000 	lw	v1,0(v0)
80016308:	27c20110 	addiu	v0,s8,272
8001630c:	00602025 	move	a0,v1
80016310:	00402825 	move	a1,v0
80016314:	0c00532b 	jal	80014cac <abs_to_rel>
80016318:	00000000 	nop
8001631c:	27c20110 	addiu	v0,s8,272
80016320:	27c30010 	addiu	v1,s8,16
80016324:	00602025 	move	a0,v1
80016328:	00402825 	move	a1,v0
8001632c:	0c002b41 	jal	8000ad04 <vfs_cp>
80016330:	00000000 	nop
80016334:	03c0e825 	move	sp,s8
80016338:	8fbf0214 	lw	ra,532(sp)
8001633c:	8fbe0210 	lw	s8,528(sp)
80016340:	27bd0218 	addiu	sp,sp,536
80016344:	03e00008 	jr	ra
80016348:	00000000 	nop

8001634c <cmd_cat>:
8001634c:	27bdfee8 	addiu	sp,sp,-280
80016350:	afbf0114 	sw	ra,276(sp)
80016354:	afbe0110 	sw	s8,272(sp)
80016358:	03a0f025 	move	s8,sp
8001635c:	afc40118 	sw	a0,280(s8)
80016360:	afc5011c 	sw	a1,284(s8)
80016364:	8fc30118 	lw	v1,280(s8)
80016368:	24020002 	li	v0,2
8001636c:	10620008 	beq	v1,v0,80016390 <cmd_cat+0x44>
80016370:	00000000 	nop
80016374:	3c028002 	lui	v0,0x8002
80016378:	24449b6c 	addiu	a0,v0,-25748
8001637c:	0c000aaa 	jal	80002aa8 <kernel_printf>
80016380:	00000000 	nop
80016384:	24020008 	li	v0,8
80016388:	1000000d 	b	800163c0 <cmd_cat+0x74>
8001638c:	00000000 	nop
80016390:	8fc2011c 	lw	v0,284(s8)
80016394:	24420004 	addiu	v0,v0,4
80016398:	8c420000 	lw	v0,0(v0)
8001639c:	00402025 	move	a0,v0
800163a0:	27c20010 	addiu	v0,s8,16
800163a4:	00402825 	move	a1,v0
800163a8:	0c00532b 	jal	80014cac <abs_to_rel>
800163ac:	00000000 	nop
800163b0:	27c20010 	addiu	v0,s8,16
800163b4:	00402025 	move	a0,v0
800163b8:	0c002bba 	jal	8000aee8 <vfs_cat>
800163bc:	00000000 	nop
800163c0:	03c0e825 	move	sp,s8
800163c4:	8fbf0114 	lw	ra,276(sp)
800163c8:	8fbe0110 	lw	s8,272(sp)
800163cc:	27bd0118 	addiu	sp,sp,280
800163d0:	03e00008 	jr	ra
800163d4:	00000000 	nop

800163d8 <cmd_pctest_sleep>:
800163d8:	27bdffe8 	addiu	sp,sp,-24
800163dc:	afbf0014 	sw	ra,20(sp)
800163e0:	afbe0010 	sw	s8,16(sp)
800163e4:	03a0f025 	move	s8,sp
800163e8:	afc40018 	sw	a0,24(s8)
800163ec:	afc5001c 	sw	a1,28(s8)
800163f0:	3c028001 	lui	v0,0x8001
800163f4:	24440d7c 	addiu	a0,v0,3452
800163f8:	3c028002 	lui	v0,0x8002
800163fc:	24459b90 	addiu	a1,v0,-25712
80016400:	0c003eb3 	jal	8000facc <pc_create>
80016404:	00000000 	nop
80016408:	00001025 	move	v0,zero
8001640c:	03c0e825 	move	sp,s8
80016410:	8fbf0014 	lw	ra,20(sp)
80016414:	8fbe0010 	lw	s8,16(sp)
80016418:	27bd0018 	addiu	sp,sp,24
8001641c:	03e00008 	jr	ra
80016420:	00000000 	nop

80016424 <cmd_pctest_fork>:
80016424:	27bdffe8 	addiu	sp,sp,-24
80016428:	afbf0014 	sw	ra,20(sp)
8001642c:	afbe0010 	sw	s8,16(sp)
80016430:	03a0f025 	move	s8,sp
80016434:	afc40018 	sw	a0,24(s8)
80016438:	afc5001c 	sw	a1,28(s8)
8001643c:	3c028001 	lui	v0,0x8001
80016440:	24440e38 	addiu	a0,v0,3640
80016444:	3c028002 	lui	v0,0x8002
80016448:	24459ba8 	addiu	a1,v0,-25688
8001644c:	0c003eb3 	jal	8000facc <pc_create>
80016450:	00000000 	nop
80016454:	00001025 	move	v0,zero
80016458:	03c0e825 	move	sp,s8
8001645c:	8fbf0014 	lw	ra,20(sp)
80016460:	8fbe0010 	lw	s8,16(sp)
80016464:	27bd0018 	addiu	sp,sp,24
80016468:	03e00008 	jr	ra
8001646c:	00000000 	nop

80016470 <cmd_pctest_kill>:
80016470:	27bdffe8 	addiu	sp,sp,-24
80016474:	afbf0014 	sw	ra,20(sp)
80016478:	afbe0010 	sw	s8,16(sp)
8001647c:	03a0f025 	move	s8,sp
80016480:	afc40018 	sw	a0,24(s8)
80016484:	afc5001c 	sw	a1,28(s8)
80016488:	3c028001 	lui	v0,0x8001
8001648c:	24440dc0 	addiu	a0,v0,3520
80016490:	3c028002 	lui	v0,0x8002
80016494:	24459bbc 	addiu	a1,v0,-25668
80016498:	0c003eb3 	jal	8000facc <pc_create>
8001649c:	00000000 	nop
800164a0:	00001025 	move	v0,zero
800164a4:	03c0e825 	move	sp,s8
800164a8:	8fbf0014 	lw	ra,20(sp)
800164ac:	8fbe0010 	lw	s8,16(sp)
800164b0:	27bd0018 	addiu	sp,sp,24
800164b4:	03e00008 	jr	ra
800164b8:	00000000 	nop

800164bc <cmd_kill>:
800164bc:	27bdffe0 	addiu	sp,sp,-32
800164c0:	afbf001c 	sw	ra,28(sp)
800164c4:	afbe0018 	sw	s8,24(sp)
800164c8:	03a0f025 	move	s8,sp
800164cc:	afc40020 	sw	a0,32(s8)
800164d0:	afc50024 	sw	a1,36(s8)
800164d4:	8fc20020 	lw	v0,32(s8)
800164d8:	28420002 	slti	v0,v0,2
800164dc:	14400018 	bnez	v0,80016540 <cmd_kill+0x84>
800164e0:	00000000 	nop
800164e4:	24020001 	li	v0,1
800164e8:	afc20010 	sw	v0,16(s8)
800164ec:	1000000f 	b	8001652c <cmd_kill+0x70>
800164f0:	00000000 	nop
800164f4:	8fc20010 	lw	v0,16(s8)
800164f8:	00021080 	sll	v0,v0,0x2
800164fc:	8fc30024 	lw	v1,36(s8)
80016500:	00621021 	addu	v0,v1,v0
80016504:	8c420000 	lw	v0,0(v0)
80016508:	90420000 	lbu	v0,0(v0)
8001650c:	2442ffd0 	addiu	v0,v0,-48
80016510:	24040005 	li	a0,5
80016514:	00402825 	move	a1,v0
80016518:	0c004525 	jal	80011494 <call_syscall_a0>
8001651c:	00000000 	nop
80016520:	8fc20010 	lw	v0,16(s8)
80016524:	24420001 	addiu	v0,v0,1
80016528:	afc20010 	sw	v0,16(s8)
8001652c:	8fc30010 	lw	v1,16(s8)
80016530:	8fc20020 	lw	v0,32(s8)
80016534:	0062102a 	slt	v0,v1,v0
80016538:	1440ffee 	bnez	v0,800164f4 <cmd_kill+0x38>
8001653c:	00000000 	nop
80016540:	03c0e825 	move	sp,s8
80016544:	8fbf001c 	lw	ra,28(sp)
80016548:	8fbe0018 	lw	s8,24(sp)
8001654c:	27bd0020 	addiu	sp,sp,32
80016550:	03e00008 	jr	ra
80016554:	00000000 	nop

80016558 <cmd_ps>:
80016558:	27bdffe8 	addiu	sp,sp,-24
8001655c:	afbf0014 	sw	ra,20(sp)
80016560:	afbe0010 	sw	s8,16(sp)
80016564:	03a0f025 	move	s8,sp
80016568:	afc40018 	sw	a0,24(s8)
8001656c:	afc5001c 	sw	a1,28(s8)
80016570:	24040006 	li	a0,6
80016574:	00002825 	move	a1,zero
80016578:	0c004525 	jal	80011494 <call_syscall_a0>
8001657c:	00000000 	nop
80016580:	03c0e825 	move	sp,s8
80016584:	8fbf0014 	lw	ra,20(sp)
80016588:	8fbe0010 	lw	s8,16(sp)
8001658c:	27bd0018 	addiu	sp,sp,24
80016590:	03e00008 	jr	ra
80016594:	00000000 	nop

80016598 <cmd_exit>:
80016598:	27bdffe8 	addiu	sp,sp,-24
8001659c:	afbf0014 	sw	ra,20(sp)
800165a0:	afbe0010 	sw	s8,16(sp)
800165a4:	03a0f025 	move	s8,sp
800165a8:	afc40018 	sw	a0,24(s8)
800165ac:	afc5001c 	sw	a1,28(s8)
800165b0:	3c028002 	lui	v0,0x8002
800165b4:	24449bd8 	addiu	a0,v0,-25640
800165b8:	0c000aaa 	jal	80002aa8 <kernel_printf>
800165bc:	00000000 	nop
800165c0:	24040003 	li	a0,3
800165c4:	00002825 	move	a1,zero
800165c8:	0c004525 	jal	80011494 <call_syscall_a0>
800165cc:	00000000 	nop
800165d0:	03c0e825 	move	sp,s8
800165d4:	8fbf0014 	lw	ra,20(sp)
800165d8:	8fbe0010 	lw	s8,16(sp)
800165dc:	27bd0018 	addiu	sp,sp,24
800165e0:	03e00008 	jr	ra
800165e4:	00000000 	nop

800165e8 <cmd_syscall>:
800165e8:	27bdffe8 	addiu	sp,sp,-24
800165ec:	afbf0014 	sw	ra,20(sp)
800165f0:	afbe0010 	sw	s8,16(sp)
800165f4:	03a0f025 	move	s8,sp
800165f8:	afc40018 	sw	a0,24(s8)
800165fc:	afc5001c 	sw	a1,28(s8)
80016600:	8fc30018 	lw	v1,24(s8)
80016604:	24020002 	li	v0,2
80016608:	1462000c 	bne	v1,v0,8001663c <cmd_syscall+0x54>
8001660c:	00000000 	nop
80016610:	8fc2001c 	lw	v0,28(s8)
80016614:	24420004 	addiu	v0,v0,4
80016618:	8c420000 	lw	v0,0(v0)
8001661c:	90420000 	lbu	v0,0(v0)
80016620:	2442ffd0 	addiu	v0,v0,-48
80016624:	00402025 	move	a0,v0
80016628:	00002825 	move	a1,zero
8001662c:	0c004525 	jal	80011494 <call_syscall_a0>
80016630:	00000000 	nop
80016634:	10000019 	b	8001669c <cmd_syscall+0xb4>
80016638:	00000000 	nop
8001663c:	8fc30018 	lw	v1,24(s8)
80016640:	24020003 	li	v0,3
80016644:	14620011 	bne	v1,v0,8001668c <cmd_syscall+0xa4>
80016648:	00000000 	nop
8001664c:	8fc2001c 	lw	v0,28(s8)
80016650:	24420004 	addiu	v0,v0,4
80016654:	8c420000 	lw	v0,0(v0)
80016658:	90420000 	lbu	v0,0(v0)
8001665c:	2443ffd0 	addiu	v1,v0,-48
80016660:	8fc2001c 	lw	v0,28(s8)
80016664:	24420008 	addiu	v0,v0,8
80016668:	8c420000 	lw	v0,0(v0)
8001666c:	90420000 	lbu	v0,0(v0)
80016670:	2442ffd0 	addiu	v0,v0,-48
80016674:	00602025 	move	a0,v1
80016678:	00402825 	move	a1,v0
8001667c:	0c004525 	jal	80011494 <call_syscall_a0>
80016680:	00000000 	nop
80016684:	10000005 	b	8001669c <cmd_syscall+0xb4>
80016688:	00000000 	nop
8001668c:	3c028002 	lui	v0,0x8002
80016690:	24449be0 	addiu	a0,v0,-25632
80016694:	0c000aaa 	jal	80002aa8 <kernel_printf>
80016698:	00000000 	nop
8001669c:	03c0e825 	move	sp,s8
800166a0:	8fbf0014 	lw	ra,20(sp)
800166a4:	8fbe0010 	lw	s8,16(sp)
800166a8:	27bd0018 	addiu	sp,sp,24
800166ac:	03e00008 	jr	ra
800166b0:	00000000 	nop

800166b4 <cmd_dispatch>:
800166b4:	27bdff90 	addiu	sp,sp,-112
800166b8:	afbf006c 	sw	ra,108(sp)
800166bc:	afbe0068 	sw	s8,104(sp)
800166c0:	03a0f025 	move	s8,sp
800166c4:	afc40070 	sw	a0,112(s8)
800166c8:	afc00010 	sw	zero,16(s8)
800166cc:	27c30060 	addiu	v1,s8,96
800166d0:	8fc40070 	lw	a0,112(s8)
800166d4:	3c028002 	lui	v0,0x8002
800166d8:	24459cf8 	addiu	a1,v0,-25352
800166dc:	00603025 	move	a2,v1
800166e0:	0c005efa 	jal	80017be8 <kernel_strtok_r>
800166e4:	00000000 	nop
800166e8:	afc20014 	sw	v0,20(s8)
800166ec:	1000001c 	b	80016760 <cmd_dispatch+0xac>
800166f0:	00000000 	nop
800166f4:	8fc20010 	lw	v0,16(s8)
800166f8:	28420010 	slti	v0,v0,16
800166fc:	14400008 	bnez	v0,80016720 <cmd_dispatch+0x6c>
80016700:	00000000 	nop
80016704:	3c028002 	lui	v0,0x8002
80016708:	24449cfc 	addiu	a0,v0,-25348
8001670c:	0c000aaa 	jal	80002aa8 <kernel_printf>
80016710:	00000000 	nop
80016714:	2402000e 	li	v0,14
80016718:	10000061 	b	800168a0 <cmd_dispatch+0x1ec>
8001671c:	00000000 	nop
80016720:	8fc20010 	lw	v0,16(s8)
80016724:	24430001 	addiu	v1,v0,1
80016728:	afc30010 	sw	v1,16(s8)
8001672c:	00021080 	sll	v0,v0,0x2
80016730:	27c30010 	addiu	v1,s8,16
80016734:	00621021 	addu	v0,v1,v0
80016738:	8fc30014 	lw	v1,20(s8)
8001673c:	ac430010 	sw	v1,16(v0)
80016740:	27c30060 	addiu	v1,s8,96
80016744:	00002025 	move	a0,zero
80016748:	3c028002 	lui	v0,0x8002
8001674c:	24459cf8 	addiu	a1,v0,-25352
80016750:	00603025 	move	a2,v1
80016754:	0c005efa 	jal	80017be8 <kernel_strtok_r>
80016758:	00000000 	nop
8001675c:	afc20014 	sw	v0,20(s8)
80016760:	8fc20014 	lw	v0,20(s8)
80016764:	1440ffe3 	bnez	v0,800166f4 <cmd_dispatch+0x40>
80016768:	00000000 	nop
8001676c:	8fc20010 	lw	v0,16(s8)
80016770:	14400004 	bnez	v0,80016784 <cmd_dispatch+0xd0>
80016774:	00000000 	nop
80016778:	00001025 	move	v0,zero
8001677c:	10000048 	b	800168a0 <cmd_dispatch+0x1ec>
80016780:	00000000 	nop
80016784:	afc00018 	sw	zero,24(s8)
80016788:	10000036 	b	80016864 <cmd_dispatch+0x1b0>
8001678c:	00000000 	nop
80016790:	3c028002 	lui	v0,0x8002
80016794:	8fc30018 	lw	v1,24(s8)
80016798:	000318c0 	sll	v1,v1,0x3
8001679c:	2442a7f4 	addiu	v0,v0,-22540
800167a0:	00621021 	addu	v0,v1,v0
800167a4:	8c420000 	lw	v0,0(v0)
800167a8:	90420000 	lbu	v0,0(v0)
800167ac:	1040002a 	beqz	v0,80016858 <cmd_dispatch+0x1a4>
800167b0:	00000000 	nop
800167b4:	8fc40020 	lw	a0,32(s8)
800167b8:	3c028002 	lui	v0,0x8002
800167bc:	8fc30018 	lw	v1,24(s8)
800167c0:	000318c0 	sll	v1,v1,0x3
800167c4:	2442a7f4 	addiu	v0,v0,-22540
800167c8:	00621021 	addu	v0,v1,v0
800167cc:	8c420000 	lw	v0,0(v0)
800167d0:	00402825 	move	a1,v0
800167d4:	0c005e4f 	jal	8001793c <kernel_strcmp>
800167d8:	00000000 	nop
800167dc:	1440001e 	bnez	v0,80016858 <cmd_dispatch+0x1a4>
800167e0:	00000000 	nop
800167e4:	3c028002 	lui	v0,0x8002
800167e8:	8fc30018 	lw	v1,24(s8)
800167ec:	000318c0 	sll	v1,v1,0x3
800167f0:	2442a7f4 	addiu	v0,v0,-22540
800167f4:	00621021 	addu	v0,v1,v0
800167f8:	8c420004 	lw	v0,4(v0)
800167fc:	14400007 	bnez	v0,8001681c <cmd_dispatch+0x168>
80016800:	00000000 	nop
80016804:	3c028002 	lui	v0,0x8002
80016808:	24449d20 	addiu	a0,v0,-25312
8001680c:	3c028002 	lui	v0,0x8002
80016810:	24459d3c 	addiu	a1,v0,-25284
80016814:	0c005c3f 	jal	800170fc <badassert>
80016818:	00000000 	nop
8001681c:	3c028002 	lui	v0,0x8002
80016820:	8fc30018 	lw	v1,24(s8)
80016824:	000318c0 	sll	v1,v1,0x3
80016828:	2442a7f4 	addiu	v0,v0,-22540
8001682c:	00621021 	addu	v0,v1,v0
80016830:	8c420004 	lw	v0,4(v0)
80016834:	27c30020 	addiu	v1,s8,32
80016838:	8fc40010 	lw	a0,16(s8)
8001683c:	00602825 	move	a1,v1
80016840:	0040f809 	jalr	v0
80016844:	00000000 	nop
80016848:	afc2001c 	sw	v0,28(s8)
8001684c:	8fc2001c 	lw	v0,28(s8)
80016850:	10000013 	b	800168a0 <cmd_dispatch+0x1ec>
80016854:	00000000 	nop
80016858:	8fc20018 	lw	v0,24(s8)
8001685c:	24420001 	addiu	v0,v0,1
80016860:	afc20018 	sw	v0,24(s8)
80016864:	3c028002 	lui	v0,0x8002
80016868:	8fc30018 	lw	v1,24(s8)
8001686c:	000318c0 	sll	v1,v1,0x3
80016870:	2442a7f4 	addiu	v0,v0,-22540
80016874:	00621021 	addu	v0,v1,v0
80016878:	8c420000 	lw	v0,0(v0)
8001687c:	1440ffc4 	bnez	v0,80016790 <cmd_dispatch+0xdc>
80016880:	00000000 	nop
80016884:	8fc30020 	lw	v1,32(s8)
80016888:	3c028002 	lui	v0,0x8002
8001688c:	24449d64 	addiu	a0,v0,-25244
80016890:	00602825 	move	a1,v1
80016894:	0c000aaa 	jal	80002aa8 <kernel_printf>
80016898:	00000000 	nop
8001689c:	24020008 	li	v0,8
800168a0:	03c0e825 	move	sp,s8
800168a4:	8fbf006c 	lw	ra,108(sp)
800168a8:	8fbe0068 	lw	s8,104(sp)
800168ac:	27bd0070 	addiu	sp,sp,112
800168b0:	03e00008 	jr	ra
800168b4:	00000000 	nop

800168b8 <menu_execute>:
800168b8:	27bdffd8 	addiu	sp,sp,-40
800168bc:	afbf0024 	sw	ra,36(sp)
800168c0:	afbe0020 	sw	s8,32(sp)
800168c4:	03a0f025 	move	s8,sp
800168c8:	2404000a 	li	a0,10
800168cc:	00002825 	move	a1,zero
800168d0:	00003025 	move	a2,zero
800168d4:	0c000810 	jal	80002040 <kernel_putchar>
800168d8:	00000000 	nop
800168dc:	27c30018 	addiu	v1,s8,24
800168e0:	3c028003 	lui	v0,0x8003
800168e4:	2444d750 	addiu	a0,v0,-10416
800168e8:	3c028002 	lui	v0,0x8002
800168ec:	24459d7c 	addiu	a1,v0,-25220
800168f0:	00603025 	move	a2,v1
800168f4:	0c005efa 	jal	80017be8 <kernel_strtok_r>
800168f8:	00000000 	nop
800168fc:	afc20010 	sw	v0,16(s8)
80016900:	10000019 	b	80016968 <menu_execute+0xb0>
80016904:	00000000 	nop
80016908:	8fc40010 	lw	a0,16(s8)
8001690c:	0c0059ad 	jal	800166b4 <cmd_dispatch>
80016910:	00000000 	nop
80016914:	afc20014 	sw	v0,20(s8)
80016918:	8fc20014 	lw	v0,20(s8)
8001691c:	1040000a 	beqz	v0,80016948 <menu_execute+0x90>
80016920:	00000000 	nop
80016924:	8fc40014 	lw	a0,20(s8)
80016928:	0c005ce8 	jal	800173a0 <strerror>
8001692c:	00000000 	nop
80016930:	00401825 	move	v1,v0
80016934:	3c028002 	lui	v0,0x8002
80016938:	24449d80 	addiu	a0,v0,-25216
8001693c:	00602825 	move	a1,v1
80016940:	0c000aaa 	jal	80002aa8 <kernel_printf>
80016944:	00000000 	nop
80016948:	27c30018 	addiu	v1,s8,24
8001694c:	00002025 	move	a0,zero
80016950:	3c028002 	lui	v0,0x8002
80016954:	24459d7c 	addiu	a1,v0,-25220
80016958:	00603025 	move	a2,v1
8001695c:	0c005efa 	jal	80017be8 <kernel_strtok_r>
80016960:	00000000 	nop
80016964:	afc20010 	sw	v0,16(s8)
80016968:	8fc20010 	lw	v0,16(s8)
8001696c:	1440ffe6 	bnez	v0,80016908 <menu_execute+0x50>
80016970:	00000000 	nop
80016974:	8fc20014 	lw	v0,20(s8)
80016978:	03c0e825 	move	sp,s8
8001697c:	8fbf0024 	lw	ra,36(sp)
80016980:	8fbe0020 	lw	s8,32(sp)
80016984:	27bd0028 	addiu	sp,sp,40
80016988:	03e00008 	jr	ra
8001698c:	00000000 	nop

80016990 <menu>:
80016990:	27bdffc8 	addiu	sp,sp,-56
80016994:	afbf0034 	sw	ra,52(sp)
80016998:	afbe0030 	sw	s8,48(sp)
8001699c:	03a0f025 	move	s8,sp
800169a0:	3c028002 	lui	v0,0x8002
800169a4:	24449d9c 	addiu	a0,v0,-25188
800169a8:	0c000aaa 	jal	80002aa8 <kernel_printf>
800169ac:	00000000 	nop
800169b0:	0c000641 	jal	80001904 <kernel_getchar>
800169b4:	00000000 	nop
800169b8:	af8080e8 	sw	zero,-32536(gp)
800169bc:	3c028003 	lui	v0,0x8003
800169c0:	a040d750 	sb	zero,-10416(v0)
800169c4:	2404001f 	li	a0,31
800169c8:	0c0007a3 	jal	80001e8c <kernel_clear_screen>
800169cc:	00000000 	nop
800169d0:	27c20020 	addiu	v0,s8,32
800169d4:	00402025 	move	a0,v0
800169d8:	2405000a 	li	a1,10
800169dc:	0c0051fc 	jal	800147f0 <get_time>
800169e0:	00000000 	nop
800169e4:	27c30020 	addiu	v1,s8,32
800169e8:	3c028002 	lui	v0,0x8002
800169ec:	24449dbc 	addiu	a0,v0,-25156
800169f0:	00602825 	move	a1,v1
800169f4:	0c000aaa 	jal	80002aa8 <kernel_printf>
800169f8:	00000000 	nop
800169fc:	3c028003 	lui	v0,0x8003
80016a00:	2444d650 	addiu	a0,v0,-10672
80016a04:	3c028002 	lui	v0,0x8002
80016a08:	24459994 	addiu	a1,v0,-26220
80016a0c:	24060005 	li	a2,5
80016a10:	0c005d71 	jal	800175c4 <kernel_memcpy>
80016a14:	00000000 	nop
80016a18:	3c028002 	lui	v0,0x8002
80016a1c:	24449dd8 	addiu	a0,v0,-25128
80016a20:	240500f0 	li	a1,240
80016a24:	00003025 	move	a2,zero
80016a28:	0c00088b 	jal	8000222c <kernel_puts>
80016a2c:	00000000 	nop
80016a30:	3c028003 	lui	v0,0x8003
80016a34:	2444d650 	addiu	a0,v0,-10672
80016a38:	24050ff0 	li	a1,4080
80016a3c:	00003025 	move	a2,zero
80016a40:	0c00088b 	jal	8000222c <kernel_puts>
80016a44:	00000000 	nop
80016a48:	3c028002 	lui	v0,0x8002
80016a4c:	24449ddc 	addiu	a0,v0,-25124
80016a50:	240500ff 	li	a1,255
80016a54:	00003025 	move	a2,zero
80016a58:	0c00088b 	jal	8000222c <kernel_puts>
80016a5c:	00000000 	nop
80016a60:	afc00018 	sw	zero,24(s8)
80016a64:	0c000641 	jal	80001904 <kernel_getchar>
80016a68:	00000000 	nop
80016a6c:	a3c2001c 	sb	v0,28(s8)
80016a70:	93c3001c 	lbu	v1,28(s8)
80016a74:	2402000a 	li	v0,10
80016a78:	1462002f 	bne	v1,v0,80016b38 <menu+0x1a8>
80016a7c:	00000000 	nop
80016a80:	8f8380e8 	lw	v1,-32536(gp)
80016a84:	3c028003 	lui	v0,0x8003
80016a88:	2442d750 	addiu	v0,v0,-10416
80016a8c:	00621021 	addu	v0,v1,v0
80016a90:	a0400000 	sb	zero,0(v0)
80016a94:	0c005a2e 	jal	800168b8 <menu_execute>
80016a98:	00000000 	nop
80016a9c:	afc20018 	sw	v0,24(s8)
80016aa0:	8fc20018 	lw	v0,24(s8)
80016aa4:	10400009 	beqz	v0,80016acc <menu+0x13c>
80016aa8:	00000000 	nop
80016aac:	3c028002 	lui	v0,0x8002
80016ab0:	24449dd8 	addiu	a0,v0,-25128
80016ab4:	2405000f 	li	a1,15
80016ab8:	00003025 	move	a2,zero
80016abc:	0c00088b 	jal	8000222c <kernel_puts>
80016ac0:	00000000 	nop
80016ac4:	10000007 	b	80016ae4 <menu+0x154>
80016ac8:	00000000 	nop
80016acc:	3c028002 	lui	v0,0x8002
80016ad0:	24449dd8 	addiu	a0,v0,-25128
80016ad4:	240500f0 	li	a1,240
80016ad8:	00003025 	move	a2,zero
80016adc:	0c00088b 	jal	8000222c <kernel_puts>
80016ae0:	00000000 	nop
80016ae4:	3c028003 	lui	v0,0x8003
80016ae8:	2444d650 	addiu	a0,v0,-10672
80016aec:	24050ff0 	li	a1,4080
80016af0:	00003025 	move	a2,zero
80016af4:	0c00088b 	jal	8000222c <kernel_puts>
80016af8:	00000000 	nop
80016afc:	3c028002 	lui	v0,0x8002
80016b00:	24449ddc 	addiu	a0,v0,-25124
80016b04:	240500ff 	li	a1,255
80016b08:	00003025 	move	a2,zero
80016b0c:	0c00088b 	jal	8000222c <kernel_puts>
80016b10:	00000000 	nop
80016b14:	af8080e8 	sw	zero,-32536(gp)
80016b18:	3c028003 	lui	v0,0x8003
80016b1c:	2444d750 	addiu	a0,v0,-10416
80016b20:	00002825 	move	a1,zero
80016b24:	24060040 	li	a2,64
80016b28:	0c005d92 	jal	80017648 <kernel_memset>
80016b2c:	00000000 	nop
80016b30:	1000002e 	b	80016bec <menu+0x25c>
80016b34:	00000000 	nop
80016b38:	93c3001c 	lbu	v1,28(s8)
80016b3c:	24020008 	li	v0,8
80016b40:	14620018 	bne	v1,v0,80016ba4 <menu+0x214>
80016b44:	00000000 	nop
80016b48:	8f8280e8 	lw	v0,-32536(gp)
80016b4c:	10400027 	beqz	v0,80016bec <menu+0x25c>
80016b50:	00000000 	nop
80016b54:	8f8280e8 	lw	v0,-32536(gp)
80016b58:	2442ffff 	addiu	v0,v0,-1
80016b5c:	af8280e8 	sw	v0,-32536(gp)
80016b60:	8f8380b0 	lw	v1,-32592(gp)
80016b64:	8f8280ac 	lw	v0,-32596(gp)
80016b68:	2442ffff 	addiu	v0,v0,-1
80016b6c:	afa20010 	sw	v0,16(sp)
80016b70:	24040020 	li	a0,32
80016b74:	24050fff 	li	a1,4095
80016b78:	00003025 	move	a2,zero
80016b7c:	00603825 	move	a3,v1
80016b80:	0c0007e8 	jal	80001fa0 <kernel_putchar_at>
80016b84:	00000000 	nop
80016b88:	8f8280ac 	lw	v0,-32596(gp)
80016b8c:	2442ffff 	addiu	v0,v0,-1
80016b90:	af8280ac 	sw	v0,-32596(gp)
80016b94:	0c00077b 	jal	80001dec <kernel_set_cursor>
80016b98:	00000000 	nop
80016b9c:	1000ffb1 	b	80016a64 <menu+0xd4>
80016ba0:	00000000 	nop
80016ba4:	8f8280e8 	lw	v0,-32536(gp)
80016ba8:	2842003f 	slti	v0,v0,63
80016bac:	1040000f 	beqz	v0,80016bec <menu+0x25c>
80016bb0:	00000000 	nop
80016bb4:	8f8280e8 	lw	v0,-32536(gp)
80016bb8:	24430001 	addiu	v1,v0,1
80016bbc:	af8380e8 	sw	v1,-32536(gp)
80016bc0:	3c038003 	lui	v1,0x8003
80016bc4:	2463d750 	addiu	v1,v1,-10416
80016bc8:	00431021 	addu	v0,v0,v1
80016bcc:	93c3001c 	lbu	v1,28(s8)
80016bd0:	a0430000 	sb	v1,0(v0)
80016bd4:	93c2001c 	lbu	v0,28(s8)
80016bd8:	00402025 	move	a0,v0
80016bdc:	24050fff 	li	a1,4095
80016be0:	00003025 	move	a2,zero
80016be4:	0c000810 	jal	80002040 <kernel_putchar>
80016be8:	00000000 	nop
80016bec:	1000ff9d 	b	80016a64 <menu+0xd4>
80016bf0:	00000000 	nop

80016bf4 <array_create>:
80016bf4:	27bdffe0 	addiu	sp,sp,-32
80016bf8:	afbf001c 	sw	ra,28(sp)
80016bfc:	afbe0018 	sw	s8,24(sp)
80016c00:	03a0f025 	move	s8,sp
80016c04:	2404000c 	li	a0,12
80016c08:	0c003abb 	jal	8000eaec <kmalloc>
80016c0c:	00000000 	nop
80016c10:	afc20010 	sw	v0,16(s8)
80016c14:	8fc20010 	lw	v0,16(s8)
80016c18:	10400004 	beqz	v0,80016c2c <array_create+0x38>
80016c1c:	00000000 	nop
80016c20:	8fc40010 	lw	a0,16(s8)
80016c24:	0c005b23 	jal	80016c8c <array_init>
80016c28:	00000000 	nop
80016c2c:	8fc20010 	lw	v0,16(s8)
80016c30:	03c0e825 	move	sp,s8
80016c34:	8fbf001c 	lw	ra,28(sp)
80016c38:	8fbe0018 	lw	s8,24(sp)
80016c3c:	27bd0020 	addiu	sp,sp,32
80016c40:	03e00008 	jr	ra
80016c44:	00000000 	nop

80016c48 <array_destroy>:
80016c48:	27bdffe8 	addiu	sp,sp,-24
80016c4c:	afbf0014 	sw	ra,20(sp)
80016c50:	afbe0010 	sw	s8,16(sp)
80016c54:	03a0f025 	move	s8,sp
80016c58:	afc40018 	sw	a0,24(s8)
80016c5c:	8fc40018 	lw	a0,24(s8)
80016c60:	0c005b34 	jal	80016cd0 <array_cleanup>
80016c64:	00000000 	nop
80016c68:	8fc40018 	lw	a0,24(s8)
80016c6c:	0c003b13 	jal	8000ec4c <kfree>
80016c70:	00000000 	nop
80016c74:	03c0e825 	move	sp,s8
80016c78:	8fbf0014 	lw	ra,20(sp)
80016c7c:	8fbe0010 	lw	s8,16(sp)
80016c80:	27bd0018 	addiu	sp,sp,24
80016c84:	03e00008 	jr	ra
80016c88:	00000000 	nop

80016c8c <array_init>:
80016c8c:	27bdfff8 	addiu	sp,sp,-8
80016c90:	afbe0004 	sw	s8,4(sp)
80016c94:	03a0f025 	move	s8,sp
80016c98:	afc40008 	sw	a0,8(s8)
80016c9c:	8fc20008 	lw	v0,8(s8)
80016ca0:	ac400008 	sw	zero,8(v0)
80016ca4:	8fc20008 	lw	v0,8(s8)
80016ca8:	8c430008 	lw	v1,8(v0)
80016cac:	8fc20008 	lw	v0,8(s8)
80016cb0:	ac430004 	sw	v1,4(v0)
80016cb4:	8fc20008 	lw	v0,8(s8)
80016cb8:	ac400000 	sw	zero,0(v0)
80016cbc:	03c0e825 	move	sp,s8
80016cc0:	8fbe0004 	lw	s8,4(sp)
80016cc4:	27bd0008 	addiu	sp,sp,8
80016cc8:	03e00008 	jr	ra
80016ccc:	00000000 	nop

80016cd0 <array_cleanup>:
80016cd0:	27bdffe8 	addiu	sp,sp,-24
80016cd4:	afbf0014 	sw	ra,20(sp)
80016cd8:	afbe0010 	sw	s8,16(sp)
80016cdc:	03a0f025 	move	s8,sp
80016ce0:	afc40018 	sw	a0,24(s8)
80016ce4:	8fc20018 	lw	v0,24(s8)
80016ce8:	8c420004 	lw	v0,4(v0)
80016cec:	10400007 	beqz	v0,80016d0c <array_cleanup+0x3c>
80016cf0:	00000000 	nop
80016cf4:	3c028002 	lui	v0,0x8002
80016cf8:	24449de0 	addiu	a0,v0,-25120
80016cfc:	3c028002 	lui	v0,0x8002
80016d00:	24459dec 	addiu	a1,v0,-25108
80016d04:	0c005c3f 	jal	800170fc <badassert>
80016d08:	00000000 	nop
80016d0c:	8fc20018 	lw	v0,24(s8)
80016d10:	8c420000 	lw	v0,0(v0)
80016d14:	00402025 	move	a0,v0
80016d18:	0c003b13 	jal	8000ec4c <kfree>
80016d1c:	00000000 	nop
80016d20:	03c0e825 	move	sp,s8
80016d24:	8fbf0014 	lw	ra,20(sp)
80016d28:	8fbe0010 	lw	s8,16(sp)
80016d2c:	27bd0018 	addiu	sp,sp,24
80016d30:	03e00008 	jr	ra
80016d34:	00000000 	nop

80016d38 <array_num>:
80016d38:	27bdfff8 	addiu	sp,sp,-8
80016d3c:	afbe0004 	sw	s8,4(sp)
80016d40:	03a0f025 	move	s8,sp
80016d44:	afc40008 	sw	a0,8(s8)
80016d48:	8fc20008 	lw	v0,8(s8)
80016d4c:	8c420004 	lw	v0,4(v0)
80016d50:	03c0e825 	move	sp,s8
80016d54:	8fbe0004 	lw	s8,4(sp)
80016d58:	27bd0008 	addiu	sp,sp,8
80016d5c:	03e00008 	jr	ra
80016d60:	00000000 	nop

80016d64 <array_get>:
80016d64:	27bdffe8 	addiu	sp,sp,-24
80016d68:	afbf0014 	sw	ra,20(sp)
80016d6c:	afbe0010 	sw	s8,16(sp)
80016d70:	03a0f025 	move	s8,sp
80016d74:	afc40018 	sw	a0,24(s8)
80016d78:	afc5001c 	sw	a1,28(s8)
80016d7c:	8fc20018 	lw	v0,24(s8)
80016d80:	8c430004 	lw	v1,4(v0)
80016d84:	8fc2001c 	lw	v0,28(s8)
80016d88:	0043102b 	sltu	v0,v0,v1
80016d8c:	14400007 	bnez	v0,80016dac <array_get+0x48>
80016d90:	00000000 	nop
80016d94:	3c028002 	lui	v0,0x8002
80016d98:	24449e10 	addiu	a0,v0,-25072
80016d9c:	3c028002 	lui	v0,0x8002
80016da0:	24459e20 	addiu	a1,v0,-25056
80016da4:	0c005c3f 	jal	800170fc <badassert>
80016da8:	00000000 	nop
80016dac:	8fc20018 	lw	v0,24(s8)
80016db0:	8c430000 	lw	v1,0(v0)
80016db4:	8fc2001c 	lw	v0,28(s8)
80016db8:	00021080 	sll	v0,v0,0x2
80016dbc:	00621021 	addu	v0,v1,v0
80016dc0:	8c420000 	lw	v0,0(v0)
80016dc4:	03c0e825 	move	sp,s8
80016dc8:	8fbf0014 	lw	ra,20(sp)
80016dcc:	8fbe0010 	lw	s8,16(sp)
80016dd0:	27bd0018 	addiu	sp,sp,24
80016dd4:	03e00008 	jr	ra
80016dd8:	00000000 	nop

80016ddc <array_set>:
80016ddc:	27bdfff8 	addiu	sp,sp,-8
80016de0:	afbe0004 	sw	s8,4(sp)
80016de4:	03a0f025 	move	s8,sp
80016de8:	afc40008 	sw	a0,8(s8)
80016dec:	afc5000c 	sw	a1,12(s8)
80016df0:	afc60010 	sw	a2,16(s8)
80016df4:	8fc20008 	lw	v0,8(s8)
80016df8:	8c430000 	lw	v1,0(v0)
80016dfc:	8fc2000c 	lw	v0,12(s8)
80016e00:	00021080 	sll	v0,v0,0x2
80016e04:	00621021 	addu	v0,v1,v0
80016e08:	8fc30010 	lw	v1,16(s8)
80016e0c:	ac430000 	sw	v1,0(v0)
80016e10:	03c0e825 	move	sp,s8
80016e14:	8fbe0004 	lw	s8,4(sp)
80016e18:	27bd0008 	addiu	sp,sp,8
80016e1c:	03e00008 	jr	ra
80016e20:	00000000 	nop

80016e24 <array_setsize>:
80016e24:	27bdffe0 	addiu	sp,sp,-32
80016e28:	afbf001c 	sw	ra,28(sp)
80016e2c:	afbe0018 	sw	s8,24(sp)
80016e30:	03a0f025 	move	s8,sp
80016e34:	afc40020 	sw	a0,32(s8)
80016e38:	afc50024 	sw	a1,36(s8)
80016e3c:	8fc20020 	lw	v0,32(s8)
80016e40:	8c430008 	lw	v1,8(v0)
80016e44:	8fc20024 	lw	v0,36(s8)
80016e48:	0062102b 	sltu	v0,v1,v0
80016e4c:	10400035 	beqz	v0,80016f24 <array_setsize+0x100>
80016e50:	00000000 	nop
80016e54:	8fc20020 	lw	v0,32(s8)
80016e58:	8c420008 	lw	v0,8(v0)
80016e5c:	afc20010 	sw	v0,16(s8)
80016e60:	1000000a 	b	80016e8c <array_setsize+0x68>
80016e64:	00000000 	nop
80016e68:	8fc20010 	lw	v0,16(s8)
80016e6c:	10400005 	beqz	v0,80016e84 <array_setsize+0x60>
80016e70:	00000000 	nop
80016e74:	8fc20010 	lw	v0,16(s8)
80016e78:	00021040 	sll	v0,v0,0x1
80016e7c:	10000002 	b	80016e88 <array_setsize+0x64>
80016e80:	00000000 	nop
80016e84:	24020004 	li	v0,4
80016e88:	afc20010 	sw	v0,16(s8)
80016e8c:	8fc30024 	lw	v1,36(s8)
80016e90:	8fc20010 	lw	v0,16(s8)
80016e94:	0043102b 	sltu	v0,v0,v1
80016e98:	1440fff3 	bnez	v0,80016e68 <array_setsize+0x44>
80016e9c:	00000000 	nop
80016ea0:	8fc20010 	lw	v0,16(s8)
80016ea4:	00021080 	sll	v0,v0,0x2
80016ea8:	00402025 	move	a0,v0
80016eac:	0c003abb 	jal	8000eaec <kmalloc>
80016eb0:	00000000 	nop
80016eb4:	afc20014 	sw	v0,20(s8)
80016eb8:	8fc20014 	lw	v0,20(s8)
80016ebc:	14400004 	bnez	v0,80016ed0 <array_setsize+0xac>
80016ec0:	00000000 	nop
80016ec4:	24020003 	li	v0,3
80016ec8:	1000001a 	b	80016f34 <array_setsize+0x110>
80016ecc:	00000000 	nop
80016ed0:	8fc20020 	lw	v0,32(s8)
80016ed4:	8c430000 	lw	v1,0(v0)
80016ed8:	8fc20020 	lw	v0,32(s8)
80016edc:	8c420004 	lw	v0,4(v0)
80016ee0:	00021080 	sll	v0,v0,0x2
80016ee4:	8fc40014 	lw	a0,20(s8)
80016ee8:	00602825 	move	a1,v1
80016eec:	00403025 	move	a2,v0
80016ef0:	0c005d71 	jal	800175c4 <kernel_memcpy>
80016ef4:	00000000 	nop
80016ef8:	8fc20020 	lw	v0,32(s8)
80016efc:	8c420000 	lw	v0,0(v0)
80016f00:	00402025 	move	a0,v0
80016f04:	0c003b13 	jal	8000ec4c <kfree>
80016f08:	00000000 	nop
80016f0c:	8fc20020 	lw	v0,32(s8)
80016f10:	8fc30014 	lw	v1,20(s8)
80016f14:	ac430000 	sw	v1,0(v0)
80016f18:	8fc20020 	lw	v0,32(s8)
80016f1c:	8fc30010 	lw	v1,16(s8)
80016f20:	ac430008 	sw	v1,8(v0)
80016f24:	8fc20020 	lw	v0,32(s8)
80016f28:	8fc30024 	lw	v1,36(s8)
80016f2c:	ac430004 	sw	v1,4(v0)
80016f30:	00001025 	move	v0,zero
80016f34:	03c0e825 	move	sp,s8
80016f38:	8fbf001c 	lw	ra,28(sp)
80016f3c:	8fbe0018 	lw	s8,24(sp)
80016f40:	27bd0020 	addiu	sp,sp,32
80016f44:	03e00008 	jr	ra
80016f48:	00000000 	nop

80016f4c <array_add>:
80016f4c:	27bdffe0 	addiu	sp,sp,-32
80016f50:	afbf001c 	sw	ra,28(sp)
80016f54:	afbe0018 	sw	s8,24(sp)
80016f58:	03a0f025 	move	s8,sp
80016f5c:	afc40020 	sw	a0,32(s8)
80016f60:	afc50024 	sw	a1,36(s8)
80016f64:	afc60028 	sw	a2,40(s8)
80016f68:	8fc20020 	lw	v0,32(s8)
80016f6c:	8c420004 	lw	v0,4(v0)
80016f70:	afc20010 	sw	v0,16(s8)
80016f74:	8fc20010 	lw	v0,16(s8)
80016f78:	24420001 	addiu	v0,v0,1
80016f7c:	8fc40020 	lw	a0,32(s8)
80016f80:	00402825 	move	a1,v0
80016f84:	0c005b89 	jal	80016e24 <array_setsize>
80016f88:	00000000 	nop
80016f8c:	afc20014 	sw	v0,20(s8)
80016f90:	8fc20014 	lw	v0,20(s8)
80016f94:	10400004 	beqz	v0,80016fa8 <array_add+0x5c>
80016f98:	00000000 	nop
80016f9c:	8fc20014 	lw	v0,20(s8)
80016fa0:	1000000f 	b	80016fe0 <array_add+0x94>
80016fa4:	00000000 	nop
80016fa8:	8fc20020 	lw	v0,32(s8)
80016fac:	8c430000 	lw	v1,0(v0)
80016fb0:	8fc20010 	lw	v0,16(s8)
80016fb4:	00021080 	sll	v0,v0,0x2
80016fb8:	00621021 	addu	v0,v1,v0
80016fbc:	8fc30024 	lw	v1,36(s8)
80016fc0:	ac430000 	sw	v1,0(v0)
80016fc4:	8fc20028 	lw	v0,40(s8)
80016fc8:	10400004 	beqz	v0,80016fdc <array_add+0x90>
80016fcc:	00000000 	nop
80016fd0:	8fc20028 	lw	v0,40(s8)
80016fd4:	8fc30010 	lw	v1,16(s8)
80016fd8:	ac430000 	sw	v1,0(v0)
80016fdc:	00001025 	move	v0,zero
80016fe0:	03c0e825 	move	sp,s8
80016fe4:	8fbf001c 	lw	ra,28(sp)
80016fe8:	8fbe0018 	lw	s8,24(sp)
80016fec:	27bd0020 	addiu	sp,sp,32
80016ff0:	03e00008 	jr	ra
80016ff4:	00000000 	nop

80016ff8 <array_remove>:
80016ff8:	27bdffe0 	addiu	sp,sp,-32
80016ffc:	afbf001c 	sw	ra,28(sp)
80017000:	afbe0018 	sw	s8,24(sp)
80017004:	03a0f025 	move	s8,sp
80017008:	afc40020 	sw	a0,32(s8)
8001700c:	afc50024 	sw	a1,36(s8)
80017010:	8fc20020 	lw	v0,32(s8)
80017014:	8c430004 	lw	v1,4(v0)
80017018:	8fc20020 	lw	v0,32(s8)
8001701c:	8c420008 	lw	v0,8(v0)
80017020:	0043102b 	sltu	v0,v0,v1
80017024:	10400007 	beqz	v0,80017044 <array_remove+0x4c>
80017028:	00000000 	nop
8001702c:	3c028002 	lui	v0,0x8002
80017030:	24449e40 	addiu	a0,v0,-25024
80017034:	3c028002 	lui	v0,0x8002
80017038:	24459e54 	addiu	a1,v0,-25004
8001703c:	0c005c3f 	jal	800170fc <badassert>
80017040:	00000000 	nop
80017044:	8fc20020 	lw	v0,32(s8)
80017048:	8c430004 	lw	v1,4(v0)
8001704c:	8fc20024 	lw	v0,36(s8)
80017050:	0043102b 	sltu	v0,v0,v1
80017054:	14400007 	bnez	v0,80017074 <array_remove+0x7c>
80017058:	00000000 	nop
8001705c:	3c028002 	lui	v0,0x8002
80017060:	24449e10 	addiu	a0,v0,-25072
80017064:	3c028002 	lui	v0,0x8002
80017068:	24459e54 	addiu	a1,v0,-25004
8001706c:	0c005c3f 	jal	800170fc <badassert>
80017070:	00000000 	nop
80017074:	8fc20020 	lw	v0,32(s8)
80017078:	8c430004 	lw	v1,4(v0)
8001707c:	8fc20024 	lw	v0,36(s8)
80017080:	00621023 	subu	v0,v1,v0
80017084:	2442ffff 	addiu	v0,v0,-1
80017088:	afc20010 	sw	v0,16(s8)
8001708c:	8fc20020 	lw	v0,32(s8)
80017090:	8c430000 	lw	v1,0(v0)
80017094:	8fc20024 	lw	v0,36(s8)
80017098:	00021080 	sll	v0,v0,0x2
8001709c:	00622021 	addu	a0,v1,v0
800170a0:	8fc20020 	lw	v0,32(s8)
800170a4:	8c430000 	lw	v1,0(v0)
800170a8:	8fc20024 	lw	v0,36(s8)
800170ac:	24420001 	addiu	v0,v0,1
800170b0:	00021080 	sll	v0,v0,0x2
800170b4:	00621821 	addu	v1,v1,v0
800170b8:	8fc20010 	lw	v0,16(s8)
800170bc:	00021080 	sll	v0,v0,0x2
800170c0:	00602825 	move	a1,v1
800170c4:	00403025 	move	a2,v0
800170c8:	0c005db7 	jal	800176dc <kernel_memmove>
800170cc:	00000000 	nop
800170d0:	8fc20020 	lw	v0,32(s8)
800170d4:	8c420004 	lw	v0,4(v0)
800170d8:	2443ffff 	addiu	v1,v0,-1
800170dc:	8fc20020 	lw	v0,32(s8)
800170e0:	ac430004 	sw	v1,4(v0)
800170e4:	03c0e825 	move	sp,s8
800170e8:	8fbf001c 	lw	ra,28(sp)
800170ec:	8fbe0018 	lw	s8,24(sp)
800170f0:	27bd0020 	addiu	sp,sp,32
800170f4:	03e00008 	jr	ra
800170f8:	00000000 	nop

800170fc <badassert>:
800170fc:	27bdffe8 	addiu	sp,sp,-24
80017100:	afbf0014 	sw	ra,20(sp)
80017104:	afbe0010 	sw	s8,16(sp)
80017108:	03a0f025 	move	s8,sp
8001710c:	afc40018 	sw	a0,24(s8)
80017110:	afc5001c 	sw	a1,28(s8)
80017114:	3c028002 	lui	v0,0x8002
80017118:	24449e78 	addiu	a0,v0,-24968
8001711c:	8fc50018 	lw	a1,24(s8)
80017120:	8fc6001c 	lw	a2,28(s8)
80017124:	0c000aaa 	jal	80002aa8 <kernel_printf>
80017128:	00000000 	nop
8001712c:	1000ffff 	b	8001712c <badassert+0x30>
80017130:	00000000 	nop

80017134 <log_level_adv>:
80017134:	27bdfff8 	addiu	sp,sp,-8
80017138:	afbe0004 	sw	s8,4(sp)
8001713c:	03a0f025 	move	s8,sp
80017140:	8f8280a8 	lw	v0,-32600(gp)
80017144:	28420004 	slti	v0,v0,4
80017148:	10400004 	beqz	v0,8001715c <log_level_adv+0x28>
8001714c:	00000000 	nop
80017150:	8f8280a8 	lw	v0,-32600(gp)
80017154:	24420001 	addiu	v0,v0,1
80017158:	af8280a8 	sw	v0,-32600(gp)
8001715c:	03c0e825 	move	sp,s8
80017160:	8fbe0004 	lw	s8,4(sp)
80017164:	27bd0008 	addiu	sp,sp,8
80017168:	03e00008 	jr	ra
8001716c:	00000000 	nop

80017170 <log_level_rec>:
80017170:	27bdfff8 	addiu	sp,sp,-8
80017174:	afbe0004 	sw	s8,4(sp)
80017178:	03a0f025 	move	s8,sp
8001717c:	8f8280a8 	lw	v0,-32600(gp)
80017180:	18400004 	blez	v0,80017194 <log_level_rec+0x24>
80017184:	00000000 	nop
80017188:	8f8280a8 	lw	v0,-32600(gp)
8001718c:	2442ffff 	addiu	v0,v0,-1
80017190:	af8280a8 	sw	v0,-32600(gp)
80017194:	03c0e825 	move	sp,s8
80017198:	8fbe0004 	lw	s8,4(sp)
8001719c:	27bd0008 	addiu	sp,sp,8
800171a0:	03e00008 	jr	ra
800171a4:	00000000 	nop

800171a8 <log>:
800171a8:	27bdffd8 	addiu	sp,sp,-40
800171ac:	afbf0024 	sw	ra,36(sp)
800171b0:	afbe0020 	sw	s8,32(sp)
800171b4:	03a0f025 	move	s8,sp
800171b8:	afc40028 	sw	a0,40(s8)
800171bc:	afc60030 	sw	a2,48(s8)
800171c0:	afc70034 	sw	a3,52(s8)
800171c4:	afc5002c 	sw	a1,44(s8)
800171c8:	8fc20028 	lw	v0,40(s8)
800171cc:	2c420005 	sltiu	v0,v0,5
800171d0:	10400031 	beqz	v0,80017298 <log+0xf0>
800171d4:	00000000 	nop
800171d8:	8fc20028 	lw	v0,40(s8)
800171dc:	00021880 	sll	v1,v0,0x2
800171e0:	3c028002 	lui	v0,0x8002
800171e4:	24429ef8 	addiu	v0,v0,-24840
800171e8:	00621021 	addu	v0,v1,v0
800171ec:	8c420000 	lw	v0,0(v0)
800171f0:	00400008 	jr	v0
800171f4:	00000000 	nop
800171f8:	3c028002 	lui	v0,0x8002
800171fc:	24449e94 	addiu	a0,v0,-24940
80017200:	240500f0 	li	a1,240
80017204:	00003025 	move	a2,zero
80017208:	0c00088b 	jal	8000222c <kernel_puts>
8001720c:	00000000 	nop
80017210:	10000028 	b	800172b4 <log+0x10c>
80017214:	00000000 	nop
80017218:	3c028002 	lui	v0,0x8002
8001721c:	24449ea0 	addiu	a0,v0,-24928
80017220:	2405000f 	li	a1,15
80017224:	00003025 	move	a2,zero
80017228:	0c00088b 	jal	8000222c <kernel_puts>
8001722c:	00000000 	nop
80017230:	10000020 	b	800172b4 <log+0x10c>
80017234:	00000000 	nop
80017238:	3c028002 	lui	v0,0x8002
8001723c:	24449ea8 	addiu	a0,v0,-24920
80017240:	24050f00 	li	a1,3840
80017244:	00003025 	move	a2,zero
80017248:	0c00088b 	jal	8000222c <kernel_puts>
8001724c:	00000000 	nop
80017250:	10000018 	b	800172b4 <log+0x10c>
80017254:	00000000 	nop
80017258:	3c028002 	lui	v0,0x8002
8001725c:	24449eb4 	addiu	a0,v0,-24908
80017260:	24050f00 	li	a1,3840
80017264:	00003025 	move	a2,zero
80017268:	0c00088b 	jal	8000222c <kernel_puts>
8001726c:	00000000 	nop
80017270:	10000010 	b	800172b4 <log+0x10c>
80017274:	00000000 	nop
80017278:	3c028002 	lui	v0,0x8002
8001727c:	24449ec0 	addiu	a0,v0,-24896
80017280:	24050fff 	li	a1,4095
80017284:	00003025 	move	a2,zero
80017288:	0c00088b 	jal	8000222c <kernel_puts>
8001728c:	00000000 	nop
80017290:	10000008 	b	800172b4 <log+0x10c>
80017294:	00000000 	nop
80017298:	3c028002 	lui	v0,0x8002
8001729c:	24449ec8 	addiu	a0,v0,-24888
800172a0:	3c028002 	lui	v0,0x8002
800172a4:	24459ecc 	addiu	a1,v0,-24884
800172a8:	0c005c3f 	jal	800170fc <badassert>
800172ac:	00000000 	nop
800172b0:	00000000 	nop
800172b4:	27c20014 	addiu	v0,s8,20
800172b8:	00402025 	move	a0,v0
800172bc:	24050009 	li	a1,9
800172c0:	0c0051fc 	jal	800147f0 <get_time>
800172c4:	00000000 	nop
800172c8:	27c30014 	addiu	v1,s8,20
800172cc:	3c028002 	lui	v0,0x8002
800172d0:	24449eec 	addiu	a0,v0,-24852
800172d4:	00602825 	move	a1,v1
800172d8:	0c000aaa 	jal	80002aa8 <kernel_printf>
800172dc:	00000000 	nop
800172e0:	27c2002c 	addiu	v0,s8,44
800172e4:	24420004 	addiu	v0,v0,4
800172e8:	afc20010 	sw	v0,16(s8)
800172ec:	8fc2002c 	lw	v0,44(s8)
800172f0:	00402025 	move	a0,v0
800172f4:	8fc50010 	lw	a1,16(s8)
800172f8:	0c0009ba 	jal	800026e8 <kernel_vprintf>
800172fc:	00000000 	nop
80017300:	afc00010 	sw	zero,16(s8)
80017304:	3c028002 	lui	v0,0x8002
80017308:	24449ef4 	addiu	a0,v0,-24844
8001730c:	0c000aaa 	jal	80002aa8 <kernel_printf>
80017310:	00000000 	nop
80017314:	03c0e825 	move	sp,s8
80017318:	8fbf0024 	lw	ra,36(sp)
8001731c:	8fbe0020 	lw	s8,32(sp)
80017320:	27bd0028 	addiu	sp,sp,40
80017324:	03e00008 	jr	ra
80017328:	00000000 	nop

8001732c <step>:
8001732c:	27bdffe8 	addiu	sp,sp,-24
80017330:	afbf0014 	sw	ra,20(sp)
80017334:	afbe0010 	sw	s8,16(sp)
80017338:	03a0f025 	move	s8,sp
8001733c:	8f8280a4 	lw	v0,-32604(gp)
80017340:	24420001 	addiu	v0,v0,1
80017344:	af8280a4 	sw	v0,-32604(gp)
80017348:	8f8380a4 	lw	v1,-32604(gp)
8001734c:	24040004 	li	a0,4
80017350:	3c028002 	lui	v0,0x8002
80017354:	24459f0c 	addiu	a1,v0,-24820
80017358:	00603025 	move	a2,v1
8001735c:	0c005c6a 	jal	800171a8 <log>
80017360:	00000000 	nop
80017364:	03c0e825 	move	sp,s8
80017368:	8fbf0014 	lw	ra,20(sp)
8001736c:	8fbe0010 	lw	s8,16(sp)
80017370:	27bd0018 	addiu	sp,sp,24
80017374:	03e00008 	jr	ra
80017378:	00000000 	nop

8001737c <step_reset>:
8001737c:	27bdfff8 	addiu	sp,sp,-8
80017380:	afbe0004 	sw	s8,4(sp)
80017384:	03a0f025 	move	s8,sp
80017388:	af8080a4 	sw	zero,-32604(gp)
8001738c:	03c0e825 	move	sp,s8
80017390:	8fbe0004 	lw	s8,4(sp)
80017394:	27bd0008 	addiu	sp,sp,8
80017398:	03e00008 	jr	ra
8001739c:	00000000 	nop

800173a0 <strerror>:
800173a0:	27bdffe8 	addiu	sp,sp,-24
800173a4:	afbf0014 	sw	ra,20(sp)
800173a8:	afbe0010 	sw	s8,16(sp)
800173ac:	03a0f025 	move	s8,sp
800173b0:	afc40018 	sw	a0,24(s8)
800173b4:	8fc20018 	lw	v0,24(s8)
800173b8:	0440000e 	bltz	v0,800173f4 <strerror+0x54>
800173bc:	00000000 	nop
800173c0:	24020041 	li	v0,65
800173c4:	8fc30018 	lw	v1,24(s8)
800173c8:	0062102a 	slt	v0,v1,v0
800173cc:	10400009 	beqz	v0,800173f4 <strerror+0x54>
800173d0:	00000000 	nop
800173d4:	3c028002 	lui	v0,0x8002
800173d8:	8fc30018 	lw	v1,24(s8)
800173dc:	00031880 	sll	v1,v1,0x2
800173e0:	2442a504 	addiu	v0,v0,-23292
800173e4:	00621021 	addu	v0,v1,v0
800173e8:	8c420000 	lw	v0,0(v0)
800173ec:	10000008 	b	80017410 <strerror+0x70>
800173f0:	00000000 	nop
800173f4:	24040001 	li	a0,1
800173f8:	3c028002 	lui	v0,0x8002
800173fc:	2445a608 	addiu	a1,v0,-23032
80017400:	8fc60018 	lw	a2,24(s8)
80017404:	0c005c6a 	jal	800171a8 <log>
80017408:	00000000 	nop
8001740c:	00001025 	move	v0,zero
80017410:	03c0e825 	move	sp,s8
80017414:	8fbf0014 	lw	ra,20(sp)
80017418:	8fbe0010 	lw	s8,16(sp)
8001741c:	27bd0018 	addiu	sp,sp,24
80017420:	03e00008 	jr	ra
80017424:	00000000 	nop

80017428 <pow>:
80017428:	27bdfff0 	addiu	sp,sp,-16
8001742c:	afbe000c 	sw	s8,12(sp)
80017430:	03a0f025 	move	s8,sp
80017434:	afc40010 	sw	a0,16(s8)
80017438:	afc50014 	sw	a1,20(s8)
8001743c:	24020001 	li	v0,1
80017440:	afc20000 	sw	v0,0(s8)
80017444:	8fc20014 	lw	v0,20(s8)
80017448:	04410004 	bgez	v0,8001745c <pow+0x34>
8001744c:	00000000 	nop
80017450:	2402ffff 	li	v0,-1
80017454:	1000000e 	b	80017490 <pow+0x68>
80017458:	00000000 	nop
8001745c:	10000006 	b	80017478 <pow+0x50>
80017460:	00000000 	nop
80017464:	8fc30000 	lw	v1,0(s8)
80017468:	8fc20010 	lw	v0,16(s8)
8001746c:	00620018 	mult	v1,v0
80017470:	00001012 	mflo	v0
80017474:	afc20000 	sw	v0,0(s8)
80017478:	8fc20014 	lw	v0,20(s8)
8001747c:	2443ffff 	addiu	v1,v0,-1
80017480:	afc30014 	sw	v1,20(s8)
80017484:	1440fff7 	bnez	v0,80017464 <pow+0x3c>
80017488:	00000000 	nop
8001748c:	8fc20000 	lw	v0,0(s8)
80017490:	03c0e825 	move	sp,s8
80017494:	8fbe000c 	lw	s8,12(sp)
80017498:	27bd0010 	addiu	sp,sp,16
8001749c:	03e00008 	jr	ra
800174a0:	00000000 	nop

800174a4 <kernel_cache>:
800174a4:	27bdfff8 	addiu	sp,sp,-8
800174a8:	afbe0004 	sw	s8,4(sp)
800174ac:	03a0f025 	move	s8,sp
800174b0:	afc40008 	sw	a0,8(s8)
800174b4:	8fc30008 	lw	v1,8(s8)
800174b8:	3c028000 	lui	v0,0x8000
800174bc:	00621025 	or	v0,v1,v0
800174c0:	afc20008 	sw	v0,8(s8)
800174c4:	240800e9 	li	t0,233
800174c8:	40884000 	mtc0	t0,c0_badvaddr
800174cc:	00404025 	move	t0,v0
800174d0:	bd000000 	cache	0x0,0(t0)
800174d4:	00000000 	nop
800174d8:	bd010000 	cache	0x1,0(t0)
800174dc:	afc20008 	sw	v0,8(s8)
800174e0:	03c0e825 	move	sp,s8
800174e4:	8fbe0004 	lw	s8,4(sp)
800174e8:	27bd0008 	addiu	sp,sp,8
800174ec:	03e00008 	jr	ra
800174f0:	00000000 	nop

800174f4 <kernel_serial_puts>:
800174f4:	27bdfff8 	addiu	sp,sp,-8
800174f8:	afbe0004 	sw	s8,4(sp)
800174fc:	03a0f025 	move	s8,sp
80017500:	afc40008 	sw	a0,8(s8)
80017504:	10000008 	b	80017528 <kernel_serial_puts+0x34>
80017508:	00000000 	nop
8001750c:	3c02bfc0 	lui	v0,0xbfc0
80017510:	34439018 	ori	v1,v0,0x9018
80017514:	8fc20008 	lw	v0,8(s8)
80017518:	24440001 	addiu	a0,v0,1
8001751c:	afc40008 	sw	a0,8(s8)
80017520:	90420000 	lbu	v0,0(v0)
80017524:	ac620000 	sw	v0,0(v1)
80017528:	8fc20008 	lw	v0,8(s8)
8001752c:	90420000 	lbu	v0,0(v0)
80017530:	1440fff6 	bnez	v0,8001750c <kernel_serial_puts+0x18>
80017534:	00000000 	nop
80017538:	03c0e825 	move	sp,s8
8001753c:	8fbe0004 	lw	s8,4(sp)
80017540:	27bd0008 	addiu	sp,sp,8
80017544:	03e00008 	jr	ra
80017548:	00000000 	nop

8001754c <kernel_serial_putc>:
8001754c:	27bdfff8 	addiu	sp,sp,-8
80017550:	afbe0004 	sw	s8,4(sp)
80017554:	03a0f025 	move	s8,sp
80017558:	00801025 	move	v0,a0
8001755c:	a3c20008 	sb	v0,8(s8)
80017560:	3c02bfc0 	lui	v0,0xbfc0
80017564:	34429018 	ori	v0,v0,0x9018
80017568:	93c30008 	lbu	v1,8(s8)
8001756c:	ac430000 	sw	v1,0(v0)
80017570:	03c0e825 	move	sp,s8
80017574:	8fbe0004 	lw	s8,4(sp)
80017578:	27bd0008 	addiu	sp,sp,8
8001757c:	03e00008 	jr	ra
80017580:	00000000 	nop

80017584 <is_bound>:
80017584:	27bdfff8 	addiu	sp,sp,-8
80017588:	afbe0004 	sw	s8,4(sp)
8001758c:	03a0f025 	move	s8,sp
80017590:	afc40008 	sw	a0,8(s8)
80017594:	afc5000c 	sw	a1,12(s8)
80017598:	8fc2000c 	lw	v0,12(s8)
8001759c:	2443ffff 	addiu	v1,v0,-1
800175a0:	8fc20008 	lw	v0,8(s8)
800175a4:	00621024 	and	v0,v1,v0
800175a8:	2c420001 	sltiu	v0,v0,1
800175ac:	304200ff 	andi	v0,v0,0xff
800175b0:	03c0e825 	move	sp,s8
800175b4:	8fbe0004 	lw	s8,4(sp)
800175b8:	27bd0008 	addiu	sp,sp,8
800175bc:	03e00008 	jr	ra
800175c0:	00000000 	nop

800175c4 <kernel_memcpy>:
800175c4:	27bdfff0 	addiu	sp,sp,-16
800175c8:	afbe000c 	sw	s8,12(sp)
800175cc:	03a0f025 	move	s8,sp
800175d0:	afc40010 	sw	a0,16(s8)
800175d4:	afc50014 	sw	a1,20(s8)
800175d8:	afc60018 	sw	a2,24(s8)
800175dc:	8fc20010 	lw	v0,16(s8)
800175e0:	afc20000 	sw	v0,0(s8)
800175e4:	8fc20014 	lw	v0,20(s8)
800175e8:	afc20004 	sw	v0,4(s8)
800175ec:	1000000b 	b	8001761c <kernel_memcpy+0x58>
800175f0:	00000000 	nop
800175f4:	8fc20004 	lw	v0,4(s8)
800175f8:	90430000 	lbu	v1,0(v0)
800175fc:	8fc20000 	lw	v0,0(s8)
80017600:	a0430000 	sb	v1,0(v0)
80017604:	8fc20000 	lw	v0,0(s8)
80017608:	24420001 	addiu	v0,v0,1
8001760c:	afc20000 	sw	v0,0(s8)
80017610:	8fc20004 	lw	v0,4(s8)
80017614:	24420001 	addiu	v0,v0,1
80017618:	afc20004 	sw	v0,4(s8)
8001761c:	8fc20018 	lw	v0,24(s8)
80017620:	2443ffff 	addiu	v1,v0,-1
80017624:	afc30018 	sw	v1,24(s8)
80017628:	1440fff2 	bnez	v0,800175f4 <kernel_memcpy+0x30>
8001762c:	00000000 	nop
80017630:	8fc20010 	lw	v0,16(s8)
80017634:	03c0e825 	move	sp,s8
80017638:	8fbe000c 	lw	s8,12(sp)
8001763c:	27bd0010 	addiu	sp,sp,16
80017640:	03e00008 	jr	ra
80017644:	00000000 	nop

80017648 <kernel_memset>:
80017648:	0005282b 	sltu	a1,zero,a1
8001764c:	00052823 	negu	a1,a1
80017650:	00801025 	move	v0,a0
80017654:	10c00007 	beqz	a2,80017674 <kernel_memset+0x2c>
80017658:	30a500ff 	andi	a1,a1,0xff
8001765c:	00863021 	addu	a2,a0,a2
80017660:	00801825 	move	v1,a0
80017664:	a0650000 	sb	a1,0(v1)
80017668:	24630001 	addiu	v1,v1,1
8001766c:	1466fffd 	bne	v1,a2,80017664 <kernel_memset+0x1c>
80017670:	00000000 	nop
80017674:	03e00008 	jr	ra
80017678:	00000000 	nop

8001767c <kernel_memset_word>:
8001767c:	27bdfff8 	addiu	sp,sp,-8
80017680:	afbe0004 	sw	s8,4(sp)
80017684:	03a0f025 	move	s8,sp
80017688:	afc40008 	sw	a0,8(s8)
8001768c:	afc5000c 	sw	a1,12(s8)
80017690:	afc60010 	sw	a2,16(s8)
80017694:	10000006 	b	800176b0 <kernel_memset_word+0x34>
80017698:	00000000 	nop
8001769c:	8fc20008 	lw	v0,8(s8)
800176a0:	24430004 	addiu	v1,v0,4
800176a4:	afc30008 	sw	v1,8(s8)
800176a8:	8fc3000c 	lw	v1,12(s8)
800176ac:	ac430000 	sw	v1,0(v0)
800176b0:	8fc20010 	lw	v0,16(s8)
800176b4:	2443ffff 	addiu	v1,v0,-1
800176b8:	afc30010 	sw	v1,16(s8)
800176bc:	1440fff7 	bnez	v0,8001769c <kernel_memset_word+0x20>
800176c0:	00000000 	nop
800176c4:	8fc20008 	lw	v0,8(s8)
800176c8:	03c0e825 	move	sp,s8
800176cc:	8fbe0004 	lw	s8,4(sp)
800176d0:	27bd0008 	addiu	sp,sp,8
800176d4:	03e00008 	jr	ra
800176d8:	00000000 	nop

800176dc <kernel_memmove>:
800176dc:	27bdffd0 	addiu	sp,sp,-48
800176e0:	afbf002c 	sw	ra,44(sp)
800176e4:	afbe0028 	sw	s8,40(sp)
800176e8:	03a0f025 	move	s8,sp
800176ec:	afc40030 	sw	a0,48(s8)
800176f0:	afc50034 	sw	a1,52(s8)
800176f4:	afc60038 	sw	a2,56(s8)
800176f8:	8fc30030 	lw	v1,48(s8)
800176fc:	8fc20034 	lw	v0,52(s8)
80017700:	0062102b 	sltu	v0,v1,v0
80017704:	10400009 	beqz	v0,8001772c <kernel_memmove+0x50>
80017708:	00000000 	nop
8001770c:	8fc20038 	lw	v0,56(s8)
80017710:	8fc40030 	lw	a0,48(s8)
80017714:	8fc50034 	lw	a1,52(s8)
80017718:	00403025 	move	a2,v0
8001771c:	0c005d71 	jal	800175c4 <kernel_memcpy>
80017720:	00000000 	nop
80017724:	10000047 	b	80017844 <kernel_memmove+0x168>
80017728:	00000000 	nop
8001772c:	8fc20030 	lw	v0,48(s8)
80017730:	30420003 	andi	v0,v0,0x3
80017734:	1440002a 	bnez	v0,800177e0 <kernel_memmove+0x104>
80017738:	00000000 	nop
8001773c:	8fc20034 	lw	v0,52(s8)
80017740:	30420003 	andi	v0,v0,0x3
80017744:	14400026 	bnez	v0,800177e0 <kernel_memmove+0x104>
80017748:	00000000 	nop
8001774c:	8fc20038 	lw	v0,56(s8)
80017750:	30420003 	andi	v0,v0,0x3
80017754:	14400022 	bnez	v0,800177e0 <kernel_memmove+0x104>
80017758:	00000000 	nop
8001775c:	8fc20030 	lw	v0,48(s8)
80017760:	afc20014 	sw	v0,20(s8)
80017764:	8fc20034 	lw	v0,52(s8)
80017768:	afc20018 	sw	v0,24(s8)
8001776c:	8fc20038 	lw	v0,56(s8)
80017770:	00021082 	srl	v0,v0,0x2
80017774:	afc20010 	sw	v0,16(s8)
80017778:	10000014 	b	800177cc <kernel_memmove+0xf0>
8001777c:	00000000 	nop
80017780:	8fc30010 	lw	v1,16(s8)
80017784:	3c023fff 	lui	v0,0x3fff
80017788:	3442ffff 	ori	v0,v0,0xffff
8001778c:	00621021 	addu	v0,v1,v0
80017790:	00021080 	sll	v0,v0,0x2
80017794:	8fc30014 	lw	v1,20(s8)
80017798:	00621021 	addu	v0,v1,v0
8001779c:	8fc40010 	lw	a0,16(s8)
800177a0:	3c033fff 	lui	v1,0x3fff
800177a4:	3463ffff 	ori	v1,v1,0xffff
800177a8:	00831821 	addu	v1,a0,v1
800177ac:	00031880 	sll	v1,v1,0x2
800177b0:	8fc40018 	lw	a0,24(s8)
800177b4:	00831821 	addu	v1,a0,v1
800177b8:	8c630000 	lw	v1,0(v1)
800177bc:	ac430000 	sw	v1,0(v0)
800177c0:	8fc20010 	lw	v0,16(s8)
800177c4:	2442ffff 	addiu	v0,v0,-1
800177c8:	afc20010 	sw	v0,16(s8)
800177cc:	8fc20010 	lw	v0,16(s8)
800177d0:	1440ffeb 	bnez	v0,80017780 <kernel_memmove+0xa4>
800177d4:	00000000 	nop
800177d8:	10000019 	b	80017840 <kernel_memmove+0x164>
800177dc:	00000000 	nop
800177e0:	8fc20030 	lw	v0,48(s8)
800177e4:	afc2001c 	sw	v0,28(s8)
800177e8:	8fc20034 	lw	v0,52(s8)
800177ec:	afc20020 	sw	v0,32(s8)
800177f0:	8fc20038 	lw	v0,56(s8)
800177f4:	afc20010 	sw	v0,16(s8)
800177f8:	1000000e 	b	80017834 <kernel_memmove+0x158>
800177fc:	00000000 	nop
80017800:	8fc20010 	lw	v0,16(s8)
80017804:	2442ffff 	addiu	v0,v0,-1
80017808:	8fc3001c 	lw	v1,28(s8)
8001780c:	00621021 	addu	v0,v1,v0
80017810:	8fc30010 	lw	v1,16(s8)
80017814:	2463ffff 	addiu	v1,v1,-1
80017818:	8fc40020 	lw	a0,32(s8)
8001781c:	00831821 	addu	v1,a0,v1
80017820:	90630000 	lbu	v1,0(v1)
80017824:	a0430000 	sb	v1,0(v0)
80017828:	8fc20010 	lw	v0,16(s8)
8001782c:	2442ffff 	addiu	v0,v0,-1
80017830:	afc20010 	sw	v0,16(s8)
80017834:	8fc20010 	lw	v0,16(s8)
80017838:	1440fff1 	bnez	v0,80017800 <kernel_memmove+0x124>
8001783c:	00000000 	nop
80017840:	8fc20030 	lw	v0,48(s8)
80017844:	03c0e825 	move	sp,s8
80017848:	8fbf002c 	lw	ra,44(sp)
8001784c:	8fbe0028 	lw	s8,40(sp)
80017850:	27bd0030 	addiu	sp,sp,48
80017854:	03e00008 	jr	ra
80017858:	00000000 	nop

8001785c <bzero>:
8001785c:	27bdffe8 	addiu	sp,sp,-24
80017860:	afbe0014 	sw	s8,20(sp)
80017864:	03a0f025 	move	s8,sp
80017868:	afc40018 	sw	a0,24(s8)
8001786c:	afc5001c 	sw	a1,28(s8)
80017870:	8fc20018 	lw	v0,24(s8)
80017874:	afc20004 	sw	v0,4(s8)
80017878:	8fc20004 	lw	v0,4(s8)
8001787c:	30420003 	andi	v0,v0,0x3
80017880:	1440001a 	bnez	v0,800178ec <bzero+0x90>
80017884:	00000000 	nop
80017888:	8fc2001c 	lw	v0,28(s8)
8001788c:	30420003 	andi	v0,v0,0x3
80017890:	14400016 	bnez	v0,800178ec <bzero+0x90>
80017894:	00000000 	nop
80017898:	8fc20004 	lw	v0,4(s8)
8001789c:	afc20008 	sw	v0,8(s8)
800178a0:	afc00000 	sw	zero,0(s8)
800178a4:	10000009 	b	800178cc <bzero+0x70>
800178a8:	00000000 	nop
800178ac:	8fc20000 	lw	v0,0(s8)
800178b0:	00021080 	sll	v0,v0,0x2
800178b4:	8fc30008 	lw	v1,8(s8)
800178b8:	00621021 	addu	v0,v1,v0
800178bc:	ac400000 	sw	zero,0(v0)
800178c0:	8fc20000 	lw	v0,0(s8)
800178c4:	24420001 	addiu	v0,v0,1
800178c8:	afc20000 	sw	v0,0(s8)
800178cc:	8fc2001c 	lw	v0,28(s8)
800178d0:	00021882 	srl	v1,v0,0x2
800178d4:	8fc20000 	lw	v0,0(s8)
800178d8:	0043102b 	sltu	v0,v0,v1
800178dc:	1440fff3 	bnez	v0,800178ac <bzero+0x50>
800178e0:	00000000 	nop
800178e4:	10000010 	b	80017928 <bzero+0xcc>
800178e8:	00000000 	nop
800178ec:	afc00000 	sw	zero,0(s8)
800178f0:	10000008 	b	80017914 <bzero+0xb8>
800178f4:	00000000 	nop
800178f8:	8fc30004 	lw	v1,4(s8)
800178fc:	8fc20000 	lw	v0,0(s8)
80017900:	00621021 	addu	v0,v1,v0
80017904:	a0400000 	sb	zero,0(v0)
80017908:	8fc20000 	lw	v0,0(s8)
8001790c:	24420001 	addiu	v0,v0,1
80017910:	afc20000 	sw	v0,0(s8)
80017914:	8fc30000 	lw	v1,0(s8)
80017918:	8fc2001c 	lw	v0,28(s8)
8001791c:	0062102b 	sltu	v0,v1,v0
80017920:	1440fff5 	bnez	v0,800178f8 <bzero+0x9c>
80017924:	00000000 	nop
80017928:	03c0e825 	move	sp,s8
8001792c:	8fbe0014 	lw	s8,20(sp)
80017930:	27bd0018 	addiu	sp,sp,24
80017934:	03e00008 	jr	ra
80017938:	00000000 	nop

8001793c <kernel_strcmp>:
8001793c:	27bdfff8 	addiu	sp,sp,-8
80017940:	afbe0004 	sw	s8,4(sp)
80017944:	03a0f025 	move	s8,sp
80017948:	afc40008 	sw	a0,8(s8)
8001794c:	afc5000c 	sw	a1,12(s8)
80017950:	10000007 	b	80017970 <kernel_strcmp+0x34>
80017954:	00000000 	nop
80017958:	8fc20008 	lw	v0,8(s8)
8001795c:	24420001 	addiu	v0,v0,1
80017960:	afc20008 	sw	v0,8(s8)
80017964:	8fc2000c 	lw	v0,12(s8)
80017968:	24420001 	addiu	v0,v0,1
8001796c:	afc2000c 	sw	v0,12(s8)
80017970:	8fc20008 	lw	v0,8(s8)
80017974:	90430000 	lbu	v1,0(v0)
80017978:	8fc2000c 	lw	v0,12(s8)
8001797c:	90420000 	lbu	v0,0(v0)
80017980:	14620005 	bne	v1,v0,80017998 <kernel_strcmp+0x5c>
80017984:	00000000 	nop
80017988:	8fc20008 	lw	v0,8(s8)
8001798c:	90420000 	lbu	v0,0(v0)
80017990:	1440fff1 	bnez	v0,80017958 <kernel_strcmp+0x1c>
80017994:	00000000 	nop
80017998:	8fc20008 	lw	v0,8(s8)
8001799c:	90420000 	lbu	v0,0(v0)
800179a0:	00401825 	move	v1,v0
800179a4:	8fc2000c 	lw	v0,12(s8)
800179a8:	90420000 	lbu	v0,0(v0)
800179ac:	00621023 	subu	v0,v1,v0
800179b0:	03c0e825 	move	sp,s8
800179b4:	8fbe0004 	lw	s8,4(sp)
800179b8:	27bd0008 	addiu	sp,sp,8
800179bc:	03e00008 	jr	ra
800179c0:	00000000 	nop

800179c4 <kernel_strlen>:
800179c4:	27bdfff0 	addiu	sp,sp,-16
800179c8:	afbe000c 	sw	s8,12(sp)
800179cc:	03a0f025 	move	s8,sp
800179d0:	afc40010 	sw	a0,16(s8)
800179d4:	afc00000 	sw	zero,0(s8)
800179d8:	10000004 	b	800179ec <kernel_strlen+0x28>
800179dc:	00000000 	nop
800179e0:	8fc20000 	lw	v0,0(s8)
800179e4:	24420001 	addiu	v0,v0,1
800179e8:	afc20000 	sw	v0,0(s8)
800179ec:	8fc30010 	lw	v1,16(s8)
800179f0:	8fc20000 	lw	v0,0(s8)
800179f4:	00621021 	addu	v0,v1,v0
800179f8:	90420000 	lbu	v0,0(v0)
800179fc:	1440fff8 	bnez	v0,800179e0 <kernel_strlen+0x1c>
80017a00:	00000000 	nop
80017a04:	8fc20000 	lw	v0,0(s8)
80017a08:	03c0e825 	move	sp,s8
80017a0c:	8fbe000c 	lw	s8,12(sp)
80017a10:	27bd0010 	addiu	sp,sp,16
80017a14:	03e00008 	jr	ra
80017a18:	00000000 	nop

80017a1c <kernel_strchr>:
80017a1c:	27bdfff0 	addiu	sp,sp,-16
80017a20:	afbe000c 	sw	s8,12(sp)
80017a24:	03a0f025 	move	s8,sp
80017a28:	afc40010 	sw	a0,16(s8)
80017a2c:	afc50014 	sw	a1,20(s8)
80017a30:	8fc20014 	lw	v0,20(s8)
80017a34:	a3c20000 	sb	v0,0(s8)
80017a38:	1000000c 	b	80017a6c <kernel_strchr+0x50>
80017a3c:	00000000 	nop
80017a40:	8fc20010 	lw	v0,16(s8)
80017a44:	90420000 	lbu	v0,0(v0)
80017a48:	93c30000 	lbu	v1,0(s8)
80017a4c:	14620004 	bne	v1,v0,80017a60 <kernel_strchr+0x44>
80017a50:	00000000 	nop
80017a54:	8fc20010 	lw	v0,16(s8)
80017a58:	10000011 	b	80017aa0 <kernel_strchr+0x84>
80017a5c:	00000000 	nop
80017a60:	8fc20010 	lw	v0,16(s8)
80017a64:	24420001 	addiu	v0,v0,1
80017a68:	afc20010 	sw	v0,16(s8)
80017a6c:	8fc20010 	lw	v0,16(s8)
80017a70:	90420000 	lbu	v0,0(v0)
80017a74:	1440fff2 	bnez	v0,80017a40 <kernel_strchr+0x24>
80017a78:	00000000 	nop
80017a7c:	8fc20010 	lw	v0,16(s8)
80017a80:	90420000 	lbu	v0,0(v0)
80017a84:	93c30000 	lbu	v1,0(s8)
80017a88:	14620004 	bne	v1,v0,80017a9c <kernel_strchr+0x80>
80017a8c:	00000000 	nop
80017a90:	8fc20010 	lw	v0,16(s8)
80017a94:	10000002 	b	80017aa0 <kernel_strchr+0x84>
80017a98:	00000000 	nop
80017a9c:	00001025 	move	v0,zero
80017aa0:	03c0e825 	move	sp,s8
80017aa4:	8fbe000c 	lw	s8,12(sp)
80017aa8:	27bd0010 	addiu	sp,sp,16
80017aac:	03e00008 	jr	ra
80017ab0:	00000000 	nop

80017ab4 <kernel_strcpy>:
80017ab4:	27bdfff8 	addiu	sp,sp,-8
80017ab8:	afbe0004 	sw	s8,4(sp)
80017abc:	03a0f025 	move	s8,sp
80017ac0:	afc40008 	sw	a0,8(s8)
80017ac4:	afc5000c 	sw	a1,12(s8)
80017ac8:	00000000 	nop
80017acc:	8fc20008 	lw	v0,8(s8)
80017ad0:	24430001 	addiu	v1,v0,1
80017ad4:	afc30008 	sw	v1,8(s8)
80017ad8:	8fc3000c 	lw	v1,12(s8)
80017adc:	24640001 	addiu	a0,v1,1
80017ae0:	afc4000c 	sw	a0,12(s8)
80017ae4:	90630000 	lbu	v1,0(v1)
80017ae8:	a0430000 	sb	v1,0(v0)
80017aec:	90420000 	lbu	v0,0(v0)
80017af0:	1440fff6 	bnez	v0,80017acc <kernel_strcpy+0x18>
80017af4:	00000000 	nop
80017af8:	8fc20008 	lw	v0,8(s8)
80017afc:	03c0e825 	move	sp,s8
80017b00:	8fbe0004 	lw	s8,4(sp)
80017b04:	27bd0008 	addiu	sp,sp,8
80017b08:	03e00008 	jr	ra
80017b0c:	00000000 	nop

80017b10 <kernel_strcat>:
80017b10:	27bdffe0 	addiu	sp,sp,-32
80017b14:	afbf001c 	sw	ra,28(sp)
80017b18:	afbe0018 	sw	s8,24(sp)
80017b1c:	03a0f025 	move	s8,sp
80017b20:	afc40020 	sw	a0,32(s8)
80017b24:	afc50024 	sw	a1,36(s8)
80017b28:	8fc40020 	lw	a0,32(s8)
80017b2c:	0c005e71 	jal	800179c4 <kernel_strlen>
80017b30:	00000000 	nop
80017b34:	afc20010 	sw	v0,16(s8)
80017b38:	8fc30020 	lw	v1,32(s8)
80017b3c:	8fc20010 	lw	v0,16(s8)
80017b40:	00621021 	addu	v0,v1,v0
80017b44:	00402025 	move	a0,v0
80017b48:	8fc50024 	lw	a1,36(s8)
80017b4c:	0c005ead 	jal	80017ab4 <kernel_strcpy>
80017b50:	00000000 	nop
80017b54:	8fc20020 	lw	v0,32(s8)
80017b58:	03c0e825 	move	sp,s8
80017b5c:	8fbf001c 	lw	ra,28(sp)
80017b60:	8fbe0018 	lw	s8,24(sp)
80017b64:	27bd0020 	addiu	sp,sp,32
80017b68:	03e00008 	jr	ra
80017b6c:	00000000 	nop

80017b70 <kernel_strdup>:
80017b70:	27bdffe0 	addiu	sp,sp,-32
80017b74:	afbf001c 	sw	ra,28(sp)
80017b78:	afbe0018 	sw	s8,24(sp)
80017b7c:	03a0f025 	move	s8,sp
80017b80:	afc40020 	sw	a0,32(s8)
80017b84:	8fc40020 	lw	a0,32(s8)
80017b88:	0c005e71 	jal	800179c4 <kernel_strlen>
80017b8c:	00000000 	nop
80017b90:	24420001 	addiu	v0,v0,1
80017b94:	00402025 	move	a0,v0
80017b98:	0c003abb 	jal	8000eaec <kmalloc>
80017b9c:	00000000 	nop
80017ba0:	afc20010 	sw	v0,16(s8)
80017ba4:	8fc20010 	lw	v0,16(s8)
80017ba8:	14400004 	bnez	v0,80017bbc <kernel_strdup+0x4c>
80017bac:	00000000 	nop
80017bb0:	00001025 	move	v0,zero
80017bb4:	10000006 	b	80017bd0 <kernel_strdup+0x60>
80017bb8:	00000000 	nop
80017bbc:	8fc40010 	lw	a0,16(s8)
80017bc0:	8fc50020 	lw	a1,32(s8)
80017bc4:	0c005ead 	jal	80017ab4 <kernel_strcpy>
80017bc8:	00000000 	nop
80017bcc:	8fc20010 	lw	v0,16(s8)
80017bd0:	03c0e825 	move	sp,s8
80017bd4:	8fbf001c 	lw	ra,28(sp)
80017bd8:	8fbe0018 	lw	s8,24(sp)
80017bdc:	27bd0020 	addiu	sp,sp,32
80017be0:	03e00008 	jr	ra
80017be4:	00000000 	nop

80017be8 <kernel_strtok_r>:
80017be8:	27bdffe0 	addiu	sp,sp,-32
80017bec:	afbf001c 	sw	ra,28(sp)
80017bf0:	afbe0018 	sw	s8,24(sp)
80017bf4:	03a0f025 	move	s8,sp
80017bf8:	afc40020 	sw	a0,32(s8)
80017bfc:	afc50024 	sw	a1,36(s8)
80017c00:	afc60028 	sw	a2,40(s8)
80017c04:	8fc20020 	lw	v0,32(s8)
80017c08:	10400004 	beqz	v0,80017c1c <kernel_strtok_r+0x34>
80017c0c:	00000000 	nop
80017c10:	8fc20028 	lw	v0,40(s8)
80017c14:	8fc30020 	lw	v1,32(s8)
80017c18:	ac430000 	sw	v1,0(v0)
80017c1c:	8fc20028 	lw	v0,40(s8)
80017c20:	8c420000 	lw	v0,0(v0)
80017c24:	afc20010 	sw	v0,16(s8)
80017c28:	8fc20010 	lw	v0,16(s8)
80017c2c:	14400004 	bnez	v0,80017c40 <kernel_strtok_r+0x58>
80017c30:	00000000 	nop
80017c34:	00001025 	move	v0,zero
80017c38:	1000003f 	b	80017d38 <kernel_strtok_r+0x150>
80017c3c:	00000000 	nop
80017c40:	10000004 	b	80017c54 <kernel_strtok_r+0x6c>
80017c44:	00000000 	nop
80017c48:	8fc20010 	lw	v0,16(s8)
80017c4c:	24420001 	addiu	v0,v0,1
80017c50:	afc20010 	sw	v0,16(s8)
80017c54:	8fc20010 	lw	v0,16(s8)
80017c58:	90420000 	lbu	v0,0(v0)
80017c5c:	10400009 	beqz	v0,80017c84 <kernel_strtok_r+0x9c>
80017c60:	00000000 	nop
80017c64:	8fc20010 	lw	v0,16(s8)
80017c68:	90420000 	lbu	v0,0(v0)
80017c6c:	8fc40024 	lw	a0,36(s8)
80017c70:	00402825 	move	a1,v0
80017c74:	0c005e87 	jal	80017a1c <kernel_strchr>
80017c78:	00000000 	nop
80017c7c:	1440fff2 	bnez	v0,80017c48 <kernel_strtok_r+0x60>
80017c80:	00000000 	nop
80017c84:	8fc20010 	lw	v0,16(s8)
80017c88:	90420000 	lbu	v0,0(v0)
80017c8c:	14400006 	bnez	v0,80017ca8 <kernel_strtok_r+0xc0>
80017c90:	00000000 	nop
80017c94:	8fc20028 	lw	v0,40(s8)
80017c98:	ac400000 	sw	zero,0(v0)
80017c9c:	00001025 	move	v0,zero
80017ca0:	10000025 	b	80017d38 <kernel_strtok_r+0x150>
80017ca4:	00000000 	nop
80017ca8:	8fc20010 	lw	v0,16(s8)
80017cac:	afc20014 	sw	v0,20(s8)
80017cb0:	10000004 	b	80017cc4 <kernel_strtok_r+0xdc>
80017cb4:	00000000 	nop
80017cb8:	8fc20014 	lw	v0,20(s8)
80017cbc:	24420001 	addiu	v0,v0,1
80017cc0:	afc20014 	sw	v0,20(s8)
80017cc4:	8fc20014 	lw	v0,20(s8)
80017cc8:	90420000 	lbu	v0,0(v0)
80017ccc:	10400009 	beqz	v0,80017cf4 <kernel_strtok_r+0x10c>
80017cd0:	00000000 	nop
80017cd4:	8fc20014 	lw	v0,20(s8)
80017cd8:	90420000 	lbu	v0,0(v0)
80017cdc:	8fc40024 	lw	a0,36(s8)
80017ce0:	00402825 	move	a1,v0
80017ce4:	0c005e87 	jal	80017a1c <kernel_strchr>
80017ce8:	00000000 	nop
80017cec:	1040fff2 	beqz	v0,80017cb8 <kernel_strtok_r+0xd0>
80017cf0:	00000000 	nop
80017cf4:	8fc20014 	lw	v0,20(s8)
80017cf8:	90420000 	lbu	v0,0(v0)
80017cfc:	14400005 	bnez	v0,80017d14 <kernel_strtok_r+0x12c>
80017d00:	00000000 	nop
80017d04:	8fc20028 	lw	v0,40(s8)
80017d08:	ac400000 	sw	zero,0(v0)
80017d0c:	10000009 	b	80017d34 <kernel_strtok_r+0x14c>
80017d10:	00000000 	nop
80017d14:	8fc20014 	lw	v0,20(s8)
80017d18:	a0400000 	sb	zero,0(v0)
80017d1c:	8fc20014 	lw	v0,20(s8)
80017d20:	24420001 	addiu	v0,v0,1
80017d24:	afc20014 	sw	v0,20(s8)
80017d28:	8fc20028 	lw	v0,40(s8)
80017d2c:	8fc30014 	lw	v1,20(s8)
80017d30:	ac430000 	sw	v1,0(v0)
80017d34:	8fc20010 	lw	v0,16(s8)
80017d38:	03c0e825 	move	sp,s8
80017d3c:	8fbf001c 	lw	ra,28(sp)
80017d40:	8fbe0018 	lw	s8,24(sp)
80017d44:	27bd0020 	addiu	sp,sp,32
80017d48:	03e00008 	jr	ra
80017d4c:	00000000 	nop
